
Memory Configuration

Name             Origin             Length             Attributes
*default*        0x0000000000000000 0xffffffffffffffff

Linker script and memory map

Address of section .text set to 0x8000000
LOAD build/us_n64/actors/common0.o
                [!provide]                        PROVIDE (__executable_start = SEGMENT_START ("text-segment", 0x400000))
                0x0000000000400000                . = SEGMENT_START ("text-segment", 0x400000)

.interp
 *(.interp)

.MIPS.abiflags  0x0000000000400000       0x18
 *(.MIPS.abiflags)
 .MIPS.abiflags
                0x0000000000400000       0x18 build/us_n64/actors/common0.o

.reginfo        0x0000000000400018       0x18
 *(.reginfo)
 .reginfo       0x0000000000400018       0x18 build/us_n64/actors/common0.o

.note.gnu.build-id
 *(.note.gnu.build-id)

.dynamic
 *(.dynamic)

.hash
 *(.hash)

.gnu.hash
 *(.gnu.hash)

.dynsym
 *(.dynsym)

.dynstr
 *(.dynstr)

.gnu.version
 *(.gnu.version)

.gnu.version_d
 *(.gnu.version_d)

.gnu.version_r
 *(.gnu.version_r)

.rel.dyn        0x0000000000400018        0x0 load address 0x0000000000400030
 *(.rel.init)
 *(.rel.text .rel.text.* .rel.gnu.linkonce.t.*)
 *(.rel.fini)
 *(.rel.rodata .rel.rodata.* .rel.gnu.linkonce.r.*)
 *(.rel.data.rel.ro .rel.data.rel.ro.* .rel.gnu.linkonce.d.rel.ro.*)
 *(.rel.data .rel.data.* .rel.gnu.linkonce.d.*)
 *(.rel.tdata .rel.tdata.* .rel.gnu.linkonce.td.*)
 *(.rel.tbss .rel.tbss.* .rel.gnu.linkonce.tb.*)
 *(.rel.ctors)
 *(.rel.dtors)
 *(.rel.got)
 *(.rel.dyn)
 .rel.dyn       0x0000000000400018        0x0 build/us_n64/actors/common0.o
 *(.rel.sdata .rel.sdata.* .rel.gnu.linkonce.s.*)
 *(.rel.sbss .rel.sbss.* .rel.gnu.linkonce.sb.*)
 *(.rel.sdata2 .rel.sdata2.* .rel.gnu.linkonce.s2.*)
 *(.rel.sbss2 .rel.sbss2.* .rel.gnu.linkonce.sb2.*)
 *(.rel.bss .rel.bss.* .rel.gnu.linkonce.b.*)
                [!provide]                        PROVIDE (__rel_iplt_start = .)
 *(.rel.iplt)
                [!provide]                        PROVIDE (__rel_iplt_end = .)

.rela.dyn       0x0000000000400018        0x0
 *(.rela.init)
 *(.rela.text .rela.text.* .rela.gnu.linkonce.t.*)
 *(.rela.fini)
 *(.rela.rodata .rela.rodata.* .rela.gnu.linkonce.r.*)
 *(.rela.data .rela.data.* .rela.gnu.linkonce.d.*)
 *(.rela.tdata .rela.tdata.* .rela.gnu.linkonce.td.*)
 *(.rela.tbss .rela.tbss.* .rela.gnu.linkonce.tb.*)
 *(.rela.ctors)
 *(.rela.dtors)
 *(.rela.got)
 *(.rela.sdata .rela.sdata.* .rela.gnu.linkonce.s.*)
 *(.rela.sbss .rela.sbss.* .rela.gnu.linkonce.sb.*)
 *(.rela.sdata2 .rela.sdata2.* .rela.gnu.linkonce.s2.*)
 *(.rela.sbss2 .rela.sbss2.* .rela.gnu.linkonce.sb2.*)
 *(.rela.bss .rela.bss.* .rela.gnu.linkonce.b.*)
                [!provide]                        PROVIDE (__rela_iplt_start = .)
 *(.rela.iplt)
                [!provide]                        PROVIDE (__rela_iplt_end = .)

.rel.plt
 *(.rel.plt)

.rela.plt
 *(.rela.plt)

.init
 *(SORT_NONE(.init))

.plt
 *(.plt)

.iplt
 *(.iplt)

.text           0x0000000008000000        0x0 load address 0x0000000008000018
                0x0000000008000000                _ftext = .
 *(.text.unlikely .text.*_unlikely .text.unlikely.*)
 *(.text.exit .text.exit.*)
 *(.text.startup .text.startup.*)
 *(.text.hot .text.hot.*)
 *(.text .stub .text.* .gnu.linkonce.t.*)
 .text          0x0000000008000000        0x0 build/us_n64/actors/common0.o
 *(.gnu.warning)
 *(.mips16.fn.*)
 *(.mips16.call.*)

.fini
 *(SORT_NONE(.fini))
                [!provide]                        PROVIDE (__etext = .)
                [!provide]                        PROVIDE (_etext = .)
                [!provide]                        PROVIDE (etext = .)

.rodata
 *(.rodata .rodata.* .gnu.linkonce.r.*)

.rodata1
 *(.rodata1)

.sdata2
 *(.sdata2 .sdata2.* .gnu.linkonce.s2.*)

.sbss2
 *(.sbss2 .sbss2.* .gnu.linkonce.sb2.*)

.eh_frame_hdr
 *(.eh_frame_hdr)
 *(.eh_frame_entry .eh_frame_entry.*)

.eh_frame
 *(.eh_frame)
 *(.eh_frame.*)

.gcc_except_table
 *(.gcc_except_table .gcc_except_table.*)

.gnu_extab
 *(.gnu_extab*)

.exception_ranges
 *(.exception_ranges .exception_ranges*)
                0x0000000008000000                . = DATA_SEGMENT_ALIGN (CONSTANT (MAXPAGESIZE), CONSTANT (COMMONPAGESIZE))

.eh_frame
 *(.eh_frame)
 *(.eh_frame.*)

.gnu_extab
 *(.gnu_extab)

.gcc_except_table
 *(.gcc_except_table .gcc_except_table.*)

.exception_ranges
 *(.exception_ranges .exception_ranges*)

.tdata
 *(.tdata .tdata.* .gnu.linkonce.td.*)

.tbss
 *(.tbss .tbss.* .gnu.linkonce.tb.*)
 *(.tcommon)

.preinit_array  0x0000000008000000        0x0
                [!provide]                        PROVIDE (__preinit_array_start = .)
 *(.preinit_array)
                [!provide]                        PROVIDE (__preinit_array_end = .)

.init_array     0x0000000008000000        0x0
                [!provide]                        PROVIDE (__init_array_start = .)
 *(SORT_BY_INIT_PRIORITY(.init_array.*) SORT_BY_INIT_PRIORITY(.ctors.*))
 *(.init_array EXCLUDE_FILE(*crtend?.o *crtend.o *crtbegin?.o *crtbegin.o) .ctors)
                [!provide]                        PROVIDE (__init_array_end = .)

.fini_array     0x0000000008000000        0x0
                [!provide]                        PROVIDE (__fini_array_start = .)
 *(SORT_BY_INIT_PRIORITY(.fini_array.*) SORT_BY_INIT_PRIORITY(.dtors.*))
 *(.fini_array EXCLUDE_FILE(*crtend?.o *crtend.o *crtbegin?.o *crtbegin.o) .dtors)
                [!provide]                        PROVIDE (__fini_array_end = .)

.ctors
 *crtbegin.o(.ctors)
 *crtbegin?.o(.ctors)
 *(EXCLUDE_FILE(*crtend?.o *crtend.o) .ctors)
 *(SORT_BY_NAME(.ctors.*))
 *(.ctors)

.dtors
 *crtbegin.o(.dtors)
 *crtbegin?.o(.dtors)
 *(EXCLUDE_FILE(*crtend?.o *crtend.o) .dtors)
 *(SORT_BY_NAME(.dtors.*))
 *(.dtors)

.jcr
 *(.jcr)

.data.rel.ro
 *(.data.rel.ro.local* .gnu.linkonce.d.rel.ro.local.*)
 *(.data.rel.ro .data.rel.ro.* .gnu.linkonce.d.rel.ro.*)
                0x0000000008000000                . = DATA_SEGMENT_RELRO_END (., 0x0)

.data           0x0000000008000000    0x2fc38 load address 0x0000000008000018
                0x0000000008000000                _fdata = .
 *(.data .data.* .gnu.linkonce.d.*)
 .data          0x0000000008000000    0x2fc38 build/us_n64/actors/common0.o
                0x0000000008000000                tilting_platform_final_revert_mesh_layer_1
                0x0000000008000040                tilting_platform_tilting_platform_mesh_layer_1
                0x0000000008000098                mat_revert_tilting_platform_bricks
                0x00000000080000b8                mat_tilting_platform_bricks
                0x0000000008000148                mat_revert_tilting_platform_glyph_stone
                0x0000000008000168                mat_tilting_platform_glyph_stone
                0x00000000080001f8                tilting_platform_tilting_platform_mesh_layer_1_tri_1
                0x0000000008000210                tilting_platform_tilting_platform_mesh_layer_1_vtx_1
                0x0000000008000250                tilting_platform_tilting_platform_mesh_layer_1_tri_0
                0x00000000080002d0                tilting_platform_tilting_platform_mesh_layer_1_vtx_0
                0x0000000008000550                tilting_platform_tilting_platform_mesh_layer_1_vtx_cull
                0x00000000080005d0                tilting_platform__7_pal_rgba16
                0x0000000008000690                tilting_platform__7_pal_rgba16_aligner
                0x0000000008000698                tilting_platform__7_ci8
                0x0000000008000a98                tilting_platform__7_ci8_aligner
                0x0000000008000aa0                tilting_platform_KKIIDDZZ_DAT_964__p00_pal_rgba16
                0x0000000008000b80                tilting_platform_KKIIDDZZ_DAT_964__p00_pal_rgba16_aligner
                0x0000000008000b88                tilting_platform_KKIIDDZZ_DAT_964__p00_ci8
                0x0000000008000f88                tilting_platform_KKIIDDZZ_DAT_964__p00_ci8_aligner
                0x0000000008000f90                tilting_platform_collision
                0x0000000008001088                custom_pole_final_revert_mesh_layer_1
                0x00000000080010c8                custom_pole_custom_pole_mesh_layer_1
                0x0000000008001108                mat_revert_custom_pole_pole_texture
                0x0000000008001128                mat_custom_pole_pole_texture
                0x00000000080011b8                custom_pole_custom_pole_mesh_layer_1_tri_0
                0x00000000080012f0                custom_pole_custom_pole_mesh_layer_1_vtx_0
                0x0000000008001970                custom_pole_custom_pole_mesh_layer_1_vtx_cull
                0x00000000080019f0                custom_pole_ci4_sophie_interiorwall_pal_rgba16
                0x0000000008001a08                custom_pole_ci4_sophie_interiorwall_pal_rgba16_aligner
                0x0000000008001a10                custom_pole_ci4_sophie_interiorwall_ci4
                0x0000000008002210                custom_pole_ci4_sophie_interiorwall_ci4_aligner
                0x0000000008002218                custom_pole_collision
                0x00000000080024a0                magic_platform_final_revert_mesh_layer_5
                0x00000000080024e0                magic_platform_final_revert_mesh_layer_4
                0x0000000008002520                magic_platform_final_revert_mesh_layer_1
                0x0000000008002560                magic_platform_magic_platform_mesh_layer_5
                0x00000000080025a0                magic_platform_magic_platform_mesh_layer_4
                0x00000000080025e0                magic_platform_magic_platform_mesh_layer_1
                0x0000000008002620                mat_revert_magic_platform_tek
                0x0000000008002648                mat_magic_platform_tek
                0x00000000080026c8                mat_revert_magic_platform_corner_circle
                0x00000000080026f0                mat_magic_platform_corner_circle
                0x0000000008002788                mat_revert_magic_platform_blocky
                0x00000000080027a8                mat_magic_platform_blocky
                0x0000000008002838                magic_platform_magic_platform_mesh_layer_5_tri_0
                0x0000000008002858                magic_platform_magic_platform_mesh_layer_5_vtx_0
                0x00000000080028d8                magic_platform_magic_platform_mesh_layer_5_vtx_cull
                0x0000000008002958                magic_platform_magic_platform_mesh_layer_4_tri_0
                0x0000000008002970                magic_platform_magic_platform_mesh_layer_4_vtx_0
                0x00000000080029b0                magic_platform_magic_platform_mesh_layer_4_vtx_cull
                0x0000000008002a30                magic_platform_magic_platform_mesh_layer_1_tri_0
                0x0000000008002a60                magic_platform_magic_platform_mesh_layer_1_vtx_0
                0x0000000008002b60                magic_platform_magic_platform_mesh_layer_1_vtx_cull
                0x0000000008002be0                magic_platform_ci4_sophie_pedestal_L1_pal_rgba16
                0x0000000008002c00                magic_platform_ci4_sophie_pedestal_L1_pal_rgba16_aligner
                0x0000000008002c08                magic_platform_ci4_sophie_pedestal_L1_ci4
                0x0000000008003408                magic_platform_ci4_sophie_pedestal_L1_ci4_aligner
                0x0000000008003410                magic_platform_corner_circle_pal_rgba16
                0x0000000008003508                magic_platform_corner_circle_pal_rgba16_aligner
                0x0000000008003510                magic_platform_corner_circle_ci8
                0x0000000008003910                magic_platform_corner_circle_ci8_aligner
                0x0000000008003918                _pal_rgba16::magic_platform(void)
                0x00000000080039c8                magic_platform__11_pal_rgba16_aligner
                0x00000000080039d0                magic_platform__11_ci8
                0x0000000008003dd0                _ci8_aligne::magic_platform(long double)
                0x0000000008003dd8                magic_platform_collision
                0x0000000008003e90                small_fan_final_revert_mesh_layer_1
                0x0000000008003ed0                small_fan_small_fan_mesh_layer_1
                0x0000000008003f28                mat_revert_small_fan_metal2
                0x0000000008003f48                mat_small_fan_metal2
                0x0000000008003fd8                mat_revert_small_fan_metal
                0x0000000008003ff8                mat_small_fan_metal
                0x0000000008004088                small_fan_small_fan_mesh_layer_1_tri_1
                0x00000000080040c8                small_fan_small_fan_mesh_layer_1_vtx_1
                0x0000000008004248                small_fan_small_fan_mesh_layer_1_tri_0
                0x00000000080042c0                small_fan_small_fan_mesh_layer_1_vtx_0
                0x00000000080045c0                small_fan_small_fan_mesh_layer_1_vtx_cull
                0x0000000008004640                small_fan_rgba16_anonmoose_GreenishSquare_pal_rgba16
                0x0000000008004668                small_fan_rgba16_anonmoose_GreenishSquare_pal_rgba16_aligner
                0x0000000008004670                small_fan_rgba16_anonmoose_GreenishSquare_ci8
                0x0000000008004a70                small_fan_rgba16_anonmoose_GreenishSquare_ci8_aligner
                0x0000000008004a78                small_fan_ci4_sophie_metal2_pal_rgba16
                0x0000000008004a98                small_fan_ci4_sophie_metal2_pal_rgba16_aligner
                0x0000000008004aa0                small_fan_ci4_sophie_metal2_ci4
                0x00000000080052a0                small_fan_ci4_sophie_metal2_ci4_aligner
                0x00000000080052a8                small_fan_collision
                0x0000000008005468                giant_fan_wide_final_revert_mesh_layer_1
                0x00000000080054a8                giant_fan_wide_giant_fan_wide_mesh_layer_1
                0x0000000008005500                mat_revert_giant_fan_wide_metal2
                0x0000000008005520                mat_giant_fan_wide_metal2
                0x00000000080055b0                mat_revert_giant_fan_wide_metal
                0x00000000080055d0                mat_giant_fan_wide_metal
                0x0000000008005660                giant_fan_wide_giant_fan_wide_mesh_layer_1_tri_1
                0x00000000080056a0                giant_fan_wide_giant_fan_wide_mesh_layer_1_vtx_1
                0x0000000008005820                giant_fan_wide_giant_fan_wide_mesh_layer_1_tri_0
                0x0000000008005898                giant_fan_wide_giant_fan_wide_mesh_layer_1_vtx_0
                0x0000000008005b98                giant_fan_wide_giant_fan_wide_mesh_layer_1_vtx_cull
                0x0000000008005c18                giant_fan_wide_rgba16_anonmoose_GreenishSquare_pal_rgba16
                0x0000000008005c40                giant_fan_wide_rgba16_anonmoose_GreenishSquare_pal_rgba16_aligner
                0x0000000008005c48                giant_fan_wide_rgba16_anonmoose_GreenishSquare_ci8
                0x0000000008006048                giant_fan_wide_rgba16_anonmoose_GreenishSquare_ci8_aligner
                0x0000000008006050                giant_fan_wide_ci4_sophie_metal2_pal_rgba16
                0x0000000008006070                giant_fan_wide_ci4_sophie_metal2_pal_rgba16_aligner
                0x0000000008006078                giant_fan_wide_ci4_sophie_metal2_ci4
                0x0000000008006878                giant_fan_wide_ci4_sophie_metal2_ci4_aligner
                0x0000000008006880                giant_fan_wide_collision
                0x0000000008006a40                giant_fan_final_revert_mesh_layer_1
                0x0000000008006a80                giant_fan_giant_fan_mesh_layer_1
                0x0000000008006ad8                mat_revert_giant_fan_metal2
                0x0000000008006af8                mat_giant_fan_metal2
                0x0000000008006b88                mat_revert_giant_fan_metal
                0x0000000008006ba8                mat_giant_fan_metal
                0x0000000008006c38                giant_fan_giant_fan_mesh_layer_1_tri_1
                0x0000000008006c78                giant_fan_giant_fan_mesh_layer_1_vtx_1
                0x0000000008006df8                giant_fan_giant_fan_mesh_layer_1_tri_0
                0x0000000008006e70                giant_fan_giant_fan_mesh_layer_1_vtx_0
                0x0000000008007170                giant_fan_giant_fan_mesh_layer_1_vtx_cull
                0x00000000080071f0                giant_fan_rgba16_anonmoose_GreenishSquare_pal_rgba16
                0x0000000008007218                giant_fan_rgba16_anonmoose_GreenishSquare_pal_rgba16_aligner
                0x0000000008007220                giant_fan_rgba16_anonmoose_GreenishSquare_ci8
                0x0000000008007620                giant_fan_rgba16_anonmoose_GreenishSquare_ci8_aligner
                0x0000000008007628                giant_fan_ci4_sophie_metal2_pal_rgba16
                0x0000000008007648                giant_fan_ci4_sophie_metal2_pal_rgba16_aligner
                0x0000000008007650                giant_fan_ci4_sophie_metal2_ci4
                0x0000000008007e50                giant_fan_ci4_sophie_metal2_ci4_aligner
                0x0000000008007e58                giant_fan_collision
                0x0000000008008018                koopa_shell_seg8_dl_08028B78
                0x0000000008008090                koopa_shell_seg8_dl_08028A20
                0x0000000008008188                koopa_shell_seg8_dl_08028978
                0x00000000080081f0                koopa_shell_seg8_dl_080288E0
                0x00000000080096a8                koopa_shell_seg8_dl_08027420
                0x0000000008009728                koopa_shell_seg8_dl_080273C8
                0x00000000080097b0                koopa_shell_seg8_dl_08027258
                0x00000000080098a8                koopa_shell_seg8_dl_08027170
                0x0000000008009948                koopa_shell_seg8_dl_08027108
                0x000000000800a6b0                unknown_seg8_collision_080262F8
                0x000000000800a750                unknown_seg8_dl_08026260
                0x000000000800aa08                exclamation_box_outline_seg8_collision_08025F78
                0x000000000800aaa8                exclamation_box_outline_seg8_dl_exclamation_point
                0x000000000800ab18                exclamation_box_outline_seg8_dl_08025EC0
                0x000000000800afa8                exclamation_box_outline_seg8_dl_080259F8
                0x000000000800b018                exclamation_box_outline_seg8_dl_08025968
                0x000000000800b9d8                exclamation_box_outline_seg8_dl_08024FE8
                0x000000000800ba08                exclamation_box_outline_seg8_dl_08024FC8
                0x000000000800ba38                exclamation_box_outline_seg8_dl_08024FA8
                0x000000000800ba68                exclamation_box_outline_seg8_dl_08024F88
                0x000000000800ba98                exclamation_box_outline_seg8_dl_08024F58
                0x000000000800bac8                exclamation_box_outline_seg8_dl_08024F30
                0x000000000800baf0                exclamation_box_outline_seg8_dl_08024EB8
                0x000000000800bce0                metal_box_seg8_collision_08024C28
                0x000000000800bd80                metal_box_dl
                0x000000000800bdf0                metal_box_seg8_dl_08024B18
                0x000000000800cff0                bobomb_seg8_anims_0802396C
                0x000000000800d440                bobomb_seg8_dl_08023480
                0x000000000800d4b8                bobomb_seg8_dl_08023378
                0x000000000800d560                bobomb_seg8_dl_08023270
                0x000000000800da48                bobomb_seg8_dl_08022D78
                0x000000000800dab8                bobomb_seg8_dl_08022D08
                0x000000000800db28                bobomb_seg8_dl_08022CA0
                0x000000000800db80                bobomb_seg8_dl_08022C38
                0x000000000800dc58                bobomb_seg8_dl_08022B88
                0x000000000800dc88                bobomb_seg8_dl_08022B58
                0x000000000800dcb8                bobomb_seg8_dl_08022B08
                0x000000000800dcf8                bobomb_seg8_dl_08022AC0
                0x0000000008012da0                goomba_seg8_anims_0801DA4C
                0x0000000008013088                goomba_seg8_dl_0801D760
                0x0000000008013098                goomba_seg8_dl_0801D360
                0x00000000080132e0                goomba_seg8_dl_0801D0D0
                0x0000000008013470                goomba_seg8_dl_0801CF78
                0x0000000008013548                goomba_seg8_dl_0801CE20
                0x0000000008014d40                goomba_seg8_dl_0801B690
                0x0000000008014db0                goomba_seg8_dl_0801B658
                0x0000000008014e20                floomba_seg8_dl_blink
                0x0000000008014e48                floomba_seg8_dl_face
                0x0000000008014e70                goomba_seg8_dl_0801B5F0
                0x0000000008014e98                goomba_seg8_dl_0801B5C8
                0x0000000008014ec0                goomba_seg8_dl_0801B5A0
                0x0000000008014ee8                goomba_seg8_dl_0801B560
                0x0000000008014f28                goomba_seg8_dl_0801B2E8
                0x0000000008017e48                exclamation_box_seg8_dl_08019438
                0x0000000008017ea8                exclamation_box_seg8_dl_080193D8
                0x0000000008017f08                exclamation_box_seg8_dl_08019378
                0x0000000008017f68                exclamation_box_seg8_dl_08019318
                0x0000000008017fc8                exclamation_box_seg8_dl_080192D0
                0x0000000008018010                exclamation_box_seg8_dl_08019280
                0x0000000008018050                exclamation_box_seg8_dl_08019220
                0x0000000008018220                exclamation_box_seg8_dl_08019058
                0x0000000008018268                exclamation_box_seg8_dl_08019008
                0x00000000080182a8                exclamation_box_seg8_dl_08018FA8
                0x000000000801e478                breakable_box_seg8_collision
                0x000000000801e518                breakable_box_seg8_dl_cork_box
                0x000000000801e540                breakable_box_seg8_dl_crazy_box
                0x000000000801e568                breakable_box_seg8_sub_dl_begin
                0x000000000801e5b0                breakable_box_seg8_sub_dl_end
                0x000000000801f7d0                flyguy_seg8_anims_08011A64
                0x000000000801faa8                flyguy_seg8_dl_08011710
                0x000000000801fb30                flyguy_seg8_dl_080116D0
                0x000000000801fb70                flyguy_seg8_dl_08011420
                0x000000000801fd38                flyguy_seg8_dl_080113A8
                0x0000000008020510                flyguy_seg8_dl_08010B80
                0x0000000008020580                flyguy_seg8_dl_08010B38
                0x0000000008020610                flyguy_seg8_dl_08010A90
                0x0000000008020658                flyguy_seg8_dl_08010968
                0x0000000008020720                flyguy_seg8_dl_08010840
                0x0000000008022ef8                heart_seg8_dl_0800DFE0
                0x00000000080237c8                checkerboard_platform_seg8_collision_platform
                0x0000000008023868                checkerboard_platform_seg8_dl_0800D680
                0x00000000080238f8                checkerboard_platform_seg8_dl_0800D618
                0x0000000008023940                checkerboard_platform_seg8_dl_0800D5C0
                0x0000000008024718                purple_switch_seg8_collision_0800C7A8
                0x00000000080247a8                purple_switch_seg8_dl_0800C718
                0x0000000008024838                purple_switch_seg8_dl_0800C6E0
                0x0000000008024868                purple_switch_seg8_dl_0800C668
                0x0000000008024e90                chuckya_seg8_anims_0800C070
                0x0000000008026300                chuckya_seg8_dl_0800ABE8
                0x0000000008026330                chuckya_seg8_dl_0800AB70
                0x0000000008026538                chuckya_seg8_dl_0800A998
                0x0000000008026558                chuckya_seg8_dl_0800A958
                0x00000000080265e8                chuckya_seg8_dl_0800A8D0
                0x0000000008026608                chuckya_seg8_dl_0800A870
                0x00000000080266e8                chuckya_seg8_dl_0800A758
                0x0000000008026758                chuckya_seg8_dl_0800A700
                0x0000000008026830                chuckya_seg8_dl_0800A5F8
                0x00000000080268a0                chuckya_seg8_dl_0800A5C0
                0x0000000008026910                chuckya_seg8_dl_0800A510
                0x0000000008026980                chuckya_seg8_dl_0800A4D8
                0x00000000080269f0                chuckya_seg8_dl_0800A428
                0x0000000008026a60                chuckya_seg8_dl_0800A3F0
                0x0000000008026ad0                chuckya_seg8_dl_0800A338
                0x0000000008026b48                chuckya_seg8_dl_0800A300
                0x0000000008026b78                chuckya_seg8_dl_0800A2C8
                0x0000000008026c28                chuckya_seg8_dl_0800A1D0
                0x0000000008026ca0                chuckya_seg8_dl_0800A198
                0x0000000008026cd0                chuckya_seg8_dl_0800A160
                0x0000000008026d80                chuckya_seg8_dl_0800A068
                0x0000000008026df8                chuckya_seg8_dl_0800A030
                0x0000000008026e28                chuckya_seg8_dl_08009FF8
                0x000000000802a6d8                cannon_barrel_seg8_dl_08006660
                0x000000000802a740                cannon_barrel_seg8_dl_080064C0
                0x000000000802a840                cannon_barrel_seg8_dl_08006408
                0x000000000802b428                cannon_base_seg8_dl_080057F8
                0x000000000802b4a0                cannon_base_seg8_dl_080056D0
                0x000000000802b568                cannon_base_seg8_dl_08005658
                0x000000000802c270                cannon_lid_seg8_collision_08004950
                0x000000000802c2a8                cannon_lid_seg8_dl_080048E0
                0x000000000802c318                cannon_lid_seg8_dl_08004898
                0x000000000802cba8                dAmpAnimsList
                0x000000000802cdb0                dAmpBodyDl
                0x000000000802ce20                dAmpBodySubDl
                0x000000000802ce90                dAmpMouthDl
                0x000000000802cf00                dAmpMouthSubDl
                0x000000000802cf70                dAmpEyeDl
                0x000000000802cfe0                dAmpEyeSubDl
                0x000000000802d050                dAmpElectricityDl
                0x000000000802d0c0                dAmpElectricitySubDl
                0x000000000802ed40                blue_coin_switch_seg8_collision_08000E98
                0x000000000802edd0                blue_coin_switch_seg8_dl_08000E08
                0x000000000802ee60                blue_coin_switch_seg8_dl_08000DD0
                0x000000000802ee90                blue_coin_switch_seg8_dl_08000D58

.data1
 *(.data1)

.got.plt
 *(.got.plt)
                0x000000000802fc38                . = .
                0x000000000802fc38                . = .
                0x0000000008037c30                _gp = (ALIGN (0x10) + 0x7ff0)

.got
 *(.got)

.sdata
 *(.sdata .sdata.* .gnu.linkonce.s.*)

.lit8
 *(.lit8)

.lit4
 *(.lit4)
                0x000000000802fc38                _edata = .
                [!provide]                        PROVIDE (edata = .)
                0x000000000802fc38                . = .
                0x000000000802fc38                __bss_start = .
                0x000000000802fc38                _fbss = .

.sbss
 *(.dynsbss)
 *(.sbss .sbss.* .gnu.linkonce.sb.*)
 *(.scommon)

.bss            0x000000000802fc38        0x0 load address 0x000000000802fc50
 *(.dynbss)
 *(.bss .bss.* .gnu.linkonce.b.*)
 .bss           0x000000000802fc38        0x0 build/us_n64/actors/common0.o
 *(COMMON)
                0x000000000802fc38                . = ALIGN ((. != 0x0)?0x4:0x1)
                0x000000000802fc38                . = ALIGN (0x4)
                0x000000000802fc38                . = SEGMENT_START ("ldata-segment", .)
                0x000000000802fc38                . = ALIGN (0x4)
                0x000000000802fc38                _end = .
                [!provide]                        PROVIDE (end = .)
                0x000000000802fc38                . = DATA_SEGMENT_END (.)

.stab
 *(.stab)

.stabstr
 *(.stabstr)

.stab.excl
 *(.stab.excl)

.stab.exclstr
 *(.stab.exclstr)

.stab.index
 *(.stab.index)

.stab.indexstr
 *(.stab.indexstr)

.comment        0x0000000000000000       0x12
 *(.comment)
 .comment       0x0000000000000000       0x12 build/us_n64/actors/common0.o
                                         0x13 (size before relaxing)

.pdr            0x0000000000000000        0x0
 .pdr           0x0000000000000000        0x0 build/us_n64/actors/common0.o

.debug
 *(.debug)

.line
 *(.line)

.debug_srcinfo
 *(.debug_srcinfo)

.debug_sfnames
 *(.debug_sfnames)

.debug_aranges
 *(.debug_aranges)

.debug_pubnames
 *(.debug_pubnames)

.debug_info
 *(.debug_info .gnu.linkonce.wi.*)

.debug_abbrev
 *(.debug_abbrev)

.debug_line
 *(.debug_line .debug_line.* .debug_line_end)

.debug_frame
 *(.debug_frame)

.debug_str
 *(.debug_str)

.debug_loc
 *(.debug_loc)

.debug_macinfo
 *(.debug_macinfo)

.debug_weaknames
 *(.debug_weaknames)

.debug_funcnames
 *(.debug_funcnames)

.debug_typenames
 *(.debug_typenames)

.debug_varnames
 *(.debug_varnames)

.debug_pubtypes
 *(.debug_pubtypes)

.debug_ranges
 *(.debug_ranges)

.debug_macro
 *(.debug_macro)

.debug_addr
 *(.debug_addr)

.gnu.attributes
                0x0000000000000000       0x10
 *(.gnu.attributes)
 .gnu.attributes
                0x0000000000000000       0x10 build/us_n64/actors/common0.o

.gptab.sdata
 *(.gptab.data)
 *(.gptab.sdata)

.gptab.sbss
 *(.gptab.bss)
 *(.gptab.sbss)

.mdebug.abi32   0x0000000000000000        0x0
 *(.mdebug.abi32)
 .mdebug.abi32  0x0000000000000000        0x0 build/us_n64/actors/common0.o

.mdebug.abiN32
 *(.mdebug.abiN32)

.mdebug.abi64
 *(.mdebug.abi64)

.mdebug.abiO64
 *(.mdebug.abiO64)

.mdebug.eabi32
 *(.mdebug.eabi32)

.mdebug.eabi64
 *(.mdebug.eabi64)

.gcc_compiled_long32
 *(.gcc_compiled_long32)

.gcc_compiled_long64
 *(.gcc_compiled_long64)

/DISCARD/
 *(.note.GNU-stack)
 *(.gnu_debuglink)
 *(.gnu.lto_*)
OUTPUT(build/us_n64/actors/common0.elf elf32-bigmips)
