
Memory Configuration

Name             Origin             Length             Attributes
*default*        0x0000000000000000 0xffffffffffffffff

Linker script and memory map

Address of section .text set to 0x8000000
LOAD build/us_n64/actors/common0.o
                [!provide]                        PROVIDE (__executable_start = SEGMENT_START ("text-segment", 0x400000))
                0x0000000000400000                . = SEGMENT_START ("text-segment", 0x400000)

.interp
 *(.interp)

.MIPS.abiflags  0x0000000000400000       0x18
 *(.MIPS.abiflags)
 .MIPS.abiflags
                0x0000000000400000       0x18 build/us_n64/actors/common0.o

.reginfo        0x0000000000400018       0x18
 *(.reginfo)
 .reginfo       0x0000000000400018       0x18 build/us_n64/actors/common0.o

.note.gnu.build-id
 *(.note.gnu.build-id)

.dynamic
 *(.dynamic)

.hash
 *(.hash)

.gnu.hash
 *(.gnu.hash)

.dynsym
 *(.dynsym)

.dynstr
 *(.dynstr)

.gnu.version
 *(.gnu.version)

.gnu.version_d
 *(.gnu.version_d)

.gnu.version_r
 *(.gnu.version_r)

.rel.dyn        0x0000000000400018        0x0 load address 0x0000000000400030
 *(.rel.init)
 *(.rel.text .rel.text.* .rel.gnu.linkonce.t.*)
 *(.rel.fini)
 *(.rel.rodata .rel.rodata.* .rel.gnu.linkonce.r.*)
 *(.rel.data.rel.ro .rel.data.rel.ro.* .rel.gnu.linkonce.d.rel.ro.*)
 *(.rel.data .rel.data.* .rel.gnu.linkonce.d.*)
 *(.rel.tdata .rel.tdata.* .rel.gnu.linkonce.td.*)
 *(.rel.tbss .rel.tbss.* .rel.gnu.linkonce.tb.*)
 *(.rel.ctors)
 *(.rel.dtors)
 *(.rel.got)
 *(.rel.dyn)
 .rel.dyn       0x0000000000400018        0x0 build/us_n64/actors/common0.o
 *(.rel.sdata .rel.sdata.* .rel.gnu.linkonce.s.*)
 *(.rel.sbss .rel.sbss.* .rel.gnu.linkonce.sb.*)
 *(.rel.sdata2 .rel.sdata2.* .rel.gnu.linkonce.s2.*)
 *(.rel.sbss2 .rel.sbss2.* .rel.gnu.linkonce.sb2.*)
 *(.rel.bss .rel.bss.* .rel.gnu.linkonce.b.*)
                [!provide]                        PROVIDE (__rel_iplt_start = .)
 *(.rel.iplt)
                [!provide]                        PROVIDE (__rel_iplt_end = .)

.rela.dyn       0x0000000000400018        0x0
 *(.rela.init)
 *(.rela.text .rela.text.* .rela.gnu.linkonce.t.*)
 *(.rela.fini)
 *(.rela.rodata .rela.rodata.* .rela.gnu.linkonce.r.*)
 *(.rela.data .rela.data.* .rela.gnu.linkonce.d.*)
 *(.rela.tdata .rela.tdata.* .rela.gnu.linkonce.td.*)
 *(.rela.tbss .rela.tbss.* .rela.gnu.linkonce.tb.*)
 *(.rela.ctors)
 *(.rela.dtors)
 *(.rela.got)
 *(.rela.sdata .rela.sdata.* .rela.gnu.linkonce.s.*)
 *(.rela.sbss .rela.sbss.* .rela.gnu.linkonce.sb.*)
 *(.rela.sdata2 .rela.sdata2.* .rela.gnu.linkonce.s2.*)
 *(.rela.sbss2 .rela.sbss2.* .rela.gnu.linkonce.sb2.*)
 *(.rela.bss .rela.bss.* .rela.gnu.linkonce.b.*)
                [!provide]                        PROVIDE (__rela_iplt_start = .)
 *(.rela.iplt)
                [!provide]                        PROVIDE (__rela_iplt_end = .)

.rel.plt
 *(.rel.plt)

.rela.plt
 *(.rela.plt)

.init
 *(SORT_NONE(.init))

.plt
 *(.plt)

.iplt
 *(.iplt)

.text           0x0000000008000000        0x0 load address 0x0000000008000018
                0x0000000008000000                _ftext = .
 *(.text.unlikely .text.*_unlikely .text.unlikely.*)
 *(.text.exit .text.exit.*)
 *(.text.startup .text.startup.*)
 *(.text.hot .text.hot.*)
 *(.text .stub .text.* .gnu.linkonce.t.*)
 .text          0x0000000008000000        0x0 build/us_n64/actors/common0.o
 *(.gnu.warning)
 *(.mips16.fn.*)
 *(.mips16.call.*)

.fini
 *(SORT_NONE(.fini))
                [!provide]                        PROVIDE (__etext = .)
                [!provide]                        PROVIDE (_etext = .)
                [!provide]                        PROVIDE (etext = .)

.rodata
 *(.rodata .rodata.* .gnu.linkonce.r.*)

.rodata1
 *(.rodata1)

.sdata2
 *(.sdata2 .sdata2.* .gnu.linkonce.s2.*)

.sbss2
 *(.sbss2 .sbss2.* .gnu.linkonce.sb2.*)

.eh_frame_hdr
 *(.eh_frame_hdr)
 *(.eh_frame_entry .eh_frame_entry.*)

.eh_frame
 *(.eh_frame)
 *(.eh_frame.*)

.gcc_except_table
 *(.gcc_except_table .gcc_except_table.*)

.gnu_extab
 *(.gnu_extab*)

.exception_ranges
 *(.exception_ranges .exception_ranges*)
                0x0000000008000000                . = DATA_SEGMENT_ALIGN (CONSTANT (MAXPAGESIZE), CONSTANT (COMMONPAGESIZE))

.eh_frame
 *(.eh_frame)
 *(.eh_frame.*)

.gnu_extab
 *(.gnu_extab)

.gcc_except_table
 *(.gcc_except_table .gcc_except_table.*)

.exception_ranges
 *(.exception_ranges .exception_ranges*)

.tdata
 *(.tdata .tdata.* .gnu.linkonce.td.*)

.tbss
 *(.tbss .tbss.* .gnu.linkonce.tb.*)
 *(.tcommon)

.preinit_array  0x0000000008000000        0x0
                [!provide]                        PROVIDE (__preinit_array_start = .)
 *(.preinit_array)
                [!provide]                        PROVIDE (__preinit_array_end = .)

.init_array     0x0000000008000000        0x0
                [!provide]                        PROVIDE (__init_array_start = .)
 *(SORT_BY_INIT_PRIORITY(.init_array.*) SORT_BY_INIT_PRIORITY(.ctors.*))
 *(.init_array EXCLUDE_FILE(*crtend?.o *crtend.o *crtbegin?.o *crtbegin.o) .ctors)
                [!provide]                        PROVIDE (__init_array_end = .)

.fini_array     0x0000000008000000        0x0
                [!provide]                        PROVIDE (__fini_array_start = .)
 *(SORT_BY_INIT_PRIORITY(.fini_array.*) SORT_BY_INIT_PRIORITY(.dtors.*))
 *(.fini_array EXCLUDE_FILE(*crtend?.o *crtend.o *crtbegin?.o *crtbegin.o) .dtors)
                [!provide]                        PROVIDE (__fini_array_end = .)

.ctors
 *crtbegin.o(.ctors)
 *crtbegin?.o(.ctors)
 *(EXCLUDE_FILE(*crtend?.o *crtend.o) .ctors)
 *(SORT_BY_NAME(.ctors.*))
 *(.ctors)

.dtors
 *crtbegin.o(.dtors)
 *crtbegin?.o(.dtors)
 *(EXCLUDE_FILE(*crtend?.o *crtend.o) .dtors)
 *(SORT_BY_NAME(.dtors.*))
 *(.dtors)

.jcr
 *(.jcr)

.data.rel.ro
 *(.data.rel.ro.local* .gnu.linkonce.d.rel.ro.local.*)
 *(.data.rel.ro .data.rel.ro.* .gnu.linkonce.d.rel.ro.*)
                0x0000000008000000                . = DATA_SEGMENT_RELRO_END (., 0x0)

.data           0x0000000008000000    0x2ebb0 load address 0x0000000008000018
                0x0000000008000000                _fdata = .
 *(.data .data.* .gnu.linkonce.d.*)
 .data          0x0000000008000000    0x2ebb0 build/us_n64/actors/common0.o
                0x0000000008000000                custom_pole_final_revert_mesh_layer_1
                0x0000000008000040                custom_pole_custom_pole_mesh_layer_1
                0x0000000008000080                mat_revert_custom_pole_pole_texture
                0x00000000080000a0                mat_custom_pole_pole_texture
                0x0000000008000130                custom_pole_custom_pole_mesh_layer_1_tri_0
                0x0000000008000268                custom_pole_custom_pole_mesh_layer_1_vtx_0
                0x00000000080008e8                custom_pole_custom_pole_mesh_layer_1_vtx_cull
                0x0000000008000968                custom_pole_ci4_sophie_interiorwall_pal_rgba16
                0x0000000008000980                custom_pole_ci4_sophie_interiorwall_pal_rgba16_aligner
                0x0000000008000988                custom_pole_ci4_sophie_interiorwall_ci4
                0x0000000008001188                custom_pole_ci4_sophie_interiorwall_ci4_aligner
                0x0000000008001190                custom_pole_collision
                0x0000000008001418                magic_platform_final_revert_mesh_layer_5
                0x0000000008001458                magic_platform_final_revert_mesh_layer_4
                0x0000000008001498                magic_platform_final_revert_mesh_layer_1
                0x00000000080014d8                magic_platform_magic_platform_mesh_layer_5
                0x0000000008001518                magic_platform_magic_platform_mesh_layer_4
                0x0000000008001558                magic_platform_magic_platform_mesh_layer_1
                0x0000000008001598                mat_revert_magic_platform_tek
                0x00000000080015c0                mat_magic_platform_tek
                0x0000000008001640                mat_revert_magic_platform_corner_circle
                0x0000000008001668                mat_magic_platform_corner_circle
                0x0000000008001700                mat_revert_magic_platform_blocky
                0x0000000008001720                mat_magic_platform_blocky
                0x00000000080017b0                magic_platform_magic_platform_mesh_layer_5_tri_0
                0x00000000080017d0                magic_platform_magic_platform_mesh_layer_5_vtx_0
                0x0000000008001850                magic_platform_magic_platform_mesh_layer_5_vtx_cull
                0x00000000080018d0                magic_platform_magic_platform_mesh_layer_4_tri_0
                0x00000000080018e8                magic_platform_magic_platform_mesh_layer_4_vtx_0
                0x0000000008001928                magic_platform_magic_platform_mesh_layer_4_vtx_cull
                0x00000000080019a8                magic_platform_magic_platform_mesh_layer_1_tri_0
                0x00000000080019d8                magic_platform_magic_platform_mesh_layer_1_vtx_0
                0x0000000008001ad8                magic_platform_magic_platform_mesh_layer_1_vtx_cull
                0x0000000008001b58                magic_platform_ci4_sophie_pedestal_L1_pal_rgba16
                0x0000000008001b78                magic_platform_ci4_sophie_pedestal_L1_pal_rgba16_aligner
                0x0000000008001b80                magic_platform_ci4_sophie_pedestal_L1_ci4
                0x0000000008002380                magic_platform_ci4_sophie_pedestal_L1_ci4_aligner
                0x0000000008002388                magic_platform_corner_circle_pal_rgba16
                0x0000000008002480                magic_platform_corner_circle_pal_rgba16_aligner
                0x0000000008002488                magic_platform_corner_circle_ci8
                0x0000000008002888                magic_platform_corner_circle_ci8_aligner
                0x0000000008002890                _pal_rgba16::magic_platform(void)
                0x0000000008002940                magic_platform__11_pal_rgba16_aligner
                0x0000000008002948                magic_platform__11_ci8
                0x0000000008002d48                _ci8_aligne::magic_platform(long double)
                0x0000000008002d50                magic_platform_collision
                0x0000000008002e08                small_fan_final_revert_mesh_layer_1
                0x0000000008002e48                small_fan_small_fan_mesh_layer_1
                0x0000000008002ea0                mat_revert_small_fan_metal2
                0x0000000008002ec0                mat_small_fan_metal2
                0x0000000008002f50                mat_revert_small_fan_metal
                0x0000000008002f70                mat_small_fan_metal
                0x0000000008003000                small_fan_small_fan_mesh_layer_1_tri_1
                0x0000000008003040                small_fan_small_fan_mesh_layer_1_vtx_1
                0x00000000080031c0                small_fan_small_fan_mesh_layer_1_tri_0
                0x0000000008003238                small_fan_small_fan_mesh_layer_1_vtx_0
                0x0000000008003538                small_fan_small_fan_mesh_layer_1_vtx_cull
                0x00000000080035b8                small_fan_rgba16_anonmoose_GreenishSquare_pal_rgba16
                0x00000000080035e0                small_fan_rgba16_anonmoose_GreenishSquare_pal_rgba16_aligner
                0x00000000080035e8                small_fan_rgba16_anonmoose_GreenishSquare_ci8
                0x00000000080039e8                small_fan_rgba16_anonmoose_GreenishSquare_ci8_aligner
                0x00000000080039f0                small_fan_ci4_sophie_metal2_pal_rgba16
                0x0000000008003a10                small_fan_ci4_sophie_metal2_pal_rgba16_aligner
                0x0000000008003a18                small_fan_ci4_sophie_metal2_ci4
                0x0000000008004218                small_fan_ci4_sophie_metal2_ci4_aligner
                0x0000000008004220                small_fan_collision
                0x00000000080043e0                giant_fan_wide_final_revert_mesh_layer_1
                0x0000000008004420                giant_fan_wide_giant_fan_wide_mesh_layer_1
                0x0000000008004478                mat_revert_giant_fan_wide_metal2
                0x0000000008004498                mat_giant_fan_wide_metal2
                0x0000000008004528                mat_revert_giant_fan_wide_metal
                0x0000000008004548                mat_giant_fan_wide_metal
                0x00000000080045d8                giant_fan_wide_giant_fan_wide_mesh_layer_1_tri_1
                0x0000000008004618                giant_fan_wide_giant_fan_wide_mesh_layer_1_vtx_1
                0x0000000008004798                giant_fan_wide_giant_fan_wide_mesh_layer_1_tri_0
                0x0000000008004810                giant_fan_wide_giant_fan_wide_mesh_layer_1_vtx_0
                0x0000000008004b10                giant_fan_wide_giant_fan_wide_mesh_layer_1_vtx_cull
                0x0000000008004b90                giant_fan_wide_rgba16_anonmoose_GreenishSquare_pal_rgba16
                0x0000000008004bb8                giant_fan_wide_rgba16_anonmoose_GreenishSquare_pal_rgba16_aligner
                0x0000000008004bc0                giant_fan_wide_rgba16_anonmoose_GreenishSquare_ci8
                0x0000000008004fc0                giant_fan_wide_rgba16_anonmoose_GreenishSquare_ci8_aligner
                0x0000000008004fc8                giant_fan_wide_ci4_sophie_metal2_pal_rgba16
                0x0000000008004fe8                giant_fan_wide_ci4_sophie_metal2_pal_rgba16_aligner
                0x0000000008004ff0                giant_fan_wide_ci4_sophie_metal2_ci4
                0x00000000080057f0                giant_fan_wide_ci4_sophie_metal2_ci4_aligner
                0x00000000080057f8                giant_fan_wide_collision
                0x00000000080059b8                giant_fan_final_revert_mesh_layer_1
                0x00000000080059f8                giant_fan_giant_fan_mesh_layer_1
                0x0000000008005a50                mat_revert_giant_fan_metal2
                0x0000000008005a70                mat_giant_fan_metal2
                0x0000000008005b00                mat_revert_giant_fan_metal
                0x0000000008005b20                mat_giant_fan_metal
                0x0000000008005bb0                giant_fan_giant_fan_mesh_layer_1_tri_1
                0x0000000008005bf0                giant_fan_giant_fan_mesh_layer_1_vtx_1
                0x0000000008005d70                giant_fan_giant_fan_mesh_layer_1_tri_0
                0x0000000008005de8                giant_fan_giant_fan_mesh_layer_1_vtx_0
                0x00000000080060e8                giant_fan_giant_fan_mesh_layer_1_vtx_cull
                0x0000000008006168                giant_fan_rgba16_anonmoose_GreenishSquare_pal_rgba16
                0x0000000008006190                giant_fan_rgba16_anonmoose_GreenishSquare_pal_rgba16_aligner
                0x0000000008006198                giant_fan_rgba16_anonmoose_GreenishSquare_ci8
                0x0000000008006598                giant_fan_rgba16_anonmoose_GreenishSquare_ci8_aligner
                0x00000000080065a0                giant_fan_ci4_sophie_metal2_pal_rgba16
                0x00000000080065c0                giant_fan_ci4_sophie_metal2_pal_rgba16_aligner
                0x00000000080065c8                giant_fan_ci4_sophie_metal2_ci4
                0x0000000008006dc8                giant_fan_ci4_sophie_metal2_ci4_aligner
                0x0000000008006dd0                giant_fan_collision
                0x0000000008006f90                koopa_shell_seg8_dl_08028B78
                0x0000000008007008                koopa_shell_seg8_dl_08028A20
                0x0000000008007100                koopa_shell_seg8_dl_08028978
                0x0000000008007168                koopa_shell_seg8_dl_080288E0
                0x0000000008008620                koopa_shell_seg8_dl_08027420
                0x00000000080086a0                koopa_shell_seg8_dl_080273C8
                0x0000000008008728                koopa_shell_seg8_dl_08027258
                0x0000000008008820                koopa_shell_seg8_dl_08027170
                0x00000000080088c0                koopa_shell_seg8_dl_08027108
                0x0000000008009628                unknown_seg8_collision_080262F8
                0x00000000080096c8                unknown_seg8_dl_08026260
                0x0000000008009980                exclamation_box_outline_seg8_collision_08025F78
                0x0000000008009a20                exclamation_box_outline_seg8_dl_exclamation_point
                0x0000000008009a90                exclamation_box_outline_seg8_dl_08025EC0
                0x0000000008009f20                exclamation_box_outline_seg8_dl_080259F8
                0x0000000008009f90                exclamation_box_outline_seg8_dl_08025968
                0x000000000800a950                exclamation_box_outline_seg8_dl_08024FE8
                0x000000000800a980                exclamation_box_outline_seg8_dl_08024FC8
                0x000000000800a9b0                exclamation_box_outline_seg8_dl_08024FA8
                0x000000000800a9e0                exclamation_box_outline_seg8_dl_08024F88
                0x000000000800aa10                exclamation_box_outline_seg8_dl_08024F58
                0x000000000800aa40                exclamation_box_outline_seg8_dl_08024F30
                0x000000000800aa68                exclamation_box_outline_seg8_dl_08024EB8
                0x000000000800ac58                metal_box_seg8_collision_08024C28
                0x000000000800acf8                metal_box_dl
                0x000000000800ad68                metal_box_seg8_dl_08024B18
                0x000000000800bf68                bobomb_seg8_anims_0802396C
                0x000000000800c3b8                bobomb_seg8_dl_08023480
                0x000000000800c430                bobomb_seg8_dl_08023378
                0x000000000800c4d8                bobomb_seg8_dl_08023270
                0x000000000800c9c0                bobomb_seg8_dl_08022D78
                0x000000000800ca30                bobomb_seg8_dl_08022D08
                0x000000000800caa0                bobomb_seg8_dl_08022CA0
                0x000000000800caf8                bobomb_seg8_dl_08022C38
                0x000000000800cbd0                bobomb_seg8_dl_08022B88
                0x000000000800cc00                bobomb_seg8_dl_08022B58
                0x000000000800cc30                bobomb_seg8_dl_08022B08
                0x000000000800cc70                bobomb_seg8_dl_08022AC0
                0x0000000008011d18                goomba_seg8_anims_0801DA4C
                0x0000000008012000                goomba_seg8_dl_0801D760
                0x0000000008012010                goomba_seg8_dl_0801D360
                0x0000000008012258                goomba_seg8_dl_0801D0D0
                0x00000000080123e8                goomba_seg8_dl_0801CF78
                0x00000000080124c0                goomba_seg8_dl_0801CE20
                0x0000000008013cb8                goomba_seg8_dl_0801B690
                0x0000000008013d28                goomba_seg8_dl_0801B658
                0x0000000008013d98                floomba_seg8_dl_blink
                0x0000000008013dc0                floomba_seg8_dl_face
                0x0000000008013de8                goomba_seg8_dl_0801B5F0
                0x0000000008013e10                goomba_seg8_dl_0801B5C8
                0x0000000008013e38                goomba_seg8_dl_0801B5A0
                0x0000000008013e60                goomba_seg8_dl_0801B560
                0x0000000008013ea0                goomba_seg8_dl_0801B2E8
                0x0000000008016dc0                exclamation_box_seg8_dl_08019438
                0x0000000008016e20                exclamation_box_seg8_dl_080193D8
                0x0000000008016e80                exclamation_box_seg8_dl_08019378
                0x0000000008016ee0                exclamation_box_seg8_dl_08019318
                0x0000000008016f40                exclamation_box_seg8_dl_080192D0
                0x0000000008016f88                exclamation_box_seg8_dl_08019280
                0x0000000008016fc8                exclamation_box_seg8_dl_08019220
                0x0000000008017198                exclamation_box_seg8_dl_08019058
                0x00000000080171e0                exclamation_box_seg8_dl_08019008
                0x0000000008017220                exclamation_box_seg8_dl_08018FA8
                0x000000000801d3f0                breakable_box_seg8_collision
                0x000000000801d490                breakable_box_seg8_dl_cork_box
                0x000000000801d4b8                breakable_box_seg8_dl_crazy_box
                0x000000000801d4e0                breakable_box_seg8_sub_dl_begin
                0x000000000801d528                breakable_box_seg8_sub_dl_end
                0x000000000801e748                flyguy_seg8_anims_08011A64
                0x000000000801ea20                flyguy_seg8_dl_08011710
                0x000000000801eaa8                flyguy_seg8_dl_080116D0
                0x000000000801eae8                flyguy_seg8_dl_08011420
                0x000000000801ecb0                flyguy_seg8_dl_080113A8
                0x000000000801f488                flyguy_seg8_dl_08010B80
                0x000000000801f4f8                flyguy_seg8_dl_08010B38
                0x000000000801f588                flyguy_seg8_dl_08010A90
                0x000000000801f5d0                flyguy_seg8_dl_08010968
                0x000000000801f698                flyguy_seg8_dl_08010840
                0x0000000008021e70                heart_seg8_dl_0800DFE0
                0x0000000008022740                checkerboard_platform_seg8_collision_platform
                0x00000000080227e0                checkerboard_platform_seg8_dl_0800D680
                0x0000000008022870                checkerboard_platform_seg8_dl_0800D618
                0x00000000080228b8                checkerboard_platform_seg8_dl_0800D5C0
                0x0000000008023690                purple_switch_seg8_collision_0800C7A8
                0x0000000008023720                purple_switch_seg8_dl_0800C718
                0x00000000080237b0                purple_switch_seg8_dl_0800C6E0
                0x00000000080237e0                purple_switch_seg8_dl_0800C668
                0x0000000008023e08                chuckya_seg8_anims_0800C070
                0x0000000008025278                chuckya_seg8_dl_0800ABE8
                0x00000000080252a8                chuckya_seg8_dl_0800AB70
                0x00000000080254b0                chuckya_seg8_dl_0800A998
                0x00000000080254d0                chuckya_seg8_dl_0800A958
                0x0000000008025560                chuckya_seg8_dl_0800A8D0
                0x0000000008025580                chuckya_seg8_dl_0800A870
                0x0000000008025660                chuckya_seg8_dl_0800A758
                0x00000000080256d0                chuckya_seg8_dl_0800A700
                0x00000000080257a8                chuckya_seg8_dl_0800A5F8
                0x0000000008025818                chuckya_seg8_dl_0800A5C0
                0x0000000008025888                chuckya_seg8_dl_0800A510
                0x00000000080258f8                chuckya_seg8_dl_0800A4D8
                0x0000000008025968                chuckya_seg8_dl_0800A428
                0x00000000080259d8                chuckya_seg8_dl_0800A3F0
                0x0000000008025a48                chuckya_seg8_dl_0800A338
                0x0000000008025ac0                chuckya_seg8_dl_0800A300
                0x0000000008025af0                chuckya_seg8_dl_0800A2C8
                0x0000000008025ba0                chuckya_seg8_dl_0800A1D0
                0x0000000008025c18                chuckya_seg8_dl_0800A198
                0x0000000008025c48                chuckya_seg8_dl_0800A160
                0x0000000008025cf8                chuckya_seg8_dl_0800A068
                0x0000000008025d70                chuckya_seg8_dl_0800A030
                0x0000000008025da0                chuckya_seg8_dl_08009FF8
                0x0000000008029650                cannon_barrel_seg8_dl_08006660
                0x00000000080296b8                cannon_barrel_seg8_dl_080064C0
                0x00000000080297b8                cannon_barrel_seg8_dl_08006408
                0x000000000802a3a0                cannon_base_seg8_dl_080057F8
                0x000000000802a418                cannon_base_seg8_dl_080056D0
                0x000000000802a4e0                cannon_base_seg8_dl_08005658
                0x000000000802b1e8                cannon_lid_seg8_collision_08004950
                0x000000000802b220                cannon_lid_seg8_dl_080048E0
                0x000000000802b290                cannon_lid_seg8_dl_08004898
                0x000000000802bb20                dAmpAnimsList
                0x000000000802bd28                dAmpBodyDl
                0x000000000802bd98                dAmpBodySubDl
                0x000000000802be08                dAmpMouthDl
                0x000000000802be78                dAmpMouthSubDl
                0x000000000802bee8                dAmpEyeDl
                0x000000000802bf58                dAmpEyeSubDl
                0x000000000802bfc8                dAmpElectricityDl
                0x000000000802c038                dAmpElectricitySubDl
                0x000000000802dcb8                blue_coin_switch_seg8_collision_08000E98
                0x000000000802dd48                blue_coin_switch_seg8_dl_08000E08
                0x000000000802ddd8                blue_coin_switch_seg8_dl_08000DD0
                0x000000000802de08                blue_coin_switch_seg8_dl_08000D58

.data1
 *(.data1)

.got.plt
 *(.got.plt)
                0x000000000802ebb0                . = .
                0x000000000802ebb0                . = .
                0x0000000008036ba0                _gp = (ALIGN (0x10) + 0x7ff0)

.got
 *(.got)

.sdata
 *(.sdata .sdata.* .gnu.linkonce.s.*)

.lit8
 *(.lit8)

.lit4
 *(.lit4)
                0x000000000802ebb0                _edata = .
                [!provide]                        PROVIDE (edata = .)
                0x000000000802ebb0                . = .
                0x000000000802ebb0                __bss_start = .
                0x000000000802ebb0                _fbss = .

.sbss
 *(.dynsbss)
 *(.sbss .sbss.* .gnu.linkonce.sb.*)
 *(.scommon)

.bss            0x000000000802ebb0        0x0 load address 0x000000000802ebc8
 *(.dynbss)
 *(.bss .bss.* .gnu.linkonce.b.*)
 .bss           0x000000000802ebb0        0x0 build/us_n64/actors/common0.o
 *(COMMON)
                0x000000000802ebb0                . = ALIGN ((. != 0x0)?0x4:0x1)
                0x000000000802ebb0                . = ALIGN (0x4)
                0x000000000802ebb0                . = SEGMENT_START ("ldata-segment", .)
                0x000000000802ebb0                . = ALIGN (0x4)
                0x000000000802ebb0                _end = .
                [!provide]                        PROVIDE (end = .)
                0x000000000802ebb0                . = DATA_SEGMENT_END (.)

.stab
 *(.stab)

.stabstr
 *(.stabstr)

.stab.excl
 *(.stab.excl)

.stab.exclstr
 *(.stab.exclstr)

.stab.index
 *(.stab.index)

.stab.indexstr
 *(.stab.indexstr)

.comment        0x0000000000000000       0x12
 *(.comment)
 .comment       0x0000000000000000       0x12 build/us_n64/actors/common0.o
                                         0x13 (size before relaxing)

.pdr            0x0000000000000000        0x0
 .pdr           0x0000000000000000        0x0 build/us_n64/actors/common0.o

.debug
 *(.debug)

.line
 *(.line)

.debug_srcinfo
 *(.debug_srcinfo)

.debug_sfnames
 *(.debug_sfnames)

.debug_aranges
 *(.debug_aranges)

.debug_pubnames
 *(.debug_pubnames)

.debug_info
 *(.debug_info .gnu.linkonce.wi.*)

.debug_abbrev
 *(.debug_abbrev)

.debug_line
 *(.debug_line .debug_line.* .debug_line_end)

.debug_frame
 *(.debug_frame)

.debug_str
 *(.debug_str)

.debug_loc
 *(.debug_loc)

.debug_macinfo
 *(.debug_macinfo)

.debug_weaknames
 *(.debug_weaknames)

.debug_funcnames
 *(.debug_funcnames)

.debug_typenames
 *(.debug_typenames)

.debug_varnames
 *(.debug_varnames)

.debug_pubtypes
 *(.debug_pubtypes)

.debug_ranges
 *(.debug_ranges)

.debug_macro
 *(.debug_macro)

.debug_addr
 *(.debug_addr)

.gnu.attributes
                0x0000000000000000       0x10
 *(.gnu.attributes)
 .gnu.attributes
                0x0000000000000000       0x10 build/us_n64/actors/common0.o

.gptab.sdata
 *(.gptab.data)
 *(.gptab.sdata)

.gptab.sbss
 *(.gptab.bss)
 *(.gptab.sbss)

.mdebug.abi32   0x0000000000000000        0x0
 *(.mdebug.abi32)
 .mdebug.abi32  0x0000000000000000        0x0 build/us_n64/actors/common0.o

.mdebug.abiN32
 *(.mdebug.abiN32)

.mdebug.abi64
 *(.mdebug.abi64)

.mdebug.abiO64
 *(.mdebug.abiO64)

.mdebug.eabi32
 *(.mdebug.eabi32)

.mdebug.eabi64
 *(.mdebug.eabi64)

.gcc_compiled_long32
 *(.gcc_compiled_long32)

.gcc_compiled_long64
 *(.gcc_compiled_long64)

/DISCARD/
 *(.note.GNU-stack)
 *(.gnu_debuglink)
 *(.gnu.lto_*)
OUTPUT(build/us_n64/actors/common0.elf elf32-bigmips)
