
Memory Configuration

Name             Origin             Length             Attributes
*default*        0x0000000000000000 0xffffffffffffffff

Linker script and memory map

Address of section .text set to 0x8000000
LOAD build/us_n64/actors/common0.o
                [!provide]                        PROVIDE (__executable_start = SEGMENT_START ("text-segment", 0x400000))
                0x0000000000400000                . = SEGMENT_START ("text-segment", 0x400000)

.interp
 *(.interp)

.MIPS.abiflags  0x0000000000400000       0x18
 *(.MIPS.abiflags)
 .MIPS.abiflags
                0x0000000000400000       0x18 build/us_n64/actors/common0.o

.reginfo        0x0000000000400018       0x18
 *(.reginfo)
 .reginfo       0x0000000000400018       0x18 build/us_n64/actors/common0.o

.note.gnu.build-id
 *(.note.gnu.build-id)

.dynamic
 *(.dynamic)

.hash
 *(.hash)

.gnu.hash
 *(.gnu.hash)

.dynsym
 *(.dynsym)

.dynstr
 *(.dynstr)

.gnu.version
 *(.gnu.version)

.gnu.version_d
 *(.gnu.version_d)

.gnu.version_r
 *(.gnu.version_r)

.rel.dyn        0x0000000000400018        0x0 load address 0x0000000000400030
 *(.rel.init)
 *(.rel.text .rel.text.* .rel.gnu.linkonce.t.*)
 *(.rel.fini)
 *(.rel.rodata .rel.rodata.* .rel.gnu.linkonce.r.*)
 *(.rel.data.rel.ro .rel.data.rel.ro.* .rel.gnu.linkonce.d.rel.ro.*)
 *(.rel.data .rel.data.* .rel.gnu.linkonce.d.*)
 *(.rel.tdata .rel.tdata.* .rel.gnu.linkonce.td.*)
 *(.rel.tbss .rel.tbss.* .rel.gnu.linkonce.tb.*)
 *(.rel.ctors)
 *(.rel.dtors)
 *(.rel.got)
 *(.rel.dyn)
 .rel.dyn       0x0000000000400018        0x0 build/us_n64/actors/common0.o
 *(.rel.sdata .rel.sdata.* .rel.gnu.linkonce.s.*)
 *(.rel.sbss .rel.sbss.* .rel.gnu.linkonce.sb.*)
 *(.rel.sdata2 .rel.sdata2.* .rel.gnu.linkonce.s2.*)
 *(.rel.sbss2 .rel.sbss2.* .rel.gnu.linkonce.sb2.*)
 *(.rel.bss .rel.bss.* .rel.gnu.linkonce.b.*)
                [!provide]                        PROVIDE (__rel_iplt_start = .)
 *(.rel.iplt)
                [!provide]                        PROVIDE (__rel_iplt_end = .)

.rela.dyn       0x0000000000400018        0x0
 *(.rela.init)
 *(.rela.text .rela.text.* .rela.gnu.linkonce.t.*)
 *(.rela.fini)
 *(.rela.rodata .rela.rodata.* .rela.gnu.linkonce.r.*)
 *(.rela.data .rela.data.* .rela.gnu.linkonce.d.*)
 *(.rela.tdata .rela.tdata.* .rela.gnu.linkonce.td.*)
 *(.rela.tbss .rela.tbss.* .rela.gnu.linkonce.tb.*)
 *(.rela.ctors)
 *(.rela.dtors)
 *(.rela.got)
 *(.rela.sdata .rela.sdata.* .rela.gnu.linkonce.s.*)
 *(.rela.sbss .rela.sbss.* .rela.gnu.linkonce.sb.*)
 *(.rela.sdata2 .rela.sdata2.* .rela.gnu.linkonce.s2.*)
 *(.rela.sbss2 .rela.sbss2.* .rela.gnu.linkonce.sb2.*)
 *(.rela.bss .rela.bss.* .rela.gnu.linkonce.b.*)
                [!provide]                        PROVIDE (__rela_iplt_start = .)
 *(.rela.iplt)
                [!provide]                        PROVIDE (__rela_iplt_end = .)

.rel.plt
 *(.rel.plt)

.rela.plt
 *(.rela.plt)

.init
 *(SORT_NONE(.init))

.plt
 *(.plt)

.iplt
 *(.iplt)

.text           0x0000000008000000        0x0 load address 0x0000000008000018
                0x0000000008000000                _ftext = .
 *(.text.unlikely .text.*_unlikely .text.unlikely.*)
 *(.text.exit .text.exit.*)
 *(.text.startup .text.startup.*)
 *(.text.hot .text.hot.*)
 *(.text .stub .text.* .gnu.linkonce.t.*)
 .text          0x0000000008000000        0x0 build/us_n64/actors/common0.o
 *(.gnu.warning)
 *(.mips16.fn.*)
 *(.mips16.call.*)

.fini
 *(SORT_NONE(.fini))
                [!provide]                        PROVIDE (__etext = .)
                [!provide]                        PROVIDE (_etext = .)
                [!provide]                        PROVIDE (etext = .)

.rodata
 *(.rodata .rodata.* .gnu.linkonce.r.*)

.rodata1
 *(.rodata1)

.sdata2
 *(.sdata2 .sdata2.* .gnu.linkonce.s2.*)

.sbss2
 *(.sbss2 .sbss2.* .gnu.linkonce.sb2.*)

.eh_frame_hdr
 *(.eh_frame_hdr)
 *(.eh_frame_entry .eh_frame_entry.*)

.eh_frame
 *(.eh_frame)
 *(.eh_frame.*)

.gcc_except_table
 *(.gcc_except_table .gcc_except_table.*)

.gnu_extab
 *(.gnu_extab*)

.exception_ranges
 *(.exception_ranges .exception_ranges*)
                0x0000000008000000                . = DATA_SEGMENT_ALIGN (CONSTANT (MAXPAGESIZE), CONSTANT (COMMONPAGESIZE))

.eh_frame
 *(.eh_frame)
 *(.eh_frame.*)

.gnu_extab
 *(.gnu_extab)

.gcc_except_table
 *(.gcc_except_table .gcc_except_table.*)

.exception_ranges
 *(.exception_ranges .exception_ranges*)

.tdata
 *(.tdata .tdata.* .gnu.linkonce.td.*)

.tbss
 *(.tbss .tbss.* .gnu.linkonce.tb.*)
 *(.tcommon)

.preinit_array  0x0000000008000000        0x0
                [!provide]                        PROVIDE (__preinit_array_start = .)
 *(.preinit_array)
                [!provide]                        PROVIDE (__preinit_array_end = .)

.init_array     0x0000000008000000        0x0
                [!provide]                        PROVIDE (__init_array_start = .)
 *(SORT_BY_INIT_PRIORITY(.init_array.*) SORT_BY_INIT_PRIORITY(.ctors.*))
 *(.init_array EXCLUDE_FILE(*crtend?.o *crtend.o *crtbegin?.o *crtbegin.o) .ctors)
                [!provide]                        PROVIDE (__init_array_end = .)

.fini_array     0x0000000008000000        0x0
                [!provide]                        PROVIDE (__fini_array_start = .)
 *(SORT_BY_INIT_PRIORITY(.fini_array.*) SORT_BY_INIT_PRIORITY(.dtors.*))
 *(.fini_array EXCLUDE_FILE(*crtend?.o *crtend.o *crtbegin?.o *crtbegin.o) .dtors)
                [!provide]                        PROVIDE (__fini_array_end = .)

.ctors
 *crtbegin.o(.ctors)
 *crtbegin?.o(.ctors)
 *(EXCLUDE_FILE(*crtend?.o *crtend.o) .ctors)
 *(SORT_BY_NAME(.ctors.*))
 *(.ctors)

.dtors
 *crtbegin.o(.dtors)
 *crtbegin?.o(.dtors)
 *(EXCLUDE_FILE(*crtend?.o *crtend.o) .dtors)
 *(SORT_BY_NAME(.dtors.*))
 *(.dtors)

.jcr
 *(.jcr)

.data.rel.ro
 *(.data.rel.ro.local* .gnu.linkonce.d.rel.ro.local.*)
 *(.data.rel.ro .data.rel.ro.* .gnu.linkonce.d.rel.ro.*)
                0x0000000008000000                . = DATA_SEGMENT_RELRO_END (., 0x0)

.data           0x0000000008000000    0x3b200 load address 0x0000000008000018
                0x0000000008000000                _fdata = .
 *(.data .data.* .gnu.linkonce.d.*)
 .data          0x0000000008000000    0x3b200 build/us_n64/actors/common0.o
                0x0000000008000000                orbiting_platform7_final_revert_mesh_layer_1
                0x0000000008000040                orbiting_platform7_orbiting_platform7_mesh_layer_1
                0x0000000008000098                mat_revert_orbiting_platform7_grey_checker
                0x00000000080000b8                mat_orbiting_platform7_grey_checker
                0x0000000008000148                mat_revert_orbiting_platform7_old_stone
                0x0000000008000168                mat_orbiting_platform7_old_stone
                0x00000000080001f8                orbiting_platform7_orbiting_platform7_mesh_layer_1_tri_1
                0x0000000008000308                orbiting_platform7_orbiting_platform7_mesh_layer_1_vtx_1
                0x0000000008000928                orbiting_platform7_orbiting_platform7_mesh_layer_1_tri_0
                0x0000000008000980                orbiting_platform7_orbiting_platform7_mesh_layer_1_vtx_0
                0x0000000008000aa0                orbiting_platform7_orbiting_platform7_mesh_layer_1_vtx_cull
                0x0000000008000b20                orbiting_platform7_KKIIDDZZ_DAT_964__p00_pal_rgba16
                0x0000000008000c00                orbiting_platform7_KKIIDDZZ_DAT_964__p00_pal_rgba16_aligner
                0x0000000008000c08                orbiting_platform7_KKIIDDZZ_DAT_964__p00_ci8
                0x0000000008001008                orbiting_platform7_KKIIDDZZ_DAT_964__p00_ci8_aligner
                0x0000000008001010                orbiting_platform7_KKIIDDZZ_DAT_1059__p00_pal_rgba16
                0x0000000008001098                orbiting_platform7_KKIIDDZZ_DAT_1059__p00_pal_rgba16_aligner
                0x00000000080010a0                orbiting_platform7_KKIIDDZZ_DAT_1059__p00_ci8
                0x00000000080014a0                orbiting_platform7_KKIIDDZZ_DAT_1059__p00_ci8_aligner
                0x00000000080014a8                orbiting_platform7_collision
                0x00000000080017b0                orbiting_platform6_final_revert_mesh_layer_1
                0x00000000080017f0                orbiting_platform6_orbiting_platform6_mesh_layer_1
                0x0000000008001848                mat_revert_orbiting_platform6_old_stone
                0x0000000008001868                mat_orbiting_platform6_old_stone
                0x00000000080018f8                mat_revert_orbiting_platform6_grey_checker
                0x0000000008001918                mat_orbiting_platform6_grey_checker
                0x00000000080019a8                orbiting_platform6_orbiting_platform6_mesh_layer_1_tri_1
                0x0000000008001a00                orbiting_platform6_orbiting_platform6_mesh_layer_1_vtx_1
                0x0000000008001b30                orbiting_platform6_orbiting_platform6_mesh_layer_1_tri_0
                0x0000000008001c40                orbiting_platform6_orbiting_platform6_mesh_layer_1_vtx_0
                0x0000000008002280                orbiting_platform6_orbiting_platform6_mesh_layer_1_vtx_cull
                0x0000000008002300                orbiting_platform6_KKIIDDZZ_DAT_1059__p00_pal_rgba16
                0x0000000008002388                orbiting_platform6_KKIIDDZZ_DAT_1059__p00_pal_rgba16_aligner
                0x0000000008002390                orbiting_platform6_KKIIDDZZ_DAT_1059__p00_ci8
                0x0000000008002790                orbiting_platform6_KKIIDDZZ_DAT_1059__p00_ci8_aligner
                0x0000000008002798                orbiting_platform6_KKIIDDZZ_DAT_964__p00_pal_rgba16
                0x0000000008002878                orbiting_platform6_KKIIDDZZ_DAT_964__p00_pal_rgba16_aligner
                0x0000000008002880                orbiting_platform6_KKIIDDZZ_DAT_964__p00_ci8
                0x0000000008002c80                orbiting_platform6_KKIIDDZZ_DAT_964__p00_ci8_aligner
                0x0000000008002c88                orbiting_platform6_collision
                0x0000000008002f90                orbiting_platform5_final_revert_mesh_layer_1
                0x0000000008002fd0                orbiting_platform5_orbiting_platform5_mesh_layer_1
                0x0000000008003028                mat_revert_orbiting_platform5_old_stone
                0x0000000008003048                mat_orbiting_platform5_old_stone
                0x00000000080030d8                mat_revert_orbiting_platform5_grey_checker
                0x00000000080030f8                mat_orbiting_platform5_grey_checker
                0x0000000008003188                orbiting_platform5_orbiting_platform5_mesh_layer_1_tri_1
                0x00000000080031e0                orbiting_platform5_orbiting_platform5_mesh_layer_1_vtx_1
                0x0000000008003310                orbiting_platform5_orbiting_platform5_mesh_layer_1_tri_0
                0x0000000008003420                orbiting_platform5_orbiting_platform5_mesh_layer_1_vtx_0
                0x0000000008003a50                orbiting_platform5_orbiting_platform5_mesh_layer_1_vtx_cull
                0x0000000008003ad0                orbiting_platform5_KKIIDDZZ_DAT_1059__p00_pal_rgba16
                0x0000000008003b58                orbiting_platform5_KKIIDDZZ_DAT_1059__p00_pal_rgba16_aligner
                0x0000000008003b60                orbiting_platform5_KKIIDDZZ_DAT_1059__p00_ci8
                0x0000000008003f60                orbiting_platform5_KKIIDDZZ_DAT_1059__p00_ci8_aligner
                0x0000000008003f68                orbiting_platform5_KKIIDDZZ_DAT_964__p00_pal_rgba16
                0x0000000008004048                orbiting_platform5_KKIIDDZZ_DAT_964__p00_pal_rgba16_aligner
                0x0000000008004050                orbiting_platform5_KKIIDDZZ_DAT_964__p00_ci8
                0x0000000008004450                orbiting_platform5_KKIIDDZZ_DAT_964__p00_ci8_aligner
                0x0000000008004458                orbiting_platform5_collision
                0x0000000008004760                orbiting_platform4_final_revert_mesh_layer_1
                0x00000000080047a0                orbiting_platform4_orbiting_platform4_mesh_layer_1
                0x00000000080047f8                mat_revert_orbiting_platform4_old_stone
                0x0000000008004818                mat_orbiting_platform4_old_stone
                0x00000000080048a8                mat_revert_orbiting_platform4_grey_checker
                0x00000000080048c8                mat_orbiting_platform4_grey_checker
                0x0000000008004958                orbiting_platform4_orbiting_platform4_mesh_layer_1_tri_1
                0x00000000080049a8                orbiting_platform4_orbiting_platform4_mesh_layer_1_vtx_1
                0x0000000008004ac8                orbiting_platform4_orbiting_platform4_mesh_layer_1_tri_0
                0x0000000008004bb8                orbiting_platform4_orbiting_platform4_mesh_layer_1_vtx_0
                0x0000000008005158                orbiting_platform4_orbiting_platform4_mesh_layer_1_vtx_cull
                0x00000000080051d8                orbiting_platform4_KKIIDDZZ_DAT_1059__p00_pal_rgba16
                0x0000000008005260                orbiting_platform4_KKIIDDZZ_DAT_1059__p00_pal_rgba16_aligner
                0x0000000008005268                orbiting_platform4_KKIIDDZZ_DAT_1059__p00_ci8
                0x0000000008005668                orbiting_platform4_KKIIDDZZ_DAT_1059__p00_ci8_aligner
                0x0000000008005670                orbiting_platform4_KKIIDDZZ_DAT_964__p00_pal_rgba16
                0x0000000008005750                orbiting_platform4_KKIIDDZZ_DAT_964__p00_pal_rgba16_aligner
                0x0000000008005758                orbiting_platform4_KKIIDDZZ_DAT_964__p00_ci8
                0x0000000008005b58                orbiting_platform4_KKIIDDZZ_DAT_964__p00_ci8_aligner
                0x0000000008005b60                orbiting_platform4_collision
                0x0000000008005e68                orbiting_platform3_final_revert_mesh_layer_1
                0x0000000008005ea8                orbiting_platform3_orbiting_platform3_mesh_layer_1
                0x0000000008005f00                mat_revert_orbiting_platform3_old_stone
                0x0000000008005f20                mat_orbiting_platform3_old_stone
                0x0000000008005fb0                mat_revert_orbiting_platform3_grey_checker
                0x0000000008005fd0                mat_orbiting_platform3_grey_checker
                0x0000000008006060                orbiting_platform3_orbiting_platform3_mesh_layer_1_tri_1
                0x00000000080060b0                orbiting_platform3_orbiting_platform3_mesh_layer_1_vtx_1
                0x00000000080061d0                orbiting_platform3_orbiting_platform3_mesh_layer_1_tri_0
                0x00000000080062c0                orbiting_platform3_orbiting_platform3_mesh_layer_1_vtx_0
                0x0000000008006860                orbiting_platform3_orbiting_platform3_mesh_layer_1_vtx_cull
                0x00000000080068e0                orbiting_platform3_KKIIDDZZ_DAT_1059__p00_pal_rgba16
                0x0000000008006968                orbiting_platform3_KKIIDDZZ_DAT_1059__p00_pal_rgba16_aligner
                0x0000000008006970                orbiting_platform3_KKIIDDZZ_DAT_1059__p00_ci8
                0x0000000008006d70                orbiting_platform3_KKIIDDZZ_DAT_1059__p00_ci8_aligner
                0x0000000008006d78                orbiting_platform3_KKIIDDZZ_DAT_964__p00_pal_rgba16
                0x0000000008006e58                orbiting_platform3_KKIIDDZZ_DAT_964__p00_pal_rgba16_aligner
                0x0000000008006e60                orbiting_platform3_KKIIDDZZ_DAT_964__p00_ci8
                0x0000000008007260                orbiting_platform3_KKIIDDZZ_DAT_964__p00_ci8_aligner
                0x0000000008007268                orbiting_platform3_collision
                0x0000000008007570                orbiting_platform2_final_revert_mesh_layer_1
                0x00000000080075b0                orbiting_platform2_orbiting_platform2_mesh_layer_1
                0x0000000008007608                mat_revert_orbiting_platform2_old_stone
                0x0000000008007628                mat_orbiting_platform2_old_stone
                0x00000000080076b8                mat_revert_orbiting_platform2_grey_checker
                0x00000000080076d8                mat_orbiting_platform2_grey_checker
                0x0000000008007768                orbiting_platform2_orbiting_platform2_mesh_layer_1_tri_1
                0x00000000080077b8                orbiting_platform2_orbiting_platform2_mesh_layer_1_vtx_1
                0x00000000080078d8                orbiting_platform2_orbiting_platform2_mesh_layer_1_tri_0
                0x00000000080079c8                orbiting_platform2_orbiting_platform2_mesh_layer_1_vtx_0
                0x0000000008007f68                orbiting_platform2_orbiting_platform2_mesh_layer_1_vtx_cull
                0x0000000008007fe8                orbiting_platform2_KKIIDDZZ_DAT_1059__p00_pal_rgba16
                0x0000000008008070                orbiting_platform2_KKIIDDZZ_DAT_1059__p00_pal_rgba16_aligner
                0x0000000008008078                orbiting_platform2_KKIIDDZZ_DAT_1059__p00_ci8
                0x0000000008008478                orbiting_platform2_KKIIDDZZ_DAT_1059__p00_ci8_aligner
                0x0000000008008480                orbiting_platform2_KKIIDDZZ_DAT_964__p00_pal_rgba16
                0x0000000008008560                orbiting_platform2_KKIIDDZZ_DAT_964__p00_pal_rgba16_aligner
                0x0000000008008568                orbiting_platform2_KKIIDDZZ_DAT_964__p00_ci8
                0x0000000008008968                orbiting_platform2_KKIIDDZZ_DAT_964__p00_ci8_aligner
                0x0000000008008970                orbiting_platform2_collision
                0x0000000008008c78                orbiting_platform1_final_revert_mesh_layer_1
                0x0000000008008cb8                orbiting_platform1_orbiting_platform1_mesh_layer_1
                0x0000000008008d28                mat_revert_orbiting_platform1_grey_checker_001
                0x0000000008008d48                mat_orbiting_platform1_grey_checker_001
                0x0000000008008dd8                mat_revert_orbiting_platform1_old_stone_001
                0x0000000008008df8                mat_orbiting_platform1_old_stone_001
                0x0000000008008e88                mat_revert_orbiting_platform1_blocky_001
                0x0000000008008ea8                mat_orbiting_platform1_blocky_001
                0x0000000008008f38                orbiting_platform1_orbiting_platform1_mesh_layer_1_tri_2
                0x0000000008009030                orbiting_platform1_orbiting_platform1_mesh_layer_1_vtx_2
                0x00000000080095e0                orbiting_platform1_orbiting_platform1_mesh_layer_1_tri_1
                0x0000000008009638                orbiting_platform1_orbiting_platform1_mesh_layer_1_vtx_1
                0x0000000008009768                orbiting_platform1_orbiting_platform1_mesh_layer_1_tri_0
                0x0000000008009788                orbiting_platform1_orbiting_platform1_mesh_layer_1_vtx_0
                0x00000000080097e8                orbiting_platform1_orbiting_platform1_mesh_layer_1_vtx_cull
                0x0000000008009868                orbiting_platform1_KKIIDDZZ_DAT_964__p00_pal_rgba16
                0x0000000008009948                orbiting_platform1_KKIIDDZZ_DAT_964__p00_pal_rgba16_aligner
                0x0000000008009950                orbiting_platform1_KKIIDDZZ_DAT_964__p00_ci8
                0x0000000008009d50                orbiting_platform1_KKIIDDZZ_DAT_964__p00_ci8_aligner
                0x0000000008009d58                orbiting_platform1_KKIIDDZZ_DAT_1059__p00_pal_rgba16
                0x0000000008009de0                orbiting_platform1_KKIIDDZZ_DAT_1059__p00_pal_rgba16_aligner
                0x0000000008009de8                orbiting_platform1_KKIIDDZZ_DAT_1059__p00_ci8
                0x000000000800a1e8                orbiting_platform1_KKIIDDZZ_DAT_1059__p00_ci8_aligner
                0x000000000800a1f0                orbiting_platform1_light_pal_rgba16
                0x000000000800a1f8                orbiting_platform1_light_pal_rgba16_aligner
                0x000000000800a200                orbiting_platform1_light_ci4
                0x000000000800a400                orbiting_platform1_light_ci4_aligner
                0x000000000800a408                orbiting_platform1_collision
                0x000000000800a710                barrier_final_revert_mesh_layer_1
                0x000000000800a750                barrier_barrier_mesh_layer_1
                0x000000000800a7a8                mat_revert_barrier_f3dlite_material_001
                0x000000000800a7c8                mat_barrier_f3dlite_material_001
                0x000000000800a858                mat_revert_barrier_f3dlite_material
                0x000000000800a878                mat_barrier_f3dlite_material
                0x000000000800a908                barrier_barrier_mesh_layer_1_tri_1
                0x000000000800a938                barrier_barrier_mesh_layer_1_vtx_1
                0x000000000800aa38                barrier_barrier_mesh_layer_1_tri_0
                0x000000000800aa58                barrier_barrier_mesh_layer_1_vtx_0
                0x000000000800aad8                barrier_barrier_mesh_layer_1_vtx_cull
                0x000000000800ab58                barrier_KKIIDDZZ_DAT_1380__p00_pal_rgba16
                0x000000000800ac28                barrier_KKIIDDZZ_DAT_1380__p00_pal_rgba16_aligner
                0x000000000800ac30                barrier_KKIIDDZZ_DAT_1380__p00_ci8
                0x000000000800b030                barrier_KKIIDDZZ_DAT_1380__p00_ci8_aligner
                0x000000000800b038                barrier_KKIIDDZZ_DAT_964__p00_pal_rgba16
                0x000000000800b118                barrier_KKIIDDZZ_DAT_964__p00_pal_rgba16_aligner
                0x000000000800b120                barrier_KKIIDDZZ_DAT_964__p00_ci8
                0x000000000800b520                barrier_KKIIDDZZ_DAT_964__p00_ci8_aligner
                0x000000000800b528                barrier_collision
                0x000000000800b5c8                tilting_platform_final_revert_mesh_layer_1
                0x000000000800b608                tilting_platform_tilting_platform_mesh_layer_1
                0x000000000800b660                mat_revert_tilting_platform_bricks
                0x000000000800b680                mat_tilting_platform_bricks
                0x000000000800b710                mat_revert_tilting_platform_glyph_stone
                0x000000000800b730                mat_tilting_platform_glyph_stone
                0x000000000800b7c0                tilting_platform_tilting_platform_mesh_layer_1_tri_1
                0x000000000800b7d8                tilting_platform_tilting_platform_mesh_layer_1_vtx_1
                0x000000000800b818                tilting_platform_tilting_platform_mesh_layer_1_tri_0
                0x000000000800b898                tilting_platform_tilting_platform_mesh_layer_1_vtx_0
                0x000000000800bb18                tilting_platform_tilting_platform_mesh_layer_1_vtx_cull
                0x000000000800bb98                tilting_platform__7_pal_rgba16
                0x000000000800bc58                tilting_platform__7_pal_rgba16_aligner
                0x000000000800bc60                tilting_platform__7_ci8
                0x000000000800c060                tilting_platform__7_ci8_aligner
                0x000000000800c068                tilting_platform_KKIIDDZZ_DAT_964__p00_pal_rgba16
                0x000000000800c148                tilting_platform_KKIIDDZZ_DAT_964__p00_pal_rgba16_aligner
                0x000000000800c150                tilting_platform_KKIIDDZZ_DAT_964__p00_ci8
                0x000000000800c550                tilting_platform_KKIIDDZZ_DAT_964__p00_ci8_aligner
                0x000000000800c558                tilting_platform_collision
                0x000000000800c650                custom_pole_final_revert_mesh_layer_1
                0x000000000800c690                custom_pole_custom_pole_mesh_layer_1
                0x000000000800c6d0                mat_revert_custom_pole_pole_texture
                0x000000000800c6f0                mat_custom_pole_pole_texture
                0x000000000800c780                custom_pole_custom_pole_mesh_layer_1_tri_0
                0x000000000800c8b8                custom_pole_custom_pole_mesh_layer_1_vtx_0
                0x000000000800cf38                custom_pole_custom_pole_mesh_layer_1_vtx_cull
                0x000000000800cfb8                custom_pole_ci4_sophie_interiorwall_pal_rgba16
                0x000000000800cfd0                custom_pole_ci4_sophie_interiorwall_pal_rgba16_aligner
                0x000000000800cfd8                custom_pole_ci4_sophie_interiorwall_ci4
                0x000000000800d7d8                custom_pole_ci4_sophie_interiorwall_ci4_aligner
                0x000000000800d7e0                custom_pole_collision
                0x000000000800da68                magic_platform_final_revert_mesh_layer_5
                0x000000000800daa8                magic_platform_final_revert_mesh_layer_4
                0x000000000800dae8                magic_platform_final_revert_mesh_layer_1
                0x000000000800db28                magic_platform_magic_platform_mesh_layer_5
                0x000000000800db68                magic_platform_magic_platform_mesh_layer_4
                0x000000000800dba8                magic_platform_magic_platform_mesh_layer_1
                0x000000000800dbe8                mat_revert_magic_platform_tek
                0x000000000800dc10                mat_magic_platform_tek
                0x000000000800dc90                mat_revert_magic_platform_corner_circle
                0x000000000800dcb8                mat_magic_platform_corner_circle
                0x000000000800dd50                mat_revert_magic_platform_blocky
                0x000000000800dd70                mat_magic_platform_blocky
                0x000000000800de00                magic_platform_magic_platform_mesh_layer_5_tri_0
                0x000000000800de20                magic_platform_magic_platform_mesh_layer_5_vtx_0
                0x000000000800dea0                magic_platform_magic_platform_mesh_layer_5_vtx_cull
                0x000000000800df20                magic_platform_magic_platform_mesh_layer_4_tri_0
                0x000000000800df38                magic_platform_magic_platform_mesh_layer_4_vtx_0
                0x000000000800df78                magic_platform_magic_platform_mesh_layer_4_vtx_cull
                0x000000000800dff8                magic_platform_magic_platform_mesh_layer_1_tri_0
                0x000000000800e028                magic_platform_magic_platform_mesh_layer_1_vtx_0
                0x000000000800e128                magic_platform_magic_platform_mesh_layer_1_vtx_cull
                0x000000000800e1a8                magic_platform_ci4_sophie_pedestal_L1_pal_rgba16
                0x000000000800e1c8                magic_platform_ci4_sophie_pedestal_L1_pal_rgba16_aligner
                0x000000000800e1d0                magic_platform_ci4_sophie_pedestal_L1_ci4
                0x000000000800e9d0                magic_platform_ci4_sophie_pedestal_L1_ci4_aligner
                0x000000000800e9d8                magic_platform_corner_circle_pal_rgba16
                0x000000000800ead0                magic_platform_corner_circle_pal_rgba16_aligner
                0x000000000800ead8                magic_platform_corner_circle_ci8
                0x000000000800eed8                magic_platform_corner_circle_ci8_aligner
                0x000000000800eee0                _pal_rgba16::magic_platform(void)
                0x000000000800ef90                magic_platform__11_pal_rgba16_aligner
                0x000000000800ef98                magic_platform__11_ci8
                0x000000000800f398                _ci8_aligne::magic_platform(long double)
                0x000000000800f3a0                magic_platform_collision
                0x000000000800f458                small_fan_final_revert_mesh_layer_1
                0x000000000800f498                small_fan_small_fan_mesh_layer_1
                0x000000000800f4f0                mat_revert_small_fan_metal2
                0x000000000800f510                mat_small_fan_metal2
                0x000000000800f5a0                mat_revert_small_fan_metal
                0x000000000800f5c0                mat_small_fan_metal
                0x000000000800f650                small_fan_small_fan_mesh_layer_1_tri_1
                0x000000000800f690                small_fan_small_fan_mesh_layer_1_vtx_1
                0x000000000800f810                small_fan_small_fan_mesh_layer_1_tri_0
                0x000000000800f888                small_fan_small_fan_mesh_layer_1_vtx_0
                0x000000000800fb88                small_fan_small_fan_mesh_layer_1_vtx_cull
                0x000000000800fc08                small_fan_rgba16_anonmoose_GreenishSquare_pal_rgba16
                0x000000000800fc30                small_fan_rgba16_anonmoose_GreenishSquare_pal_rgba16_aligner
                0x000000000800fc38                small_fan_rgba16_anonmoose_GreenishSquare_ci8
                0x0000000008010038                small_fan_rgba16_anonmoose_GreenishSquare_ci8_aligner
                0x0000000008010040                small_fan_ci4_sophie_metal2_pal_rgba16
                0x0000000008010060                small_fan_ci4_sophie_metal2_pal_rgba16_aligner
                0x0000000008010068                small_fan_ci4_sophie_metal2_ci4
                0x0000000008010868                small_fan_ci4_sophie_metal2_ci4_aligner
                0x0000000008010870                small_fan_collision
                0x0000000008010a30                giant_fan_wide_final_revert_mesh_layer_1
                0x0000000008010a70                giant_fan_wide_giant_fan_wide_mesh_layer_1
                0x0000000008010ac8                mat_revert_giant_fan_wide_metal2
                0x0000000008010ae8                mat_giant_fan_wide_metal2
                0x0000000008010b78                mat_revert_giant_fan_wide_metal
                0x0000000008010b98                mat_giant_fan_wide_metal
                0x0000000008010c28                giant_fan_wide_giant_fan_wide_mesh_layer_1_tri_1
                0x0000000008010c68                giant_fan_wide_giant_fan_wide_mesh_layer_1_vtx_1
                0x0000000008010de8                giant_fan_wide_giant_fan_wide_mesh_layer_1_tri_0
                0x0000000008010e60                giant_fan_wide_giant_fan_wide_mesh_layer_1_vtx_0
                0x0000000008011160                giant_fan_wide_giant_fan_wide_mesh_layer_1_vtx_cull
                0x00000000080111e0                giant_fan_wide_rgba16_anonmoose_GreenishSquare_pal_rgba16
                0x0000000008011208                giant_fan_wide_rgba16_anonmoose_GreenishSquare_pal_rgba16_aligner
                0x0000000008011210                giant_fan_wide_rgba16_anonmoose_GreenishSquare_ci8
                0x0000000008011610                giant_fan_wide_rgba16_anonmoose_GreenishSquare_ci8_aligner
                0x0000000008011618                giant_fan_wide_ci4_sophie_metal2_pal_rgba16
                0x0000000008011638                giant_fan_wide_ci4_sophie_metal2_pal_rgba16_aligner
                0x0000000008011640                giant_fan_wide_ci4_sophie_metal2_ci4
                0x0000000008011e40                giant_fan_wide_ci4_sophie_metal2_ci4_aligner
                0x0000000008011e48                giant_fan_wide_collision
                0x0000000008012008                giant_fan_final_revert_mesh_layer_1
                0x0000000008012048                giant_fan_giant_fan_mesh_layer_1
                0x00000000080120a0                mat_revert_giant_fan_metal2
                0x00000000080120c0                mat_giant_fan_metal2
                0x0000000008012150                mat_revert_giant_fan_metal
                0x0000000008012170                mat_giant_fan_metal
                0x0000000008012200                giant_fan_giant_fan_mesh_layer_1_tri_1
                0x0000000008012240                giant_fan_giant_fan_mesh_layer_1_vtx_1
                0x00000000080123c0                giant_fan_giant_fan_mesh_layer_1_tri_0
                0x0000000008012438                giant_fan_giant_fan_mesh_layer_1_vtx_0
                0x0000000008012738                giant_fan_giant_fan_mesh_layer_1_vtx_cull
                0x00000000080127b8                giant_fan_rgba16_anonmoose_GreenishSquare_pal_rgba16
                0x00000000080127e0                giant_fan_rgba16_anonmoose_GreenishSquare_pal_rgba16_aligner
                0x00000000080127e8                giant_fan_rgba16_anonmoose_GreenishSquare_ci8
                0x0000000008012be8                giant_fan_rgba16_anonmoose_GreenishSquare_ci8_aligner
                0x0000000008012bf0                giant_fan_ci4_sophie_metal2_pal_rgba16
                0x0000000008012c10                giant_fan_ci4_sophie_metal2_pal_rgba16_aligner
                0x0000000008012c18                giant_fan_ci4_sophie_metal2_ci4
                0x0000000008013418                giant_fan_ci4_sophie_metal2_ci4_aligner
                0x0000000008013420                giant_fan_collision
                0x00000000080135e0                koopa_shell_seg8_dl_08028B78
                0x0000000008013658                koopa_shell_seg8_dl_08028A20
                0x0000000008013750                koopa_shell_seg8_dl_08028978
                0x00000000080137b8                koopa_shell_seg8_dl_080288E0
                0x0000000008014c70                koopa_shell_seg8_dl_08027420
                0x0000000008014cf0                koopa_shell_seg8_dl_080273C8
                0x0000000008014d78                koopa_shell_seg8_dl_08027258
                0x0000000008014e70                koopa_shell_seg8_dl_08027170
                0x0000000008014f10                koopa_shell_seg8_dl_08027108
                0x0000000008015c78                unknown_seg8_collision_080262F8
                0x0000000008015d18                unknown_seg8_dl_08026260
                0x0000000008015fd0                exclamation_box_outline_seg8_collision_08025F78
                0x0000000008016070                exclamation_box_outline_seg8_dl_exclamation_point
                0x00000000080160e0                exclamation_box_outline_seg8_dl_08025EC0
                0x0000000008016570                exclamation_box_outline_seg8_dl_080259F8
                0x00000000080165e0                exclamation_box_outline_seg8_dl_08025968
                0x0000000008016fa0                exclamation_box_outline_seg8_dl_08024FE8
                0x0000000008016fd0                exclamation_box_outline_seg8_dl_08024FC8
                0x0000000008017000                exclamation_box_outline_seg8_dl_08024FA8
                0x0000000008017030                exclamation_box_outline_seg8_dl_08024F88
                0x0000000008017060                exclamation_box_outline_seg8_dl_08024F58
                0x0000000008017090                exclamation_box_outline_seg8_dl_08024F30
                0x00000000080170b8                exclamation_box_outline_seg8_dl_08024EB8
                0x00000000080172a8                metal_box_seg8_collision_08024C28
                0x0000000008017348                metal_box_dl
                0x00000000080173b8                metal_box_seg8_dl_08024B18
                0x00000000080185b8                bobomb_seg8_anims_0802396C
                0x0000000008018a08                bobomb_seg8_dl_08023480
                0x0000000008018a80                bobomb_seg8_dl_08023378
                0x0000000008018b28                bobomb_seg8_dl_08023270
                0x0000000008019010                bobomb_seg8_dl_08022D78
                0x0000000008019080                bobomb_seg8_dl_08022D08
                0x00000000080190f0                bobomb_seg8_dl_08022CA0
                0x0000000008019148                bobomb_seg8_dl_08022C38
                0x0000000008019220                bobomb_seg8_dl_08022B88
                0x0000000008019250                bobomb_seg8_dl_08022B58
                0x0000000008019280                bobomb_seg8_dl_08022B08
                0x00000000080192c0                bobomb_seg8_dl_08022AC0
                0x000000000801e368                goomba_seg8_anims_0801DA4C
                0x000000000801e650                goomba_seg8_dl_0801D760
                0x000000000801e660                goomba_seg8_dl_0801D360
                0x000000000801e8a8                goomba_seg8_dl_0801D0D0
                0x000000000801ea38                goomba_seg8_dl_0801CF78
                0x000000000801eb10                goomba_seg8_dl_0801CE20
                0x0000000008020308                goomba_seg8_dl_0801B690
                0x0000000008020378                goomba_seg8_dl_0801B658
                0x00000000080203e8                floomba_seg8_dl_blink
                0x0000000008020410                floomba_seg8_dl_face
                0x0000000008020438                goomba_seg8_dl_0801B5F0
                0x0000000008020460                goomba_seg8_dl_0801B5C8
                0x0000000008020488                goomba_seg8_dl_0801B5A0
                0x00000000080204b0                goomba_seg8_dl_0801B560
                0x00000000080204f0                goomba_seg8_dl_0801B2E8
                0x0000000008023410                exclamation_box_seg8_dl_08019438
                0x0000000008023470                exclamation_box_seg8_dl_080193D8
                0x00000000080234d0                exclamation_box_seg8_dl_08019378
                0x0000000008023530                exclamation_box_seg8_dl_08019318
                0x0000000008023590                exclamation_box_seg8_dl_080192D0
                0x00000000080235d8                exclamation_box_seg8_dl_08019280
                0x0000000008023618                exclamation_box_seg8_dl_08019220
                0x00000000080237e8                exclamation_box_seg8_dl_08019058
                0x0000000008023830                exclamation_box_seg8_dl_08019008
                0x0000000008023870                exclamation_box_seg8_dl_08018FA8
                0x0000000008029a40                breakable_box_seg8_collision
                0x0000000008029ae0                breakable_box_seg8_dl_cork_box
                0x0000000008029b08                breakable_box_seg8_dl_crazy_box
                0x0000000008029b30                breakable_box_seg8_sub_dl_begin
                0x0000000008029b78                breakable_box_seg8_sub_dl_end
                0x000000000802ad98                flyguy_seg8_anims_08011A64
                0x000000000802b070                flyguy_seg8_dl_08011710
                0x000000000802b0f8                flyguy_seg8_dl_080116D0
                0x000000000802b138                flyguy_seg8_dl_08011420
                0x000000000802b300                flyguy_seg8_dl_080113A8
                0x000000000802bad8                flyguy_seg8_dl_08010B80
                0x000000000802bb48                flyguy_seg8_dl_08010B38
                0x000000000802bbd8                flyguy_seg8_dl_08010A90
                0x000000000802bc20                flyguy_seg8_dl_08010968
                0x000000000802bce8                flyguy_seg8_dl_08010840
                0x000000000802e4c0                heart_seg8_dl_0800DFE0
                0x000000000802ed90                checkerboard_platform_seg8_collision_platform
                0x000000000802ee30                checkerboard_platform_seg8_dl_0800D680
                0x000000000802eec0                checkerboard_platform_seg8_dl_0800D618
                0x000000000802ef08                checkerboard_platform_seg8_dl_0800D5C0
                0x000000000802fce0                purple_switch_seg8_collision_0800C7A8
                0x000000000802fd70                purple_switch_seg8_dl_0800C718
                0x000000000802fe00                purple_switch_seg8_dl_0800C6E0
                0x000000000802fe30                purple_switch_seg8_dl_0800C668
                0x0000000008030458                chuckya_seg8_anims_0800C070
                0x00000000080318c8                chuckya_seg8_dl_0800ABE8
                0x00000000080318f8                chuckya_seg8_dl_0800AB70
                0x0000000008031b00                chuckya_seg8_dl_0800A998
                0x0000000008031b20                chuckya_seg8_dl_0800A958
                0x0000000008031bb0                chuckya_seg8_dl_0800A8D0
                0x0000000008031bd0                chuckya_seg8_dl_0800A870
                0x0000000008031cb0                chuckya_seg8_dl_0800A758
                0x0000000008031d20                chuckya_seg8_dl_0800A700
                0x0000000008031df8                chuckya_seg8_dl_0800A5F8
                0x0000000008031e68                chuckya_seg8_dl_0800A5C0
                0x0000000008031ed8                chuckya_seg8_dl_0800A510
                0x0000000008031f48                chuckya_seg8_dl_0800A4D8
                0x0000000008031fb8                chuckya_seg8_dl_0800A428
                0x0000000008032028                chuckya_seg8_dl_0800A3F0
                0x0000000008032098                chuckya_seg8_dl_0800A338
                0x0000000008032110                chuckya_seg8_dl_0800A300
                0x0000000008032140                chuckya_seg8_dl_0800A2C8
                0x00000000080321f0                chuckya_seg8_dl_0800A1D0
                0x0000000008032268                chuckya_seg8_dl_0800A198
                0x0000000008032298                chuckya_seg8_dl_0800A160
                0x0000000008032348                chuckya_seg8_dl_0800A068
                0x00000000080323c0                chuckya_seg8_dl_0800A030
                0x00000000080323f0                chuckya_seg8_dl_08009FF8
                0x0000000008035ca0                cannon_barrel_seg8_dl_08006660
                0x0000000008035d08                cannon_barrel_seg8_dl_080064C0
                0x0000000008035e08                cannon_barrel_seg8_dl_08006408
                0x00000000080369f0                cannon_base_seg8_dl_080057F8
                0x0000000008036a68                cannon_base_seg8_dl_080056D0
                0x0000000008036b30                cannon_base_seg8_dl_08005658
                0x0000000008037838                cannon_lid_seg8_collision_08004950
                0x0000000008037870                cannon_lid_seg8_dl_080048E0
                0x00000000080378e0                cannon_lid_seg8_dl_08004898
                0x0000000008038170                dAmpAnimsList
                0x0000000008038378                dAmpBodyDl
                0x00000000080383e8                dAmpBodySubDl
                0x0000000008038458                dAmpMouthDl
                0x00000000080384c8                dAmpMouthSubDl
                0x0000000008038538                dAmpEyeDl
                0x00000000080385a8                dAmpEyeSubDl
                0x0000000008038618                dAmpElectricityDl
                0x0000000008038688                dAmpElectricitySubDl
                0x000000000803a308                blue_coin_switch_seg8_collision_08000E98
                0x000000000803a398                blue_coin_switch_seg8_dl_08000E08
                0x000000000803a428                blue_coin_switch_seg8_dl_08000DD0
                0x000000000803a458                blue_coin_switch_seg8_dl_08000D58

.data1
 *(.data1)

.got.plt
 *(.got.plt)
                0x000000000803b200                . = .
                0x000000000803b200                . = .
                0x00000000080431f0                _gp = (ALIGN (0x10) + 0x7ff0)

.got
 *(.got)

.sdata
 *(.sdata .sdata.* .gnu.linkonce.s.*)

.lit8
 *(.lit8)

.lit4
 *(.lit4)
                0x000000000803b200                _edata = .
                [!provide]                        PROVIDE (edata = .)
                0x000000000803b200                . = .
                0x000000000803b200                __bss_start = .
                0x000000000803b200                _fbss = .

.sbss
 *(.dynsbss)
 *(.sbss .sbss.* .gnu.linkonce.sb.*)
 *(.scommon)

.bss            0x000000000803b200        0x0 load address 0x000000000803b218
 *(.dynbss)
 *(.bss .bss.* .gnu.linkonce.b.*)
 .bss           0x000000000803b200        0x0 build/us_n64/actors/common0.o
 *(COMMON)
                0x000000000803b200                . = ALIGN ((. != 0x0)?0x4:0x1)
                0x000000000803b200                . = ALIGN (0x4)
                0x000000000803b200                . = SEGMENT_START ("ldata-segment", .)
                0x000000000803b200                . = ALIGN (0x4)
                0x000000000803b200                _end = .
                [!provide]                        PROVIDE (end = .)
                0x000000000803b200                . = DATA_SEGMENT_END (.)

.stab
 *(.stab)

.stabstr
 *(.stabstr)

.stab.excl
 *(.stab.excl)

.stab.exclstr
 *(.stab.exclstr)

.stab.index
 *(.stab.index)

.stab.indexstr
 *(.stab.indexstr)

.comment        0x0000000000000000       0x12
 *(.comment)
 .comment       0x0000000000000000       0x12 build/us_n64/actors/common0.o
                                         0x13 (size before relaxing)

.pdr            0x0000000000000000        0x0
 .pdr           0x0000000000000000        0x0 build/us_n64/actors/common0.o

.debug
 *(.debug)

.line
 *(.line)

.debug_srcinfo
 *(.debug_srcinfo)

.debug_sfnames
 *(.debug_sfnames)

.debug_aranges
 *(.debug_aranges)

.debug_pubnames
 *(.debug_pubnames)

.debug_info
 *(.debug_info .gnu.linkonce.wi.*)

.debug_abbrev
 *(.debug_abbrev)

.debug_line
 *(.debug_line .debug_line.* .debug_line_end)

.debug_frame
 *(.debug_frame)

.debug_str
 *(.debug_str)

.debug_loc
 *(.debug_loc)

.debug_macinfo
 *(.debug_macinfo)

.debug_weaknames
 *(.debug_weaknames)

.debug_funcnames
 *(.debug_funcnames)

.debug_typenames
 *(.debug_typenames)

.debug_varnames
 *(.debug_varnames)

.debug_pubtypes
 *(.debug_pubtypes)

.debug_ranges
 *(.debug_ranges)

.debug_macro
 *(.debug_macro)

.debug_addr
 *(.debug_addr)

.gnu.attributes
                0x0000000000000000       0x10
 *(.gnu.attributes)
 .gnu.attributes
                0x0000000000000000       0x10 build/us_n64/actors/common0.o

.gptab.sdata
 *(.gptab.data)
 *(.gptab.sdata)

.gptab.sbss
 *(.gptab.bss)
 *(.gptab.sbss)

.mdebug.abi32   0x0000000000000000        0x0
 *(.mdebug.abi32)
 .mdebug.abi32  0x0000000000000000        0x0 build/us_n64/actors/common0.o

.mdebug.abiN32
 *(.mdebug.abiN32)

.mdebug.abi64
 *(.mdebug.abi64)

.mdebug.abiO64
 *(.mdebug.abiO64)

.mdebug.eabi32
 *(.mdebug.eabi32)

.mdebug.eabi64
 *(.mdebug.eabi64)

.gcc_compiled_long32
 *(.gcc_compiled_long32)

.gcc_compiled_long64
 *(.gcc_compiled_long64)

/DISCARD/
 *(.note.GNU-stack)
 *(.gnu_debuglink)
 *(.gnu.lto_*)
OUTPUT(build/us_n64/actors/common0.elf elf32-bigmips)
