
Memory Configuration

Name             Origin             Length             Attributes
*default*        0x0000000000000000 0xffffffffffffffff

Linker script and memory map

Address of section .text set to 0x4000000
LOAD build/us_n64/actors/group0.o
                [!provide]                        PROVIDE (__executable_start = SEGMENT_START ("text-segment", 0x400000))
                0x0000000000400000                . = SEGMENT_START ("text-segment", 0x400000)

.interp
 *(.interp)

.MIPS.abiflags  0x0000000000400000       0x18
 *(.MIPS.abiflags)
 .MIPS.abiflags
                0x0000000000400000       0x18 build/us_n64/actors/group0.o

.reginfo        0x0000000000400018       0x18
 *(.reginfo)
 .reginfo       0x0000000000400018       0x18 build/us_n64/actors/group0.o

.note.gnu.build-id
 *(.note.gnu.build-id)

.dynamic
 *(.dynamic)

.hash
 *(.hash)

.gnu.hash
 *(.gnu.hash)

.dynsym
 *(.dynsym)

.dynstr
 *(.dynstr)

.gnu.version
 *(.gnu.version)

.gnu.version_d
 *(.gnu.version_d)

.gnu.version_r
 *(.gnu.version_r)

.rel.dyn        0x0000000000400018        0x0 load address 0x0000000000400030
 *(.rel.init)
 *(.rel.text .rel.text.* .rel.gnu.linkonce.t.*)
 *(.rel.fini)
 *(.rel.rodata .rel.rodata.* .rel.gnu.linkonce.r.*)
 *(.rel.data.rel.ro .rel.data.rel.ro.* .rel.gnu.linkonce.d.rel.ro.*)
 *(.rel.data .rel.data.* .rel.gnu.linkonce.d.*)
 *(.rel.tdata .rel.tdata.* .rel.gnu.linkonce.td.*)
 *(.rel.tbss .rel.tbss.* .rel.gnu.linkonce.tb.*)
 *(.rel.ctors)
 *(.rel.dtors)
 *(.rel.got)
 *(.rel.dyn)
 .rel.dyn       0x0000000000400018        0x0 build/us_n64/actors/group0.o
 *(.rel.sdata .rel.sdata.* .rel.gnu.linkonce.s.*)
 *(.rel.sbss .rel.sbss.* .rel.gnu.linkonce.sb.*)
 *(.rel.sdata2 .rel.sdata2.* .rel.gnu.linkonce.s2.*)
 *(.rel.sbss2 .rel.sbss2.* .rel.gnu.linkonce.sb2.*)
 *(.rel.bss .rel.bss.* .rel.gnu.linkonce.b.*)
                [!provide]                        PROVIDE (__rel_iplt_start = .)
 *(.rel.iplt)
                [!provide]                        PROVIDE (__rel_iplt_end = .)

.rela.dyn       0x0000000000400018        0x0
 *(.rela.init)
 *(.rela.text .rela.text.* .rela.gnu.linkonce.t.*)
 *(.rela.fini)
 *(.rela.rodata .rela.rodata.* .rela.gnu.linkonce.r.*)
 *(.rela.data .rela.data.* .rela.gnu.linkonce.d.*)
 *(.rela.tdata .rela.tdata.* .rela.gnu.linkonce.td.*)
 *(.rela.tbss .rela.tbss.* .rela.gnu.linkonce.tb.*)
 *(.rela.ctors)
 *(.rela.dtors)
 *(.rela.got)
 *(.rela.sdata .rela.sdata.* .rela.gnu.linkonce.s.*)
 *(.rela.sbss .rela.sbss.* .rela.gnu.linkonce.sb.*)
 *(.rela.sdata2 .rela.sdata2.* .rela.gnu.linkonce.s2.*)
 *(.rela.sbss2 .rela.sbss2.* .rela.gnu.linkonce.sb2.*)
 *(.rela.bss .rela.bss.* .rela.gnu.linkonce.b.*)
                [!provide]                        PROVIDE (__rela_iplt_start = .)
 *(.rela.iplt)
                [!provide]                        PROVIDE (__rela_iplt_end = .)

.rel.plt
 *(.rel.plt)

.rela.plt
 *(.rela.plt)

.init
 *(SORT_NONE(.init))

.plt
 *(.plt)

.iplt
 *(.iplt)

.text           0x0000000004000000        0x0 load address 0x0000000004000018
                0x0000000004000000                _ftext = .
 *(.text.unlikely .text.*_unlikely .text.unlikely.*)
 *(.text.exit .text.exit.*)
 *(.text.startup .text.startup.*)
 *(.text.hot .text.hot.*)
 *(.text .stub .text.* .gnu.linkonce.t.*)
 .text          0x0000000004000000        0x0 build/us_n64/actors/group0.o
 *(.gnu.warning)
 *(.mips16.fn.*)
 *(.mips16.call.*)

.fini
 *(SORT_NONE(.fini))
                [!provide]                        PROVIDE (__etext = .)
                [!provide]                        PROVIDE (_etext = .)
                [!provide]                        PROVIDE (etext = .)

.rodata
 *(.rodata .rodata.* .gnu.linkonce.r.*)

.rodata1
 *(.rodata1)

.sdata2
 *(.sdata2 .sdata2.* .gnu.linkonce.s2.*)

.sbss2
 *(.sbss2 .sbss2.* .gnu.linkonce.sb2.*)

.eh_frame_hdr
 *(.eh_frame_hdr)
 *(.eh_frame_entry .eh_frame_entry.*)

.eh_frame
 *(.eh_frame)
 *(.eh_frame.*)

.gcc_except_table
 *(.gcc_except_table .gcc_except_table.*)

.gnu_extab
 *(.gnu_extab*)

.exception_ranges
 *(.exception_ranges .exception_ranges*)
                0x0000000004000000                . = DATA_SEGMENT_ALIGN (CONSTANT (MAXPAGESIZE), CONSTANT (COMMONPAGESIZE))

.eh_frame
 *(.eh_frame)
 *(.eh_frame.*)

.gnu_extab
 *(.gnu_extab)

.gcc_except_table
 *(.gcc_except_table .gcc_except_table.*)

.exception_ranges
 *(.exception_ranges .exception_ranges*)

.tdata
 *(.tdata .tdata.* .gnu.linkonce.td.*)

.tbss
 *(.tbss .tbss.* .gnu.linkonce.tb.*)
 *(.tcommon)

.preinit_array  0x0000000004000000        0x0
                [!provide]                        PROVIDE (__preinit_array_start = .)
 *(.preinit_array)
                [!provide]                        PROVIDE (__preinit_array_end = .)

.init_array     0x0000000004000000        0x0
                [!provide]                        PROVIDE (__init_array_start = .)
 *(SORT_BY_INIT_PRIORITY(.init_array.*) SORT_BY_INIT_PRIORITY(.ctors.*))
 *(.init_array EXCLUDE_FILE(*crtend?.o *crtend.o *crtbegin?.o *crtbegin.o) .ctors)
                [!provide]                        PROVIDE (__init_array_end = .)

.fini_array     0x0000000004000000        0x0
                [!provide]                        PROVIDE (__fini_array_start = .)
 *(SORT_BY_INIT_PRIORITY(.fini_array.*) SORT_BY_INIT_PRIORITY(.dtors.*))
 *(.fini_array EXCLUDE_FILE(*crtend?.o *crtend.o *crtbegin?.o *crtbegin.o) .dtors)
                [!provide]                        PROVIDE (__fini_array_end = .)

.ctors
 *crtbegin.o(.ctors)
 *crtbegin?.o(.ctors)
 *(EXCLUDE_FILE(*crtend?.o *crtend.o) .ctors)
 *(SORT_BY_NAME(.ctors.*))
 *(.ctors)

.dtors
 *crtbegin.o(.dtors)
 *crtbegin?.o(.dtors)
 *(EXCLUDE_FILE(*crtend?.o *crtend.o) .dtors)
 *(SORT_BY_NAME(.dtors.*))
 *(.dtors)

.jcr
 *(.jcr)

.data.rel.ro
 *(.data.rel.ro.local* .gnu.linkonce.d.rel.ro.local.*)
 *(.data.rel.ro .data.rel.ro.* .gnu.linkonce.d.rel.ro.*)
                0x0000000004000000                . = DATA_SEGMENT_RELRO_END (., 0x0)

.data           0x0000000004000000    0x32a58 load address 0x0000000004000018
                0x0000000004000000                _fdata = .
 *(.data .data.* .gnu.linkonce.d.*)
 .data          0x0000000004000000    0x32a58 build/us_n64/actors/group0.o
                0x0000000004000000                sparkles_animation_seg4_dl_04035360
                0x0000000004000018                sparkles_animation_seg4_dl_04035348
                0x0000000004000030                sparkles_animation_seg4_dl_04035330
                0x0000000004000048                sparkles_animation_seg4_dl_04035318
                0x0000000004000060                sparkles_animation_seg4_dl_04035300
                0x0000000004000078                sparkles_animation_seg4_dl_04035288
                0x0000000004002930                white_particle_small_unused_dl
                0x0000000004002948                white_particle_small_dl
                0x0000000004002960                white_particle_small_dl_end
                0x0000000004002990                white_particle_small_dl_begin
                0x0000000004002c70                water_splash_seg4_dl_040326E8
                0x0000000004002c88                water_splash_seg4_dl_040326D0
                0x0000000004002ca0                water_splash_seg4_dl_040326B8
                0x0000000004002cb8                water_splash_seg4_dl_040326A0
                0x0000000004002cd0                water_splash_seg4_dl_04032688
                0x0000000004002ce8                water_splash_seg4_dl_04032670
                0x0000000004002d00                water_splash_seg4_dl_04032658
                0x0000000004002d18                water_splash_seg4_dl_04032640
                0x0000000004002d30                water_splash_seg4_dl_040325C8
                0x000000000400ade8                sparkles_seg4_dl_0402A570
                0x000000000400ae00                sparkles_seg4_dl_0402A558
                0x000000000400ae18                sparkles_seg4_dl_0402A540
                0x000000000400ae30                sparkles_seg4_dl_0402A528
                0x000000000400ae48                sparkles_seg4_dl_0402A510
                0x000000000400ae60                sparkles_seg4_dl_0402A4F8
                0x000000000400ae78                sparkles_seg4_dl_0402A490
                0x000000000400df20                water_wave_seg4_dl_04027438
                0x000000000400df38                water_wave_seg4_dl_04027420
                0x000000000400df50                water_wave_seg4_dl_04027408
                0x000000000400df68                water_wave_seg4_dl_040273F0
                0x000000000400df80                water_wave_seg4_dl_040273D8
                0x000000000400df98                water_wave_seg4_dl_040273A0
                0x000000000400dfc8                water_wave_seg4_dl_04027358
                0x0000000004010050                small_water_splash_seg4_dl_5
                0x0000000004010068                small_water_splash_seg4_dl_4
                0x0000000004010080                small_water_splash_seg4_dl_3
                0x0000000004010098                small_water_splash_seg4_dl_2
                0x00000000040100b0                small_water_splash_seg4_dl_1
                0x00000000040100c8                small_water_splash_seg4_dl_0
                0x00000000040100e0                small_water_splash_seg4_sub_dl_model
                0x00000000040100f8                small_water_splash_seg4_sub_dl_end
                0x0000000004010128                small_water_splash_seg4_sub_dl_start
                0x00000000040131b0                burn_smoke_seg4_dl
                0x0000000004013208                burn_smoke_seg4_sub_dl_end
                0x0000000004013230                burn_smoke_seg4_sub_dl_model
                0x0000000004013248                burn_smoke_seg4_sub_dl_begin
                0x0000000004013ab0                smoke_seg4_dl_040217A8
                0x0000000004013ac8                smoke_seg4_dl_04021790
                0x0000000004013ae0                smoke_seg4_dl_04021778
                0x0000000004013af8                smoke_seg4_dl_04021760
                0x0000000004013b10                smoke_seg4_dl_04021748
                0x0000000004013b28                smoke_seg4_dl_04021730
                0x0000000004013b40                smoke_seg4_dl_04021718
                0x0000000004013b58                smoke_seg4_dl_040216A0
                0x0000000004017410                bubble_seg4_dl_0401DDE0
                0x0000000004017490                bubble_seg4_dl_0401DD60
                0x0000000004018550                mario_metal_cap_wings_transparent
                0x0000000004018648                mario_metal_cap_wings
                0x0000000004018710                mario_cap_wings_transparent
                0x00000000040187d8                mario_cap_wings
                0x00000000040188a0                mario_wings_half_2_dl
                0x00000000040188b8                mario_wings_half_1_dl
                0x0000000004018950                mario_metal_cap_wings_unused
                0x00000000040189a8                mario_cap_wings_unused
                0x0000000004018a00                mario_metal_cap_unused_dl
                0x0000000004018ab8                mario_cap_unused_dl
                0x0000000004018b58                mario_cap_wings_unused_end_dl
                0x0000000004018b80                mario_cap_wings_unused_initial_dl
                0x0000000004018be8                mario_wings_half_2_unused_dl
                0x0000000004018c08                mario_wings_half_1_unused_dl
                0x0000000004018d68                mario_cap_unused_base_dl
                0x0000000004018da0                mario_cap_unused_base_bottom_dl
                0x0000000004018dd0                mario_cap_unused_base_top_dl
                0x0000000004018e90                mario_cap_unused_m_logo_dl
                0x0000000004019298                mario_right_hand_peace
                0x00000000040192c8                mario_right_hand_peace_shared_dl
                0x0000000004019e10                mario_metal_right_hand_cap_shared_dl_wings
                0x0000000004019e68                mario_metal_right_hand_cap_shared_dl
                0x0000000004019eb0                mario_right_hand_cap_wings
                0x0000000004019f08                mario_right_hand_cap
                0x0000000004019f88                mario_right_hand_cap_wings_end_dl
                0x0000000004019fa8                mario_right_hand_cap_wings_initial_dl
                0x000000000401a010                mario_right_hand_cap_wings_half_2_dl
                0x000000000401a030                mario_right_hand_cap_wings_half_1_dl
                0x000000000401a170                mario_right_hand_cap_dl
                0x000000000401a1d0                mario_right_hand_cap_bottom_dl
                0x000000000401a200                mario_right_hand_cap_hand_position_dl
                0x000000000401a2d8                mario_right_hand_cap_top_dl
                0x000000000401a3b0                mario_right_hand_cap_m_logo_dl
                0x000000000401ab00                mario_metal_right_hand_open
                0x000000000401ab30                mario_right_hand_open
                0x000000000401ab60                mario_right_hand_open_dl
                0x000000000401b1d0                mario_left_hand_open
                0x000000000401b200                mario_left_hand_open_shared_dl
                0x000000000401b870                mario_metal_low_poly_cap_off
                0x000000000401b898                mario_low_poly_cap_off_eyes_dead
                0x000000000401b958                mario_low_poly_cap_off_eyes_down
                0x000000000401ba18                mario_low_poly_cap_off_eyes_up
                0x000000000401bad8                mario_low_poly_cap_off_eyes_left
                0x000000000401bb98                mario_low_poly_cap_off_eyes_right
                0x000000000401bc58                mario_low_poly_cap_off_eyes_closed
                0x000000000401bd18                mario_low_poly_cap_off_eyes_half_closed
                0x000000000401bdd8                mario_low_poly_cap_off_eyes_front
                0x000000000401be98                mario_low_poly_face_cap_off_dl
                0x000000000401bed0                mario_low_poly_face_hair_cap_off_dl
                0x000000000401bf40                mario_low_poly_face_part_cap_off_dl
                0x000000000401bf80                mario_low_poly_mustache_cap_off_dl
                0x000000000401bfa8                mario_low_poly_mario_eyes_cap_off_dl
                0x000000000401c278                mario_metal_low_poly_cap_on
                0x000000000401c2b0                mario_low_poly_cap_on_eyes_dead
                0x000000000401c390                mario_low_poly_cap_on_eyes_down
                0x000000000401c470                mario_low_poly_cap_on_eyes_up
                0x000000000401c550                mario_low_poly_cap_on_eyes_left
                0x000000000401c630                mario_low_poly_cap_on_eyes_right
                0x000000000401c710                mario_low_poly_cap_on_eyes_closed
                0x000000000401c7f0                mario_low_poly_cap_on_eyes_half_closed
                0x000000000401c8d0                mario_low_poly_cap_on_eyes_front
                0x000000000401c9b0                mario_low_poly_face_cap_on_dl
                0x000000000401ca10                mario_low_poly_face_back_hair_cap_on_dl
                0x000000000401ca30                mario_low_poly_face_cap_dl
                0x000000000401ca78                mario_low_poly_face_part_cap_on_dl
                0x000000000401cab8                mario_low_poly_mustache_cap_on_dl
                0x000000000401cae0                mario_low_poly_eyes_cap_on_dl
                0x000000000401cb00                mario_low_poly_mario_m_logo_dl
                0x000000000401ce50                mario_metal_low_poly_torso
                0x000000000401ce70                mario_low_poly_torso
                0x000000000401cef0                mario_low_poly_torso_dl
                0x000000000401cf28                mario_low_poly_tshirt_shared_dl
                0x000000000401cf60                mario_low_poly_pants_overalls_shared_dl
                0x000000000401cfb0                mario_low_poly_yellow_button_dl
                0x000000000401d1e0                mario_metal_low_poly_right_foot
                0x000000000401d220                mario_low_poly_right_foot
                0x000000000401d270                mario_low_poly_right_foot_dl
                0x000000000401d390                mario_low_poly_right_leg_shared_dl
                0x000000000401d4b0                mario_low_poly_right_thigh
                0x000000000401d4e0                mario_low_poly_right_thigh_shared_dl
                0x000000000401d600                mario_low_poly_left_foot
                0x000000000401d630                mario_low_poly_left_foot_shared_dl
                0x000000000401d750                mario_low_poly_left_leg_shared_dl
                0x000000000401d870                mario_metal_low_poly_left_thigh
                0x000000000401d8f8                mario_low_poly_left_thigh
                0x000000000401d938                mario_low_poly_left_thigh_dl
                0x000000000401da58                mario_metal_low_poly_right_hand_closed
                0x000000000401da88                mario_low_poly_right_hand_closed
                0x000000000401dab8                mario_low_poly_right_hand_closed_dl
                0x000000000401db70                mario_low_poly_right_forearm_shared_dl
                0x000000000401dc60                mario_low_poly_right_arm
                0x000000000401dc90                mario_low_poly_right_arm_shared_dl
                0x000000000401dd80                mario_low_poly_left_hand_closed
                0x000000000401ddb0                mario_low_poly_left_hand_closed_shared_dl
                0x000000000401de68                mario_low_poly_left_forearm_shared_dl
                0x000000000401df58                mario_low_poly_left_arm
                0x000000000401df88                mario_low_poly_left_arm_shared_dl
                0x000000000401e078                mario_metal_low_poly_butt
                0x000000000401e100                mario_low_poly_butt
                0x000000000401e140                mario_low_poly_butt_dl
                0x000000000401e248                mario_metal_medium_poly_torso
                0x000000000401e268                mario_medium_poly_torso
                0x000000000401e2e8                mario_medium_poly_torso_dl
                0x000000000401e320                mario_medium_poly_tshirt_shared_dl
                0x000000000401e380                mario_medium_poly_pants_overalls_shared_dl
                0x000000000401e438                mario_medium_poly_yellow_button_dl
                0x000000000401e988                mario_metal_medium_poly_right_foot
                0x000000000401e9c8                mario_medium_poly_right_foot
                0x000000000401ea18                mario_medium_poly_right_foot_dl
                0x000000000401ebe8                mario_medium_poly_right_leg_shared_dl
                0x000000000401ed28                mario_medium_poly_right_thigh
                0x000000000401ed58                mario_medium_poly_right_thigh_shared_dl
                0x000000000401ee98                mario_medium_poly_left_foot
                0x000000000401eec8                mario_medium_poly_left_foot_shared_dl
                0x000000000401f0f8                mario_medium_poly_left_leg_shared_dl
                0x000000000401f238                mario_metal_medium_poly_left_thigh
                0x000000000401f2c0                mario_medium_poly_left_thigh
                0x000000000401f300                mario_medium_poly_left_thigh_dl
                0x000000000401f440                mario_metal_medium_poly_right_hand_closed
                0x000000000401f470                mario_medium_poly_right_hand_closed
                0x000000000401f4a0                mario_medium_poly_right_hand_closed_dl
                0x000000000401f838                mario_medium_poly_right_forearm_shared_dl
                0x000000000401f968                mario_medium_poly_right_arm
                0x000000000401f998                mario_medium_poly_right_arm_shared_dl
                0x000000000401fac8                mario_medium_poly_left_hand_closed
                0x000000000401faf8                mario_medium_poly_left_hand_closed_shared_dl
                0x000000000401fe78                mario_medium_poly_left_forearm_shared_dl
                0x000000000401ffa8                mario_medium_poly_left_arm
                0x000000000401ffd8                mario_medium_poly_left_arm_shared_dl
                0x0000000004020108                mario_metal_medium_poly_butt
                0x0000000004020190                mario_medium_poly_butt
                0x00000000040201d0                mario_medium_poly_butt_dl
                0x00000000040206e0                mario_metal_cap_off_shared_dl
                0x0000000004020710                mario_cap_off_eyes_dead
                0x00000000040207f0                mario_cap_off_eyes_down
                0x00000000040208d0                mario_cap_off_eyes_up
                0x00000000040209b0                mario_cap_off_eyes_left
                0x0000000004020a90                mario_cap_off_eyes_right
                0x0000000004020b70                mario_cap_off_eyes_closed
                0x0000000004020c50                mario_cap_off_eyes_half_closed
                0x0000000004020d30                mario_cap_off_eyes_front
                0x0000000004020e10                mario_face_cap_off_dl
                0x0000000004020e48                mario_face_hair_cap_off_dl
                0x0000000004020fe8                mario_face_part_cap_off_dl
                0x0000000004021190                mario_hair_sideburn_cap_off_dl
                0x00000000040211c0                mario_mustache_cap_off_dl
                0x0000000004021218                mario_eyes_cap_off_dl
                0x0000000004022378                mario_metal_cap_on_shared_dl
                0x00000000040223b8                mario_cap_on_eyes_dead
                0x00000000040224b8                mario_cap_on_eyes_down
                0x00000000040225b8                mario_cap_on_eyes_up
                0x00000000040226b8                mario_cap_on_eyes_left
                0x00000000040227b8                mario_cap_on_eyes_right
                0x00000000040228b8                mario_cap_on_eyes_closed
                0x00000000040229b8                mario_cap_on_eyes_half_closed
                0x0000000004022ab8                mario_cap_on_eyes_front
                0x0000000004022bb8                mario_face_cap_on_dl
                0x0000000004022c18                mario_face_back_hair_cap_on_dl
                0x0000000004022ca0                mario_face_cap_dl
                0x0000000004022d70                mario_face_part_cap_on_dl
                0x0000000004022f00                mario_mustache_cap_on_dl
                0x0000000004022f60                mario_hair_sideburn_cap_on_dl
                0x0000000004022f90                mario_eyes_cap_on_dl
                0x0000000004022fd0                mario_m_logo_dl
                0x0000000004023e98                mario_metal_torso_shared_dl
                0x0000000004023eb8                mario_torso
                0x0000000004023f38                mario_torso_dl
                0x0000000004023f70                mario_tshirt_shared_dl
                0x0000000004024000                mario_pants_overalls_shared_dl
                0x0000000004024198                mario_yellow_button_dl
                0x0000000004024b90                mario_metal_right_foot
                0x0000000004024bd0                mario_right_foot
                0x0000000004024c20                mario_right_foot_dl
                0x0000000004024e10                mario_right_leg_shared_dl
                0x0000000004025078                mario_right_thigh
                0x00000000040250a8                mario_right_thigh_shared_dl
                0x0000000004025328                mario_left_foot
                0x0000000004025358                mario_left_foot_shared_dl
                0x00000000040255c8                mario_left_leg_shared_dl
                0x00000000040256e8                mario_metal_left_thigh
                0x0000000004025770                mario_left_thigh
                0x00000000040257b0                mario_left_thigh_dl
                0x0000000004025a40                mario_metal_right_hand_closed
                0x0000000004025a70                mario_right_hand_closed
                0x0000000004025aa0                mario_right_hand_closed_dl
                0x0000000004025e50                mario_right_forearm_shared_dl
                0x0000000004025fd0                mario_right_arm
                0x0000000004026000                mario_right_arm_shared_dl
                0x0000000004026450                mario_left_hand_closed
                0x0000000004026480                mario_left_hand_closed_shared_dl
                0x00000000040268d8                mario_left_forearm_shared_dl
                0x0000000004026a58                mario_left_arm
                0x0000000004026a88                mario_left_arm_shared_dl
                0x0000000004026e98                mario_metal_butt
                0x0000000004026f20                mario_butt
                0x0000000004026f60                mario_butt_dl

.data1
 *(.data1)

.got.plt
 *(.got.plt)
                0x0000000004032a58                . = .
                0x0000000004032a58                . = .
                0x000000000403aa50                _gp = (ALIGN (0x10) + 0x7ff0)

.got
 *(.got)

.sdata
 *(.sdata .sdata.* .gnu.linkonce.s.*)

.lit8
 *(.lit8)

.lit4
 *(.lit4)
                0x0000000004032a58                _edata = .
                [!provide]                        PROVIDE (edata = .)
                0x0000000004032a58                . = .
                0x0000000004032a58                __bss_start = .
                0x0000000004032a58                _fbss = .

.sbss
 *(.dynsbss)
 *(.sbss .sbss.* .gnu.linkonce.sb.*)
 *(.scommon)

.bss            0x0000000004032a58        0x0 load address 0x0000000004032a70
 *(.dynbss)
 *(.bss .bss.* .gnu.linkonce.b.*)
 .bss           0x0000000004032a58        0x0 build/us_n64/actors/group0.o
 *(COMMON)
                0x0000000004032a58                . = ALIGN ((. != 0x0)?0x4:0x1)
                0x0000000004032a58                . = ALIGN (0x4)
                0x0000000004032a58                . = SEGMENT_START ("ldata-segment", .)
                0x0000000004032a58                . = ALIGN (0x4)
                0x0000000004032a58                _end = .
                [!provide]                        PROVIDE (end = .)
                0x0000000004032a58                . = DATA_SEGMENT_END (.)

.stab
 *(.stab)

.stabstr
 *(.stabstr)

.stab.excl
 *(.stab.excl)

.stab.exclstr
 *(.stab.exclstr)

.stab.index
 *(.stab.index)

.stab.indexstr
 *(.stab.indexstr)

.comment        0x0000000000000000       0x12
 *(.comment)
 .comment       0x0000000000000000       0x12 build/us_n64/actors/group0.o
                                         0x13 (size before relaxing)

.pdr            0x0000000000000000        0x0
 .pdr           0x0000000000000000        0x0 build/us_n64/actors/group0.o

.debug
 *(.debug)

.line
 *(.line)

.debug_srcinfo
 *(.debug_srcinfo)

.debug_sfnames
 *(.debug_sfnames)

.debug_aranges
 *(.debug_aranges)

.debug_pubnames
 *(.debug_pubnames)

.debug_info
 *(.debug_info .gnu.linkonce.wi.*)

.debug_abbrev
 *(.debug_abbrev)

.debug_line
 *(.debug_line .debug_line.* .debug_line_end)

.debug_frame
 *(.debug_frame)

.debug_str
 *(.debug_str)

.debug_loc
 *(.debug_loc)

.debug_macinfo
 *(.debug_macinfo)

.debug_weaknames
 *(.debug_weaknames)

.debug_funcnames
 *(.debug_funcnames)

.debug_typenames
 *(.debug_typenames)

.debug_varnames
 *(.debug_varnames)

.debug_pubtypes
 *(.debug_pubtypes)

.debug_ranges
 *(.debug_ranges)

.debug_macro
 *(.debug_macro)

.debug_addr
 *(.debug_addr)

.gnu.attributes
                0x0000000000000000       0x10
 *(.gnu.attributes)
 .gnu.attributes
                0x0000000000000000       0x10 build/us_n64/actors/group0.o

.gptab.sdata
 *(.gptab.data)
 *(.gptab.sdata)

.gptab.sbss
 *(.gptab.bss)
 *(.gptab.sbss)

.mdebug.abi32   0x0000000000000000        0x0
 *(.mdebug.abi32)
 .mdebug.abi32  0x0000000000000000        0x0 build/us_n64/actors/group0.o

.mdebug.abiN32
 *(.mdebug.abiN32)

.mdebug.abi64
 *(.mdebug.abi64)

.mdebug.abiO64
 *(.mdebug.abiO64)

.mdebug.eabi32
 *(.mdebug.eabi32)

.mdebug.eabi64
 *(.mdebug.eabi64)

.gcc_compiled_long32
 *(.gcc_compiled_long32)

.gcc_compiled_long64
 *(.gcc_compiled_long64)

/DISCARD/
 *(.note.GNU-stack)
 *(.gnu_debuglink)
 *(.gnu.lto_*)
OUTPUT(build/us_n64/actors/group0.elf elf32-bigmips)
