
Memory Configuration

Name             Origin             Length             Attributes
*default*        0x0000000000000000 0xffffffffffffffff

Linker script and memory map

Address of section .text set to 0x7000000
LOAD build/us_n64/bin/generic.elf
LOAD build/us_n64/levels/bob/leveldata.o
                [!provide]                        PROVIDE (__executable_start = SEGMENT_START ("text-segment", 0x400000))
                0x0000000000400000                . = SEGMENT_START ("text-segment", 0x400000)

.interp
 *(.interp)

.MIPS.abiflags  0x0000000000400000       0x18
 *(.MIPS.abiflags)
 .MIPS.abiflags
                0x0000000000400000       0x18 build/us_n64/levels/bob/leveldata.o

.reginfo        0x0000000000400018       0x18
 *(.reginfo)
 .reginfo       0x0000000000400018       0x18 build/us_n64/levels/bob/leveldata.o

.note.gnu.build-id
 *(.note.gnu.build-id)

.dynamic
 *(.dynamic)

.hash
 *(.hash)

.gnu.hash
 *(.gnu.hash)

.dynsym
 *(.dynsym)

.dynstr
 *(.dynstr)

.gnu.version
 *(.gnu.version)

.gnu.version_d
 *(.gnu.version_d)

.gnu.version_r
 *(.gnu.version_r)

.rel.dyn        0x0000000000400018        0x0 load address 0x0000000000400030
 *(.rel.init)
 *(.rel.text .rel.text.* .rel.gnu.linkonce.t.*)
 *(.rel.fini)
 *(.rel.rodata .rel.rodata.* .rel.gnu.linkonce.r.*)
 *(.rel.data.rel.ro .rel.data.rel.ro.* .rel.gnu.linkonce.d.rel.ro.*)
 *(.rel.data .rel.data.* .rel.gnu.linkonce.d.*)
 *(.rel.tdata .rel.tdata.* .rel.gnu.linkonce.td.*)
 *(.rel.tbss .rel.tbss.* .rel.gnu.linkonce.tb.*)
 *(.rel.ctors)
 *(.rel.dtors)
 *(.rel.got)
 *(.rel.dyn)
 .rel.dyn       0x0000000000400018        0x0 build/us_n64/levels/bob/leveldata.o
 *(.rel.sdata .rel.sdata.* .rel.gnu.linkonce.s.*)
 *(.rel.sbss .rel.sbss.* .rel.gnu.linkonce.sb.*)
 *(.rel.sdata2 .rel.sdata2.* .rel.gnu.linkonce.s2.*)
 *(.rel.sbss2 .rel.sbss2.* .rel.gnu.linkonce.sb2.*)
 *(.rel.bss .rel.bss.* .rel.gnu.linkonce.b.*)
                [!provide]                        PROVIDE (__rel_iplt_start = .)
 *(.rel.iplt)
                [!provide]                        PROVIDE (__rel_iplt_end = .)

.rela.dyn       0x0000000000400018        0x0
 *(.rela.init)
 *(.rela.text .rela.text.* .rela.gnu.linkonce.t.*)
 *(.rela.fini)
 *(.rela.rodata .rela.rodata.* .rela.gnu.linkonce.r.*)
 *(.rela.data .rela.data.* .rela.gnu.linkonce.d.*)
 *(.rela.tdata .rela.tdata.* .rela.gnu.linkonce.td.*)
 *(.rela.tbss .rela.tbss.* .rela.gnu.linkonce.tb.*)
 *(.rela.ctors)
 *(.rela.dtors)
 *(.rela.got)
 *(.rela.sdata .rela.sdata.* .rela.gnu.linkonce.s.*)
 *(.rela.sbss .rela.sbss.* .rela.gnu.linkonce.sb.*)
 *(.rela.sdata2 .rela.sdata2.* .rela.gnu.linkonce.s2.*)
 *(.rela.sbss2 .rela.sbss2.* .rela.gnu.linkonce.sb2.*)
 *(.rela.bss .rela.bss.* .rela.gnu.linkonce.b.*)
                [!provide]                        PROVIDE (__rela_iplt_start = .)
 *(.rela.iplt)
                [!provide]                        PROVIDE (__rela_iplt_end = .)

.rel.plt
 *(.rel.plt)

.rela.plt
 *(.rela.plt)

.init
 *(SORT_NONE(.init))

.plt
 *(.plt)

.iplt
 *(.iplt)

.text           0x0000000007000000        0x0 load address 0x0000000007000018
                0x0000000007000000                _ftext = .
 *(.text.unlikely .text.*_unlikely .text.unlikely.*)
 *(.text.exit .text.exit.*)
 *(.text.startup .text.startup.*)
 *(.text.hot .text.hot.*)
 *(.text .stub .text.* .gnu.linkonce.t.*)
 .text          0x0000000007000000        0x0 build/us_n64/levels/bob/leveldata.o
 *(.gnu.warning)
 *(.mips16.fn.*)
 *(.mips16.call.*)

.fini
 *(SORT_NONE(.fini))
                [!provide]                        PROVIDE (__etext = .)
                [!provide]                        PROVIDE (_etext = .)
                [!provide]                        PROVIDE (etext = .)

.rodata
 *(.rodata .rodata.* .gnu.linkonce.r.*)

.rodata1
 *(.rodata1)

.sdata2
 *(.sdata2 .sdata2.* .gnu.linkonce.s2.*)

.sbss2
 *(.sbss2 .sbss2.* .gnu.linkonce.sb2.*)

.eh_frame_hdr
 *(.eh_frame_hdr)
 *(.eh_frame_entry .eh_frame_entry.*)

.eh_frame
 *(.eh_frame)
 *(.eh_frame.*)

.gcc_except_table
 *(.gcc_except_table .gcc_except_table.*)

.gnu_extab
 *(.gnu_extab*)

.exception_ranges
 *(.exception_ranges .exception_ranges*)
                0x0000000007000000                . = DATA_SEGMENT_ALIGN (CONSTANT (MAXPAGESIZE), CONSTANT (COMMONPAGESIZE))

.eh_frame
 *(.eh_frame)
 *(.eh_frame.*)

.gnu_extab
 *(.gnu_extab)

.gcc_except_table
 *(.gcc_except_table .gcc_except_table.*)

.exception_ranges
 *(.exception_ranges .exception_ranges*)

.tdata
 *(.tdata .tdata.* .gnu.linkonce.td.*)

.tbss
 *(.tbss .tbss.* .gnu.linkonce.tb.*)
 *(.tcommon)

.preinit_array  0x0000000007000000        0x0
                [!provide]                        PROVIDE (__preinit_array_start = .)
 *(.preinit_array)
                [!provide]                        PROVIDE (__preinit_array_end = .)

.init_array     0x0000000007000000        0x0
                [!provide]                        PROVIDE (__init_array_start = .)
 *(SORT_BY_INIT_PRIORITY(.init_array.*) SORT_BY_INIT_PRIORITY(.ctors.*))
 *(.init_array EXCLUDE_FILE(*crtend?.o *crtend.o *crtbegin?.o *crtbegin.o) .ctors)
                [!provide]                        PROVIDE (__init_array_end = .)

.fini_array     0x0000000007000000        0x0
                [!provide]                        PROVIDE (__fini_array_start = .)
 *(SORT_BY_INIT_PRIORITY(.fini_array.*) SORT_BY_INIT_PRIORITY(.dtors.*))
 *(.fini_array EXCLUDE_FILE(*crtend?.o *crtend.o *crtbegin?.o *crtbegin.o) .dtors)
                [!provide]                        PROVIDE (__fini_array_end = .)

.ctors
 *crtbegin.o(.ctors)
 *crtbegin?.o(.ctors)
 *(EXCLUDE_FILE(*crtend?.o *crtend.o) .ctors)
 *(SORT_BY_NAME(.ctors.*))
 *(.ctors)

.dtors
 *crtbegin.o(.dtors)
 *crtbegin?.o(.dtors)
 *(EXCLUDE_FILE(*crtend?.o *crtend.o) .dtors)
 *(SORT_BY_NAME(.dtors.*))
 *(.dtors)

.jcr
 *(.jcr)

.data.rel.ro
 *(.data.rel.ro.local* .gnu.linkonce.d.rel.ro.local.*)
 *(.data.rel.ro .data.rel.ro.* .gnu.linkonce.d.rel.ro.*)
                0x0000000007000000                . = DATA_SEGMENT_RELRO_END (., 0x0)

.data           0x0000000007000000    0x85090 load address 0x0000000007000018
                0x0000000007000000                _fdata = .
 *(.data .data.* .gnu.linkonce.d.*)
 .data          0x0000000007000000    0x85090 build/us_n64/levels/bob/leveldata.o
                0x0000000007000000                bob_dl_final_revert_mesh_layer_5
                0x0000000007000040                bob_dl_final_revert_mesh_layer_4
                0x0000000007000080                bob_dl_final_revert_mesh_layer_1
                0x00000000070000c0                bob_dl_skylight_mesh_layer_5
                0x0000000007000100                bob_dl_render_087_mesh_layer_1
                0x0000000007000140                bob_dl_render_086_mesh_layer_1
                0x0000000007000180                bob_dl_render_085_mesh_layer_1
                0x00000000070001c0                bob_dl_render_084_mesh_layer_1
                0x0000000007000200                bob_dl_render_083_mesh_layer_1
                0x0000000007000240                bob_dl_render_082_mesh_layer_1
                0x0000000007000280                bob_dl_render_081_mesh_layer_1
                0x00000000070002c0                bob_dl_render_080_mesh_layer_1
                0x0000000007000300                bob_dl_render_079_mesh_layer_1
                0x0000000007000340                bob_dl_render_078_mesh_layer_1
                0x0000000007000398                bob_dl_render_075_mesh_layer_1
                0x00000000070003d8                bob_dl_render_074_mesh_layer_1
                0x0000000007000418                bob_dl_render_073_mesh_layer_1
                0x0000000007000458                bob_dl_render_072_mesh_layer_1
                0x0000000007000498                bob_dl_render_071_mesh_layer_1
                0x00000000070004d8                bob_dl_render_070_mesh_layer_1
                0x0000000007000518                bob_dl_render_069_mesh_layer_1
                0x0000000007000558                bob_dl_render_068_mesh_layer_1
                0x00000000070005b0                bob_dl_render_067_mesh_layer_1
                0x00000000070005f0                bob_dl_render_066_mesh_layer_1
                0x0000000007000630                bob_dl_render_065_mesh_layer_1
                0x0000000007000670                bob_dl_render_064_mesh_layer_4
                0x00000000070006b0                bob_dl_render_064_mesh_layer_1
                0x00000000070006f0                bob_dl_render_063_mesh_layer_1
                0x0000000007000730                bob_dl_render_063_mesh_layer_4
                0x0000000007000770                bob_dl_render_062_mesh_layer_1
                0x00000000070007b0                bob_dl_render_061_mesh_layer_1
                0x0000000007000808                bob_dl_render_058_mesh_layer_1
                0x0000000007000848                bob_dl_render_058_mesh_layer_4
                0x0000000007000888                bob_dl_render_056_mesh_layer_1
                0x00000000070008c8                bob_dl_render_055_mesh_layer_1
                0x0000000007000908                bob_dl_render_055_mesh_layer_4
                0x0000000007000948                bob_dl_render_054_mesh_layer_1
                0x0000000007000988                bob_dl_render_053_mesh_layer_1
                0x00000000070009e0                bob_dl_render_051_mesh_layer_1
                0x0000000007000a20                bob_dl_render_050_mesh_layer_1
                0x0000000007000a78                bob_dl_render_049_mesh_layer_1
                0x0000000007000ab8                bob_dl_render_048_mesh_layer_1
                0x0000000007000af8                bob_dl_render_047_mesh_layer_1
                0x0000000007000b38                bob_dl_render_046_mesh_layer_1
                0x0000000007000b78                bob_dl_render_045_mesh_layer_1
                0x0000000007000bb8                bob_dl_render_044_mesh_layer_1
                0x0000000007000c28                bob_dl_render_043_mesh_layer_1
                0x0000000007000c68                bob_dl_render_042_mesh_layer_1
                0x0000000007000ca8                bob_dl_render_041_mesh_layer_1
                0x0000000007000ce8                bob_dl_render_040_mesh_layer_1
                0x0000000007000d28                bob_dl_render_039_mesh_layer_1
                0x0000000007000d68                bob_dl_render_038_mesh_layer_1
                0x0000000007000da8                bob_dl_render_037_mesh_layer_1
                0x0000000007000de8                bob_dl_render_036_mesh_layer_1
                0x0000000007000e28                bob_dl_render_035_mesh_layer_1
                0x0000000007000e68                bob_dl_render_034_mesh_layer_1
                0x0000000007000ea8                bob_dl_render_033_mesh_layer_1
                0x0000000007000ee8                bob_dl_render_032_mesh_layer_1
                0x0000000007000f28                bob_dl_render_031_mesh_layer_1
                0x0000000007000f68                bob_dl_render_030_mesh_layer_1
                0x0000000007000fa8                bob_dl_render_029_mesh_layer_1
                0x0000000007000fe8                bob_dl_render_028_mesh_layer_1
                0x0000000007001028                bob_dl_render_027_mesh_layer_1
                0x0000000007001068                bob_dl_render_026_mesh_layer_1
                0x00000000070010a8                bob_dl_render_025_mesh_layer_1
                0x00000000070010e8                bob_dl_render_024_mesh_layer_1
                0x0000000007001128                bob_dl_render_023_mesh_layer_1
                0x0000000007001180                bob_dl_render_022_mesh_layer_1
                0x00000000070011c0                bob_dl_render_021_mesh_layer_1
                0x0000000007001200                bob_dl_render_020_mesh_layer_1
                0x0000000007001240                bob_dl_render_019_mesh_layer_1
                0x0000000007001280                bob_dl_render_018_mesh_layer_1
                0x00000000070012c0                bob_dl_render_017_mesh_layer_1
                0x0000000007001300                bob_dl_render_016_mesh_layer_1
                0x0000000007001340                bob_dl_render_015_mesh_layer_1
                0x0000000007001380                bob_dl_render_014_mesh_layer_1
                0x00000000070013c0                bob_dl_render_013_mesh_layer_1
                0x0000000007001400                bob_dl_render_012_mesh_layer_1
                0x0000000007001440                bob_dl_render_011_mesh_layer_1
                0x0000000007001480                bob_dl_render_010_mesh_layer_1
                0x00000000070014c0                bob_dl_render_008_mesh_layer_1
                0x0000000007001500                bob_dl_render_007_mesh_layer_1
                0x0000000007001540                bob_dl_render_mesh_layer_1
                0x0000000007001580                bob_dl_owl_crest_001_mesh_layer_4
                0x00000000070015c0                bob_dl_owl_crest_001_mesh_layer_1
                0x0000000007001618                bob_dl_Mesh_Owl_001_mesh_layer_1
                0x0000000007001658                bob_dl_Mesh_Owl_mesh_layer_1
                0x0000000007001698                bob_dl_Icosphere_012_mesh_layer_1
                0x0000000007001720                bob_dl_Icosphere_011_mesh_layer_1
                0x00000000070017a8                bob_dl_Icosphere_009_mesh_layer_1
                0x0000000007001830                bob_dl_Icosphere_007_mesh_layer_1
                0x00000000070018b8                bob_dl_Floor_BricksSeparate2_mesh_layer_1
                0x00000000070018f8                bob_dl_Cube_033_mesh_layer_1
                0x0000000007001938                bob_dl_Cube_028_mesh_layer_1
                0x0000000007001978                bob_dl_Cube_018_mesh_layer_1
                0x00000000070019b8                bob_dl_Cube_016_mesh_layer_1
                0x00000000070019f8                bob_dl_Cube_015_mesh_layer_1
                0x0000000007001a38                bob_dl_Cube_014_mesh_layer_1
                0x0000000007001a78                bob_dl_Cube_012_mesh_layer_1
                0x0000000007001ab8                bob_dl_Cube_011_mesh_layer_1
                0x0000000007001af8                bob_dl_Cube_010_mesh_layer_1
                0x0000000007001b38                bob_dl_Cube_009_mesh_layer_1
                0x0000000007001b78                bob_dl_Cube_008_mesh_layer_1
                0x0000000007001bb8                bob_dl_Cube_007_mesh_layer_1
                0x0000000007001bf8                bob_dl_Cube_006_mesh_layer_1
                0x0000000007001c38                bob_dl_Cube_005_mesh_layer_1
                0x0000000007001c78                bob_dl_Cube_004_mesh_layer_1
                0x0000000007001cb8                bob_dl_Cube_003_mesh_layer_1
                0x0000000007001cf8                bob_dl_Cube_001_mesh_layer_1
                0x0000000007001d38                bob_dl_black_001_mesh_layer_1
                0x0000000007001d78                bob_dl_black_mesh_layer_1
                0x0000000007001db8                mat_revert_bob_dl_light
                0x0000000007001de0                mat_bob_dl_light
                0x0000000007001e80                mat_revert_bob_dl_grate
                0x0000000007001ea8                mat_bob_dl_grate
                0x0000000007001f40                mat_revert_bob_dl_circle
                0x0000000007001f68                mat_bob_dl_circle
                0x0000000007002000                mat_revert_bob_dl_stone_stars
                0x0000000007002020                mat_bob_dl_stone_stars
                0x00000000070020b0                mat_revert_bob_dl_grey_checker
                0x00000000070020d0                mat_bob_dl_grey_checker
                0x0000000007002160                mat_revert_bob_dl_grey_diamond
                0x0000000007002180                mat_bob_dl_grey_diamond
                0x0000000007002210                mat_revert_bob_dl_white_bevel
                0x0000000007002238                mat_bob_dl_white_bevel
                0x00000000070022d0                mat_revert_bob_dl_metal_1
                0x00000000070022f0                mat_bob_dl_metal_1
                0x0000000007002380                mat_revert_bob_dl_gold
                0x00000000070023a0                mat_bob_dl_gold
                0x0000000007002430                mat_revert_bob_dl_slab
                0x0000000007002450                mat_bob_dl_slab
                0x00000000070024e0                mat_revert_bob_dl_dirt_with_grass
                0x0000000007002500                mat_bob_dl_dirt_with_grass
                0x0000000007002590                mat_revert_bob_dl_dirt2
                0x00000000070025b0                mat_bob_dl_dirt2
                0x0000000007002640                mat_revert_bob_dl_dirt
                0x0000000007002660                mat_bob_dl_dirt
                0x00000000070026f0                mat_revert_bob_dl_grass
                0x0000000007002710                mat_bob_dl_grass
                0x00000000070027a0                mat_revert_bob_dl_bricks
                0x00000000070027c0                mat_bob_dl_bricks
                0x0000000007002850                mat_revert_bob_dl_swirl_slippery
                0x0000000007002870                mat_bob_dl_swirl_slippery
                0x0000000007002900                mat_revert_bob_dl_swirl_001
                0x0000000007002920                mat_bob_dl_swirl_001
                0x00000000070029b0                mat_revert_bob_dl_swirl
                0x00000000070029d0                mat_bob_dl_swirl
                0x0000000007002a60                mat_revert_bob_dl_black
                0x0000000007002a78                mat_bob_dl_black
                0x0000000007002ac0                bob_dl_skylight_mesh_layer_5_tri_0
                0x0000000007002b00                bob_dl_skylight_mesh_layer_5_vtx_0
                0x0000000007002c80                bob_dl_skylight_mesh_layer_5_vtx_cull
                0x0000000007002d00                bob_dl_render_087_mesh_layer_1_tri_0
                0x0000000007002d40                bob_dl_render_087_mesh_layer_1_vtx_0
                0x0000000007002ec0                bob_dl_render_087_mesh_layer_1_vtx_cull
                0x0000000007002f40                bob_dl_render_086_mesh_layer_1_tri_0
                0x0000000007002fa8                bob_dl_render_086_mesh_layer_1_vtx_0
                0x0000000007003228                bob_dl_render_086_mesh_layer_1_vtx_cull
                0x00000000070032a8                bob_dl_render_085_mesh_layer_1_tri_0
                0x0000000007003310                bob_dl_render_085_mesh_layer_1_vtx_0
                0x0000000007003590                bob_dl_render_085_mesh_layer_1_vtx_cull
                0x0000000007003610                bob_dl_render_084_mesh_layer_1_tri_0
                0x0000000007003650                bob_dl_render_084_mesh_layer_1_vtx_0
                0x00000000070037d0                bob_dl_render_084_mesh_layer_1_vtx_cull
                0x0000000007003850                bob_dl_render_083_mesh_layer_1_tri_0
                0x0000000007003920                bob_dl_render_083_mesh_layer_1_vtx_0
                0x0000000007003dd0                bob_dl_render_083_mesh_layer_1_vtx_cull
                0x0000000007003e50                bob_dl_render_082_mesh_layer_1_tri_0
                0x0000000007003e90                bob_dl_render_082_mesh_layer_1_vtx_0
                0x0000000007004010                bob_dl_render_082_mesh_layer_1_vtx_cull
                0x0000000007004090                bob_dl_render_081_mesh_layer_1_tri_0
                0x00000000070040f8                bob_dl_render_081_mesh_layer_1_vtx_0
                0x0000000007004378                bob_dl_render_081_mesh_layer_1_vtx_cull
                0x00000000070043f8                bob_dl_render_080_mesh_layer_1_tri_0
                0x0000000007004460                bob_dl_render_080_mesh_layer_1_vtx_0
                0x00000000070046e0                bob_dl_render_080_mesh_layer_1_vtx_cull
                0x0000000007004760                bob_dl_render_079_mesh_layer_1_tri_0
                0x00000000070047a0                bob_dl_render_079_mesh_layer_1_vtx_0
                0x0000000007004920                bob_dl_render_079_mesh_layer_1_vtx_cull
                0x00000000070049a0                bob_dl_render_078_mesh_layer_1_tri_1
                0x00000000070049e0                bob_dl_render_078_mesh_layer_1_vtx_1
                0x0000000007004b40                bob_dl_render_078_mesh_layer_1_tri_0
                0x0000000007004b70                bob_dl_render_078_mesh_layer_1_vtx_0
                0x0000000007004bf0                bob_dl_render_078_mesh_layer_1_vtx_cull
                0x0000000007004c70                bob_dl_render_075_mesh_layer_1_tri_0
                0x0000000007004ca8                bob_dl_render_075_mesh_layer_1_vtx_0
                0x0000000007004de8                bob_dl_render_075_mesh_layer_1_vtx_cull
                0x0000000007004e68                bob_dl_render_074_mesh_layer_1_tri_0
                0x0000000007004ea0                bob_dl_render_074_mesh_layer_1_vtx_0
                0x0000000007004fe0                bob_dl_render_074_mesh_layer_1_vtx_cull
                0x0000000007005060                bob_dl_render_073_mesh_layer_1_tri_0
                0x0000000007005108                bob_dl_render_073_mesh_layer_1_vtx_0
                0x00000000070054e8                bob_dl_render_073_mesh_layer_1_vtx_cull
                0x0000000007005568                bob_dl_render_072_mesh_layer_1_tri_0
                0x00000000070055a8                bob_dl_render_072_mesh_layer_1_vtx_0
                0x0000000007005728                bob_dl_render_072_mesh_layer_1_vtx_cull
                0x00000000070057a8                bob_dl_render_071_mesh_layer_1_tri_0
                0x00000000070057e8                bob_dl_render_071_mesh_layer_1_vtx_0
                0x0000000007005968                bob_dl_render_071_mesh_layer_1_vtx_cull
                0x00000000070059e8                bob_dl_render_070_mesh_layer_1_tri_0
                0x0000000007005a30                bob_dl_render_070_mesh_layer_1_vtx_0
                0x0000000007005bb0                bob_dl_render_070_mesh_layer_1_vtx_cull
                0x0000000007005c30                bob_dl_render_069_mesh_layer_1_tri_0
                0x0000000007005c70                bob_dl_render_069_mesh_layer_1_vtx_0
                0x0000000007005df0                bob_dl_render_069_mesh_layer_1_vtx_cull
                0x0000000007005e70                bob_dl_render_068_mesh_layer_1_tri_1
                0x0000000007005ee0                bob_dl_render_068_mesh_layer_1_vtx_1
                0x00000000070060e0                bob_dl_render_068_mesh_layer_1_tri_0
                0x0000000007006110                bob_dl_render_068_mesh_layer_1_vtx_0
                0x0000000007006210                bob_dl_render_068_mesh_layer_1_vtx_cull
                0x0000000007006290                bob_dl_render_067_mesh_layer_1_tri_0
                0x0000000007006330                bob_dl_render_067_mesh_layer_1_vtx_0
                0x0000000007006670                bob_dl_render_067_mesh_layer_1_vtx_cull
                0x00000000070066f0                bob_dl_render_066_mesh_layer_1_tri_0
                0x0000000007006730                bob_dl_render_066_mesh_layer_1_vtx_0
                0x00000000070068b0                bob_dl_render_066_mesh_layer_1_vtx_cull
                0x0000000007006930                bob_dl_render_065_mesh_layer_1_tri_0
                0x0000000007006970                bob_dl_render_065_mesh_layer_1_vtx_0
                0x0000000007006af0                bob_dl_render_065_mesh_layer_1_vtx_cull
                0x0000000007006b70                bob_dl_render_064_mesh_layer_4_tri_0
                0x0000000007006bd0                bob_dl_render_064_mesh_layer_4_vtx_0
                0x0000000007006d80                bob_dl_render_064_mesh_layer_4_vtx_cull
                0x0000000007006e00                bob_dl_render_064_mesh_layer_1_tri_0
                0x0000000007006e18                bob_dl_render_064_mesh_layer_1_vtx_0
                0x0000000007006e48                bob_dl_render_064_mesh_layer_1_vtx_cull
                0x0000000007006ec8                bob_dl_render_063_mesh_layer_1_tri_0
                0x0000000007006f20                bob_dl_render_063_mesh_layer_1_vtx_0
                0x00000000070070e0                bob_dl_render_063_mesh_layer_1_vtx_cull
                0x0000000007007160                bob_dl_render_063_mesh_layer_4_tri_0
                0x0000000007007178                bob_dl_render_063_mesh_layer_4_vtx_0
                0x00000000070071b8                bob_dl_render_063_mesh_layer_4_vtx_cull
                0x0000000007007238                bob_dl_render_062_mesh_layer_1_tri_0
                0x0000000007007318                bob_dl_render_062_mesh_layer_1_vtx_0
                0x00000000070077c8                bob_dl_render_062_mesh_layer_1_vtx_cull
                0x0000000007007848                bob_dl_render_061_mesh_layer_1_tri_1
                0x0000000007007898                bob_dl_render_061_mesh_layer_1_vtx_1
                0x0000000007007a58                bob_dl_render_061_mesh_layer_1_tri_0
                0x0000000007007a78                bob_dl_render_061_mesh_layer_1_vtx_0
                0x0000000007007ad8                bob_dl_render_061_mesh_layer_1_vtx_cull
                0x0000000007007b58                bob_dl_render_058_mesh_layer_1_tri_0
                0x0000000007007bb0                bob_dl_render_058_mesh_layer_1_vtx_0
                0x0000000007007d70                bob_dl_render_058_mesh_layer_1_vtx_cull
                0x0000000007007df0                bob_dl_render_058_mesh_layer_4_tri_0
                0x0000000007007e08                bob_dl_render_058_mesh_layer_4_vtx_0
                0x0000000007007e48                bob_dl_render_058_mesh_layer_4_vtx_cull
                0x0000000007007ec8                bob_dl_render_056_mesh_layer_1_tri_0
                0x0000000007007f08                bob_dl_render_056_mesh_layer_1_vtx_0
                0x0000000007008088                bob_dl_render_056_mesh_layer_1_vtx_cull
                0x0000000007008108                bob_dl_render_055_mesh_layer_1_tri_0
                0x0000000007008160                bob_dl_render_055_mesh_layer_1_vtx_0
                0x0000000007008320                bob_dl_render_055_mesh_layer_1_vtx_cull
                0x00000000070083a0                bob_dl_render_055_mesh_layer_4_tri_0
                0x00000000070083b8                bob_dl_render_055_mesh_layer_4_vtx_0
                0x00000000070083f8                bob_dl_render_055_mesh_layer_4_vtx_cull
                0x0000000007008478                bob_dl_render_054_mesh_layer_1_tri_0
                0x00000000070084b8                bob_dl_render_054_mesh_layer_1_vtx_0
                0x0000000007008638                bob_dl_render_054_mesh_layer_1_vtx_cull
                0x00000000070086b8                bob_dl_render_053_mesh_layer_1_tri_1
                0x0000000007008750                bob_dl_render_053_mesh_layer_1_vtx_1
                0x0000000007008ad0                bob_dl_render_053_mesh_layer_1_tri_0
                0x0000000007008b00                bob_dl_render_053_mesh_layer_1_vtx_0
                0x0000000007008ba0                bob_dl_render_053_mesh_layer_1_vtx_cull
                0x0000000007008c20                bob_dl_render_051_mesh_layer_1_tri_0
                0x0000000007008c60                bob_dl_render_051_mesh_layer_1_vtx_0
                0x0000000007008de0                bob_dl_render_051_mesh_layer_1_vtx_cull
                0x0000000007008e60                bob_dl_render_050_mesh_layer_1_tri_1
                0x0000000007008f60                bob_dl_render_050_mesh_layer_1_vtx_1
                0x00000000070093d0                bob_dl_render_050_mesh_layer_1_tri_0
                0x0000000007009788                bob_dl_render_050_mesh_layer_1_vtx_0
                0x000000000700b078                bob_dl_render_050_mesh_layer_1_vtx_cull
                0x000000000700b0f8                bob_dl_render_049_mesh_layer_1_tri_0
                0x000000000700b1c8                bob_dl_render_049_mesh_layer_1_vtx_0
                0x000000000700b678                bob_dl_render_049_mesh_layer_1_vtx_cull
                0x000000000700b6f8                bob_dl_render_048_mesh_layer_1_tri_0
                0x000000000700b818                bob_dl_render_048_mesh_layer_1_vtx_0
                0x000000000700be18                bob_dl_render_048_mesh_layer_1_vtx_cull
                0x000000000700be98                bob_dl_render_047_mesh_layer_1_tri_0
                0x000000000700bec0                bob_dl_render_047_mesh_layer_1_vtx_0
                0x000000000700bf40                bob_dl_render_047_mesh_layer_1_vtx_cull
                0x000000000700bfc0                bob_dl_render_046_mesh_layer_1_tri_0
                0x000000000700c0e0                bob_dl_render_046_mesh_layer_1_vtx_0
                0x000000000700c6e0                bob_dl_render_046_mesh_layer_1_vtx_cull
                0x000000000700c760                bob_dl_render_045_mesh_layer_1_tri_0
                0x000000000700c788                bob_dl_render_045_mesh_layer_1_vtx_0
                0x000000000700c808                bob_dl_render_045_mesh_layer_1_vtx_cull
                0x000000000700c888                bob_dl_render_044_mesh_layer_1_tri_2
                0x000000000700c8a0                bob_dl_render_044_mesh_layer_1_vtx_2
                0x000000000700c8e0                bob_dl_render_044_mesh_layer_1_tri_1
                0x000000000700c900                bob_dl_render_044_mesh_layer_1_vtx_1
                0x000000000700c980                bob_dl_render_044_mesh_layer_1_tri_0
                0x000000000700ca98                bob_dl_render_044_mesh_layer_1_vtx_0
                0x000000000700d018                bob_dl_render_044_mesh_layer_1_vtx_cull
                0x000000000700d098                bob_dl_render_043_mesh_layer_1_tri_0
                0x000000000700d3b0                bob_dl_render_043_mesh_layer_1_vtx_0
                0x000000000700e6c0                bob_dl_render_043_mesh_layer_1_vtx_cull
                0x000000000700e740                bob_dl_render_042_mesh_layer_1_tri_0
                0x000000000700ea58                bob_dl_render_042_mesh_layer_1_vtx_0
                0x000000000700fd68                bob_dl_render_042_mesh_layer_1_vtx_cull
                0x000000000700fde8                bob_dl_render_041_mesh_layer_1_tri_0
                0x0000000007010100                bob_dl_render_041_mesh_layer_1_vtx_0
                0x0000000007011410                bob_dl_render_041_mesh_layer_1_vtx_cull
                0x0000000007011490                bob_dl_render_040_mesh_layer_1_tri_0
                0x00000000070114d0                bob_dl_render_040_mesh_layer_1_vtx_0
                0x0000000007011650                bob_dl_render_040_mesh_layer_1_vtx_cull
                0x00000000070116d0                bob_dl_render_039_mesh_layer_1_tri_0
                0x0000000007011710                bob_dl_render_039_mesh_layer_1_vtx_0
                0x0000000007011890                bob_dl_render_039_mesh_layer_1_vtx_cull
                0x0000000007011910                bob_dl_render_038_mesh_layer_1_tri_0
                0x00000000070119b8                bob_dl_render_038_mesh_layer_1_vtx_0
                0x0000000007011d88                bob_dl_render_038_mesh_layer_1_vtx_cull
                0x0000000007011e08                bob_dl_render_037_mesh_layer_1_tri_0
                0x0000000007011e48                bob_dl_render_037_mesh_layer_1_vtx_0
                0x0000000007011fc8                bob_dl_render_037_mesh_layer_1_vtx_cull
                0x0000000007012048                bob_dl_render_036_mesh_layer_1_tri_0
                0x0000000007012360                bob_dl_render_036_mesh_layer_1_vtx_0
                0x0000000007013670                bob_dl_render_036_mesh_layer_1_vtx_cull
                0x00000000070136f0                bob_dl_render_035_mesh_layer_1_tri_0
                0x0000000007013a08                bob_dl_render_035_mesh_layer_1_vtx_0
                0x0000000007014d18                bob_dl_render_035_mesh_layer_1_vtx_cull
                0x0000000007014d98                bob_dl_render_034_mesh_layer_1_tri_0
                0x0000000007014dd8                bob_dl_render_034_mesh_layer_1_vtx_0
                0x0000000007014f58                bob_dl_render_034_mesh_layer_1_vtx_cull
                0x0000000007014fd8                bob_dl_render_033_mesh_layer_1_tri_0
                0x0000000007015040                bob_dl_render_033_mesh_layer_1_vtx_0
                0x00000000070152c0                bob_dl_render_033_mesh_layer_1_vtx_cull
                0x0000000007015340                bob_dl_render_032_mesh_layer_1_tri_0
                0x0000000007015658                bob_dl_render_032_mesh_layer_1_vtx_0
                0x0000000007016968                bob_dl_render_032_mesh_layer_1_vtx_cull
                0x00000000070169e8                bob_dl_render_031_mesh_layer_1_tri_0
                0x0000000007016a28                bob_dl_render_031_mesh_layer_1_vtx_0
                0x0000000007016ba8                bob_dl_render_031_mesh_layer_1_vtx_cull
                0x0000000007016c28                bob_dl_render_030_mesh_layer_1_tri_0
                0x0000000007016c68                bob_dl_render_030_mesh_layer_1_vtx_0
                0x0000000007016de8                bob_dl_render_030_mesh_layer_1_vtx_cull
                0x0000000007016e68                bob_dl_render_029_mesh_layer_1_tri_0
                0x0000000007016ed0                bob_dl_render_029_mesh_layer_1_vtx_0
                0x0000000007017150                bob_dl_render_029_mesh_layer_1_vtx_cull
                0x00000000070171d0                bob_dl_render_028_mesh_layer_1_tri_0
                0x0000000007017210                bob_dl_render_028_mesh_layer_1_vtx_0
                0x0000000007017390                bob_dl_render_028_mesh_layer_1_vtx_cull
                0x0000000007017410                bob_dl_render_027_mesh_layer_1_tri_0
                0x0000000007017450                bob_dl_render_027_mesh_layer_1_vtx_0
                0x00000000070175d0                bob_dl_render_027_mesh_layer_1_vtx_cull
                0x0000000007017650                bob_dl_render_026_mesh_layer_1_tri_0
                0x0000000007017720                bob_dl_render_026_mesh_layer_1_vtx_0
                0x0000000007017bd0                bob_dl_render_026_mesh_layer_1_vtx_cull
                0x0000000007017c50                bob_dl_render_025_mesh_layer_1_tri_0
                0x0000000007017d70                bob_dl_render_025_mesh_layer_1_vtx_0
                0x0000000007018370                bob_dl_render_025_mesh_layer_1_vtx_cull
                0x00000000070183f0                bob_dl_render_024_mesh_layer_1_tri_0
                0x0000000007018430                bob_dl_render_024_mesh_layer_1_vtx_0
                0x00000000070185b0                bob_dl_render_024_mesh_layer_1_vtx_cull
                0x0000000007018630                bob_dl_render_023_mesh_layer_1_tri_1
                0x0000000007018840                bob_dl_render_023_mesh_layer_1_vtx_1
                0x0000000007019350                bob_dl_render_023_mesh_layer_1_tri_0
                0x00000000070196b8                bob_dl_render_023_mesh_layer_1_vtx_0
                0x000000000701ad48                bob_dl_render_023_mesh_layer_1_vtx_cull
                0x000000000701adc8                bob_dl_render_022_mesh_layer_1_tri_0
                0x000000000701ae08                bob_dl_render_022_mesh_layer_1_vtx_0
                0x000000000701af88                bob_dl_render_022_mesh_layer_1_vtx_cull
                0x000000000701b008                bob_dl_render_021_mesh_layer_1_tri_0
                0x000000000701b030                bob_dl_render_021_mesh_layer_1_vtx_0
                0x000000000701b0b0                bob_dl_render_021_mesh_layer_1_vtx_cull
                0x000000000701b130                bob_dl_render_020_mesh_layer_1_tri_0
                0x000000000701b170                bob_dl_render_020_mesh_layer_1_vtx_0
                0x000000000701b2f0                bob_dl_render_020_mesh_layer_1_vtx_cull
                0x000000000701b370                bob_dl_render_019_mesh_layer_1_tri_0
                0x000000000701b3b0                bob_dl_render_019_mesh_layer_1_vtx_0
                0x000000000701b530                bob_dl_render_019_mesh_layer_1_vtx_cull
                0x000000000701b5b0                bob_dl_render_018_mesh_layer_1_tri_0
                0x000000000701b618                bob_dl_render_018_mesh_layer_1_vtx_0
                0x000000000701b898                bob_dl_render_018_mesh_layer_1_vtx_cull
                0x000000000701b918                bob_dl_render_017_mesh_layer_1_tri_0
                0x000000000701b980                bob_dl_render_017_mesh_layer_1_vtx_0
                0x000000000701bc00                bob_dl_render_017_mesh_layer_1_vtx_cull
                0x000000000701bc80                bob_dl_render_016_mesh_layer_1_tri_0
                0x000000000701bcc0                bob_dl_render_016_mesh_layer_1_vtx_0
                0x000000000701be40                bob_dl_render_016_mesh_layer_1_vtx_cull
                0x000000000701bec0                bob_dl_render_015_mesh_layer_1_tri_0
                0x000000000701bf90                bob_dl_render_015_mesh_layer_1_vtx_0
                0x000000000701c440                bob_dl_render_015_mesh_layer_1_vtx_cull
                0x000000000701c4c0                bob_dl_render_014_mesh_layer_1_tri_0
                0x000000000701c500                bob_dl_render_014_mesh_layer_1_vtx_0
                0x000000000701c680                bob_dl_render_014_mesh_layer_1_vtx_cull
                0x000000000701c700                bob_dl_render_013_mesh_layer_1_tri_0
                0x000000000701c768                bob_dl_render_013_mesh_layer_1_vtx_0
                0x000000000701c9e8                bob_dl_render_013_mesh_layer_1_vtx_cull
                0x000000000701ca68                bob_dl_render_012_mesh_layer_1_tri_0
                0x000000000701cad0                bob_dl_render_012_mesh_layer_1_vtx_0
                0x000000000701cd50                bob_dl_render_012_mesh_layer_1_vtx_cull
                0x000000000701cdd0                bob_dl_render_011_mesh_layer_1_tri_0
                0x000000000701ce10                bob_dl_render_011_mesh_layer_1_vtx_0
                0x000000000701cf90                bob_dl_render_011_mesh_layer_1_vtx_cull
                0x000000000701d010                bob_dl_render_010_mesh_layer_1_tri_0
                0x000000000701d0e0                bob_dl_render_010_mesh_layer_1_vtx_0
                0x000000000701d590                bob_dl_render_010_mesh_layer_1_vtx_cull
                0x000000000701d610                bob_dl_render_008_mesh_layer_1_tri_0
                0x000000000701eb70                bob_dl_render_008_mesh_layer_1_vtx_0
                0x000000000702c010                bob_dl_render_008_mesh_layer_1_vtx_cull
                0x000000000702c090                bob_dl_render_007_mesh_layer_1_tri_0
                0x000000000702c428                bob_dl_render_007_mesh_layer_1_vtx_0
                0x000000000702e788                bob_dl_render_007_mesh_layer_1_vtx_cull
                0x000000000702e808                bob_dl_render_mesh_layer_1_tri_0
                0x000000000702e938                bob_dl_render_mesh_layer_1_vtx_0
                0x000000000702f178                bob_dl_render_mesh_layer_1_vtx_cull
                0x000000000702f1f8                bob_dl_owl_crest_001_mesh_layer_4_tri_0
                0x000000000702f2d8                bob_dl_owl_crest_001_mesh_layer_4_vtx_0
                0x000000000702f6f8                bob_dl_owl_crest_001_mesh_layer_4_vtx_cull
                0x000000000702f778                bob_dl_owl_crest_001_mesh_layer_1_tri_1
                0x000000000702f858                bob_dl_owl_crest_001_mesh_layer_1_vtx_1
                0x000000000702fc78                bob_dl_owl_crest_001_mesh_layer_1_tri_0
                0x000000000702fd28                bob_dl_owl_crest_001_mesh_layer_1_vtx_0
                0x00000000070301a8                bob_dl_owl_crest_001_mesh_layer_1_vtx_cull
                0x0000000007030228                bob_dl_Mesh_Owl_001_mesh_layer_1_tri_0
                0x00000000070309f0                bob_dl_Mesh_Owl_001_mesh_layer_1_vtx_0
                0x0000000007033f30                bob_dl_Mesh_Owl_001_mesh_layer_1_vtx_cull
                0x0000000007033fb0                bob_dl_Mesh_Owl_mesh_layer_1_tri_0
                0x0000000007034778                bob_dl_Mesh_Owl_mesh_layer_1_vtx_0
                0x0000000007037cb8                bob_dl_Mesh_Owl_mesh_layer_1_vtx_cull
                0x0000000007037d38                bob_dl_Icosphere_012_mesh_layer_1_tri_3
                0x0000000007037d80                bob_dl_Icosphere_012_mesh_layer_1_vtx_3
                0x0000000007037ed0                bob_dl_Icosphere_012_mesh_layer_1_tri_2
                0x0000000007037f28                bob_dl_Icosphere_012_mesh_layer_1_vtx_2
                0x00000000070380f8                bob_dl_Icosphere_012_mesh_layer_1_tri_1
                0x00000000070382c0                bob_dl_Icosphere_012_mesh_layer_1_vtx_1
                0x0000000007038e80                bob_dl_Icosphere_012_mesh_layer_1_tri_0
                0x0000000007039498                bob_dl_Icosphere_012_mesh_layer_1_vtx_0
                0x000000000703d0d8                bob_dl_Icosphere_012_mesh_layer_1_vtx_cull
                0x000000000703d158                bob_dl_Icosphere_011_mesh_layer_1_tri_3
                0x000000000703d1a0                bob_dl_Icosphere_011_mesh_layer_1_vtx_3
                0x000000000703d2f0                bob_dl_Icosphere_011_mesh_layer_1_tri_2
                0x000000000703d348                bob_dl_Icosphere_011_mesh_layer_1_vtx_2
                0x000000000703d518                bob_dl_Icosphere_011_mesh_layer_1_tri_1
                0x000000000703d6e0                bob_dl_Icosphere_011_mesh_layer_1_vtx_1
                0x000000000703e2a0                bob_dl_Icosphere_011_mesh_layer_1_tri_0
                0x000000000703e8b8                bob_dl_Icosphere_011_mesh_layer_1_vtx_0
                0x00000000070424f8                bob_dl_Icosphere_011_mesh_layer_1_vtx_cull
                0x0000000007042578                bob_dl_Icosphere_009_mesh_layer_1_tri_3
                0x00000000070425c0                bob_dl_Icosphere_009_mesh_layer_1_vtx_3
                0x0000000007042710                bob_dl_Icosphere_009_mesh_layer_1_tri_2
                0x0000000007042768                bob_dl_Icosphere_009_mesh_layer_1_vtx_2
                0x0000000007042938                bob_dl_Icosphere_009_mesh_layer_1_tri_1
                0x0000000007042b00                bob_dl_Icosphere_009_mesh_layer_1_vtx_1
                0x00000000070436c0                bob_dl_Icosphere_009_mesh_layer_1_tri_0
                0x0000000007043cd8                bob_dl_Icosphere_009_mesh_layer_1_vtx_0
                0x0000000007047918                bob_dl_Icosphere_009_mesh_layer_1_vtx_cull
                0x0000000007047998                bob_dl_Icosphere_007_mesh_layer_1_tri_3
                0x00000000070479e0                bob_dl_Icosphere_007_mesh_layer_1_vtx_3
                0x0000000007047b30                bob_dl_Icosphere_007_mesh_layer_1_tri_2
                0x0000000007047b88                bob_dl_Icosphere_007_mesh_layer_1_vtx_2
                0x0000000007047d58                bob_dl_Icosphere_007_mesh_layer_1_tri_1
                0x0000000007047f20                bob_dl_Icosphere_007_mesh_layer_1_vtx_1
                0x0000000007048ae0                bob_dl_Icosphere_007_mesh_layer_1_tri_0
                0x00000000070490f8                bob_dl_Icosphere_007_mesh_layer_1_vtx_0
                0x000000000704cd38                bob_dl_Icosphere_007_mesh_layer_1_vtx_cull
                0x000000000704cdb8                bob_dl_Floor_BricksSeparate2_mesh_layer_1_tri_0
                0x000000000704d630                bob_dl_Floor_BricksSeparate2_mesh_layer_1_vtx_0
                0x0000000007050be0                bob_dl_Floor_BricksSeparate2_mesh_layer_1_vtx_cull
                0x0000000007050c60                bob_dl_Cube_033_mesh_layer_1_tri_0
                0x0000000007050ca0                bob_dl_Cube_033_mesh_layer_1_vtx_0
                0x0000000007050e20                bob_dl_Cube_033_mesh_layer_1_vtx_cull
                0x0000000007050ea0                bob_dl_Cube_028_mesh_layer_1_tri_0
                0x0000000007050f80                bob_dl_Cube_028_mesh_layer_1_vtx_0
                0x00000000070513a0                bob_dl_Cube_028_mesh_layer_1_vtx_cull
                0x0000000007051420                bob_dl_Cube_018_mesh_layer_1_tri_0
                0x00000000070514b8                bob_dl_Cube_018_mesh_layer_1_vtx_0
                0x00000000070517b8                bob_dl_Cube_018_mesh_layer_1_vtx_cull
                0x0000000007051838                bob_dl_Cube_016_mesh_layer_1_tri_0
                0x0000000007051988                bob_dl_Cube_016_mesh_layer_1_vtx_0
                0x00000000070521a8                bob_dl_Cube_016_mesh_layer_1_vtx_cull
                0x0000000007052228                bob_dl_Cube_015_mesh_layer_1_tri_0
                0x0000000007052378                bob_dl_Cube_015_mesh_layer_1_vtx_0
                0x0000000007052b98                bob_dl_Cube_015_mesh_layer_1_vtx_cull
                0x0000000007052c18                bob_dl_Cube_014_mesh_layer_1_tri_0
                0x0000000007052d68                bob_dl_Cube_014_mesh_layer_1_vtx_0
                0x0000000007053588                bob_dl_Cube_014_mesh_layer_1_vtx_cull
                0x0000000007053608                bob_dl_Cube_012_mesh_layer_1_tri_0
                0x0000000007053758                bob_dl_Cube_012_mesh_layer_1_vtx_0
                0x0000000007053f78                bob_dl_Cube_012_mesh_layer_1_vtx_cull
                0x0000000007053ff8                bob_dl_Cube_011_mesh_layer_1_tri_0
                0x0000000007054148                bob_dl_Cube_011_mesh_layer_1_vtx_0
                0x0000000007054968                bob_dl_Cube_011_mesh_layer_1_vtx_cull
                0x00000000070549e8                bob_dl_Cube_010_mesh_layer_1_tri_0
                0x0000000007054b48                bob_dl_Cube_010_mesh_layer_1_vtx_0
                0x0000000007055388                bob_dl_Cube_010_mesh_layer_1_vtx_cull
                0x0000000007055408                bob_dl_Cube_009_mesh_layer_1_tri_0
                0x0000000007055568                bob_dl_Cube_009_mesh_layer_1_vtx_0
                0x0000000007055da8                bob_dl_Cube_009_mesh_layer_1_vtx_cull
                0x0000000007055e28                bob_dl_Cube_008_mesh_layer_1_tri_0
                0x0000000007055e68                bob_dl_Cube_008_mesh_layer_1_vtx_0
                0x0000000007055fe8                bob_dl_Cube_008_mesh_layer_1_vtx_cull
                0x0000000007056068                bob_dl_Cube_007_mesh_layer_1_tri_0
                0x00000000070560a8                bob_dl_Cube_007_mesh_layer_1_vtx_0
                0x0000000007056228                bob_dl_Cube_007_mesh_layer_1_vtx_cull
                0x00000000070562a8                bob_dl_Cube_006_mesh_layer_1_tri_0
                0x00000000070562e8                bob_dl_Cube_006_mesh_layer_1_vtx_0
                0x0000000007056468                bob_dl_Cube_006_mesh_layer_1_vtx_cull
                0x00000000070564e8                bob_dl_Cube_005_mesh_layer_1_tri_0
                0x0000000007056648                bob_dl_Cube_005_mesh_layer_1_vtx_0
                0x0000000007056e88                bob_dl_Cube_005_mesh_layer_1_vtx_cull
                0x0000000007056f08                bob_dl_Cube_004_mesh_layer_1_tri_0
                0x0000000007056f90                bob_dl_Cube_004_mesh_layer_1_vtx_0
                0x00000000070572b0                bob_dl_Cube_004_mesh_layer_1_vtx_cull
                0x0000000007057330                bob_dl_Cube_003_mesh_layer_1_tri_0
                0x00000000070573e0                bob_dl_Cube_003_mesh_layer_1_vtx_0
                0x0000000007057860                bob_dl_Cube_003_mesh_layer_1_vtx_cull
                0x00000000070578e0                bob_dl_Cube_001_mesh_layer_1_tri_0
                0x0000000007057920                bob_dl_Cube_001_mesh_layer_1_vtx_0
                0x0000000007057aa0                bob_dl_Cube_001_mesh_layer_1_vtx_cull
                0x0000000007057b20                bob_dl_black_001_mesh_layer_1_tri_0
                0x0000000007057b60                bob_dl_black_001_mesh_layer_1_vtx_0
                0x0000000007057ce0                bob_dl_black_001_mesh_layer_1_vtx_cull
                0x0000000007057d60                bob_dl_black_mesh_layer_1_tri_0
                0x0000000007057da0                bob_dl_black_mesh_layer_1_vtx_0
                0x0000000007057f20                bob_dl_black_mesh_layer_1_vtx_cull
                0x0000000007057fa0                bob_dl_light_pal_rgba16
                0x0000000007057fa8                bob_dl_light_pal_rgba16_aligner
                0x0000000007057fb0                bob_dl_light_ci4
                0x00000000070581b0                bob_dl_light_ci4_aligner
                0x00000000070581b8                bob_dl_grate_pal_rgba16
                0x00000000070582a0                bob_dl_grate_pal_rgba16_aligner
                0x00000000070582a8                bob_dl_grate_ci8
                0x00000000070586a8                bob_dl_grate_ci8_aligner
                0x00000000070586b0                bob_dl_circle_pal_rgba16
                0x00000000070586b8                bob_dl_circle_pal_rgba16_aligner
                0x00000000070586c0                bob_dl_circle_ci8
                0x0000000007058ac0                bob_dl_circle_ci8_aligner
                0x0000000007058ac8                bob_dl_star_pal_rgba16
                0x0000000007058bb0                bob_dl_star_pal_rgba16_aligner
                0x0000000007058bb8                bob_dl_star_ci8
                0x0000000007058fb8                bob_dl_star_ci8_aligner
                0x0000000007058fc0                bob_dl_ci4_anonmoose_Tiles1_pal_rgba16
                0x0000000007058fe0                bob_dl_ci4_anonmoose_Tiles1_pal_rgba16_aligner
                0x0000000007058fe8                bob_dl_ci4_anonmoose_Tiles1_ci4
                0x00000000070597e8                bob_dl_ci4_anonmoose_Tiles1_ci4_aligner
                0x00000000070597f0                bob_dl__1_pal_rgba16
                0x0000000007059858                bob_dl__1_pal_rgba16_aligner
                0x0000000007059860                bob_dl__1_ci8
                0x0000000007059c60                _::bob_dl(char, int, _aligner)
                0x0000000007059c68                bob_dl_ci4_anonmoose_whiteblock_pal_rgba16
                0x0000000007059c88                bob_dl_ci4_anonmoose_whiteblock_pal_rgba16_aligner
                0x0000000007059c90                bob_dl_ci4_anonmoose_whiteblock_ci4
                0x000000000705a490                bob_dl_ci4_anonmoose_whiteblock_ci4_aligner
                0x000000000705a498                bob_dl_ci4_sophie_metal2_pal_rgba16
                0x000000000705a4b8                bob_dl_ci4_sophie_metal2_pal_rgba16_aligner
                0x000000000705a4c0                bob_dl_ci4_sophie_metal2_ci4
                0x000000000705acc0                bob_dl_ci4_sophie_metal2_ci4_aligner
                0x000000000705acc8                bob_dl_rgba16_anonmoose_envmap_gold1_pal_rgba16
                0x000000000705ae38                bob_dl_rgba16_anonmoose_envmap_gold1_pal_rgba16_aligner
                0x000000000705ae40                bob_dl_rgba16_anonmoose_envmap_gold1_ci8
                0x000000000705b240                bob_dl_rgba16_anonmoose_envmap_gold1_ci8_aligner
                0x000000000705b248                bob_dl_slab_pal_rgba16
                0x000000000705b280                bob_dl_slab_pal_rgba16_aligner
                0x000000000705b288                bob_dl_slab_ci8
                0x000000000705b688                bob_dl_slab_ci8_aligner
                0x000000000705b690                bob_dl__6_pal_rgba16
                0x000000000705b878                bob_dl__6_pal_rgba16_aligner
                0x000000000705b880                bob_dl__6_ci8
                0x000000000705bc80                bob_dl__6_ci8_aligner
                0x000000000705bc88                bob_dl__0_pal_rgba16
                0x000000000705bdb8                bob_dl__0_pal_rgba16_aligner
                0x000000000705bdc0                bob_dl__0_ci8
                0x000000000705c1c0                bob_dl__0_ci8_aligner
                0x000000000705c1c8                bob_dl_ci4_anonmoose_Dirt1_pal_rgba16
                0x000000000705c200                bob_dl_ci4_anonmoose_Dirt1_pal_rgba16_aligner
                0x000000000705c208                bob_dl_ci4_anonmoose_Dirt1_ci8
                0x000000000705c608                bob_dl_ci4_anonmoose_Dirt1_ci8_aligner
                0x000000000705c610                bob_dl__12_pal_rgba16
                0x000000000705c678                bob_dl__12_pal_rgba16_aligner
                0x000000000705c680                bob_dl__12_ci8
                0x000000000705ca80                _ci8_aligner::bob_dl(void)
                0x000000000705ca88                bob_dl__7_pal_rgba16
                0x000000000705cb48                bob_dl__7_pal_rgba16_aligner
                0x000000000705cb50                bob_dl__7_ci8
                0x000000000705cf50                bob_dl__7_ci8_aligner
                0x000000000705cf58                bob_dl_rgba16_anonmoose_swirl1_pal_rgba16_copy
                0x000000000705cfa8                bob_dl_rgba16_anonmoose_swirl1_pal_rgba16_copy_aligner
                0x000000000705cfb0                bob_dl_rgba16_anonmoose_swirl1_ci8_copy
                0x000000000705d3b0                bob_dl_rgba16_anonmoose_swirl1_ci8_copy_aligner
                0x000000000705d3b8                bob_dl_rgba16_anonmoose_swirl1_pal_rgba16
                0x000000000705d408                bob_dl_rgba16_anonmoose_swirl1_pal_rgba16_aligner
                0x000000000705d410                bob_dl_rgba16_anonmoose_swirl1_ci8
                0x000000000705d810                bob_dl_rgba16_anonmoose_swirl1_ci8_aligner
                0x000000000705d818                bob_area_1_macro_objs
                0x000000000705d81c                bob_area_1_collision
                0x000000000707408c                bob_seg7_trajectory_koopa
                0x00000000070741b0                bob_seg7_metal_ball_path1
                0x000000000707428c                bob_seg7_metal_ball_path0
                0x0000000007074320                bob_seg7_collision_gate
                0x00000000070743f8                bob_seg7_collision_bridge
                0x0000000007074494                bob_seg7_collision_chain_chomp_gate
                0x00000000070744c8                bob_seg7_macro_objs
                0x000000000707483c                bob_seg7_collision_level
                0x0000000007077778                bob_seg7_dl_0700E8A0
                0x00000000070778b8                bob_seg7_dl_0700E768
                0x0000000007077b80                bob_seg7_dl_0700E458
                0x0000000007077ca8                bob_seg7_dl_0700E338
                0x00000000070781d8                bob_seg7_dl_0700DD18
                0x000000000707b0e0                bob_seg7_dl_0700A920
                0x000000000707b588                bob_seg7_dl_0700A470
                0x000000000707bb58                bob_seg7_dl_07009D80
                0x0000000007080ec8                bob_seg7_dl_07004390

.data1
 *(.data1)

.got.plt
 *(.got.plt)
                0x0000000007085090                . = .
                0x0000000007085090                . = .
                0x000000000708d080                _gp = (ALIGN (0x10) + 0x7ff0)

.got
 *(.got)

.sdata
 *(.sdata .sdata.* .gnu.linkonce.s.*)

.lit8
 *(.lit8)

.lit4
 *(.lit4)
                0x0000000007085090                _edata = .
                [!provide]                        PROVIDE (edata = .)
                0x0000000007085090                . = .
                0x0000000007085090                __bss_start = .
                0x0000000007085090                _fbss = .

.sbss
 *(.dynsbss)
 *(.sbss .sbss.* .gnu.linkonce.sb.*)
 *(.scommon)

.bss            0x0000000007085090        0x0 load address 0x00000000070850a8
 *(.dynbss)
 *(.bss .bss.* .gnu.linkonce.b.*)
 .bss           0x0000000007085090        0x0 build/us_n64/levels/bob/leveldata.o
 *(COMMON)
                0x0000000007085090                . = ALIGN ((. != 0x0)?0x4:0x1)
                0x0000000007085090                . = ALIGN (0x4)
                0x0000000007085090                . = SEGMENT_START ("ldata-segment", .)
                0x0000000007085090                . = ALIGN (0x4)
                0x0000000007085090                _end = .
                [!provide]                        PROVIDE (end = .)
                0x0000000007085090                . = DATA_SEGMENT_END (.)

.stab
 *(.stab)

.stabstr
 *(.stabstr)

.stab.excl
 *(.stab.excl)

.stab.exclstr
 *(.stab.exclstr)

.stab.index
 *(.stab.index)

.stab.indexstr
 *(.stab.indexstr)

.comment        0x0000000000000000       0x12
 *(.comment)
 .comment       0x0000000000000000       0x12 build/us_n64/levels/bob/leveldata.o
                                         0x13 (size before relaxing)

.pdr            0x0000000000000000        0x0
 .pdr           0x0000000000000000        0x0 build/us_n64/levels/bob/leveldata.o

.debug
 *(.debug)

.line
 *(.line)

.debug_srcinfo
 *(.debug_srcinfo)

.debug_sfnames
 *(.debug_sfnames)

.debug_aranges
 *(.debug_aranges)

.debug_pubnames
 *(.debug_pubnames)

.debug_info
 *(.debug_info .gnu.linkonce.wi.*)

.debug_abbrev
 *(.debug_abbrev)

.debug_line
 *(.debug_line .debug_line.* .debug_line_end)

.debug_frame
 *(.debug_frame)

.debug_str
 *(.debug_str)

.debug_loc
 *(.debug_loc)

.debug_macinfo
 *(.debug_macinfo)

.debug_weaknames
 *(.debug_weaknames)

.debug_funcnames
 *(.debug_funcnames)

.debug_typenames
 *(.debug_typenames)

.debug_varnames
 *(.debug_varnames)

.debug_pubtypes
 *(.debug_pubtypes)

.debug_ranges
 *(.debug_ranges)

.debug_macro
 *(.debug_macro)

.debug_addr
 *(.debug_addr)

.gnu.attributes
                0x0000000000000000       0x10
 *(.gnu.attributes)
 .gnu.attributes
                0x0000000000000000       0x10 build/us_n64/levels/bob/leveldata.o

.gptab.sdata
 *(.gptab.data)
 *(.gptab.sdata)

.gptab.sbss
 *(.gptab.bss)
 *(.gptab.sbss)

.mdebug.abi32   0x0000000000000000        0x0
 *(.mdebug.abi32)
 .mdebug.abi32  0x0000000000000000        0x0 build/us_n64/levels/bob/leveldata.o

.mdebug.abiN32
 *(.mdebug.abiN32)

.mdebug.abi64
 *(.mdebug.abi64)

.mdebug.abiO64
 *(.mdebug.abiO64)

.mdebug.eabi32
 *(.mdebug.eabi32)

.mdebug.eabi64
 *(.mdebug.eabi64)

.gcc_compiled_long32
 *(.gcc_compiled_long32)

.gcc_compiled_long64
 *(.gcc_compiled_long64)

/DISCARD/
 *(.note.GNU-stack)
 *(.gnu_debuglink)
 *(.gnu.lto_*)
OUTPUT(build/us_n64/levels/bob/leveldata.elf elf32-bigmips)
