
Memory Configuration

Name             Origin             Length             Attributes
*default*        0x0000000000000000 0xffffffffffffffff

Linker script and memory map

Address of section .text set to 0x7000000
LOAD build/us_n64/bin/generic.elf
LOAD build/us_n64/levels/bob/leveldata.o
                [!provide]                        PROVIDE (__executable_start = SEGMENT_START ("text-segment", 0x400000))
                0x0000000000400000                . = SEGMENT_START ("text-segment", 0x400000)

.interp
 *(.interp)

.MIPS.abiflags  0x0000000000400000       0x18
 *(.MIPS.abiflags)
 .MIPS.abiflags
                0x0000000000400000       0x18 build/us_n64/levels/bob/leveldata.o

.reginfo        0x0000000000400018       0x18
 *(.reginfo)
 .reginfo       0x0000000000400018       0x18 build/us_n64/levels/bob/leveldata.o

.note.gnu.build-id
 *(.note.gnu.build-id)

.dynamic
 *(.dynamic)

.hash
 *(.hash)

.gnu.hash
 *(.gnu.hash)

.dynsym
 *(.dynsym)

.dynstr
 *(.dynstr)

.gnu.version
 *(.gnu.version)

.gnu.version_d
 *(.gnu.version_d)

.gnu.version_r
 *(.gnu.version_r)

.rel.dyn        0x0000000000400018        0x0 load address 0x0000000000400030
 *(.rel.init)
 *(.rel.text .rel.text.* .rel.gnu.linkonce.t.*)
 *(.rel.fini)
 *(.rel.rodata .rel.rodata.* .rel.gnu.linkonce.r.*)
 *(.rel.data.rel.ro .rel.data.rel.ro.* .rel.gnu.linkonce.d.rel.ro.*)
 *(.rel.data .rel.data.* .rel.gnu.linkonce.d.*)
 *(.rel.tdata .rel.tdata.* .rel.gnu.linkonce.td.*)
 *(.rel.tbss .rel.tbss.* .rel.gnu.linkonce.tb.*)
 *(.rel.ctors)
 *(.rel.dtors)
 *(.rel.got)
 *(.rel.dyn)
 .rel.dyn       0x0000000000400018        0x0 build/us_n64/levels/bob/leveldata.o
 *(.rel.sdata .rel.sdata.* .rel.gnu.linkonce.s.*)
 *(.rel.sbss .rel.sbss.* .rel.gnu.linkonce.sb.*)
 *(.rel.sdata2 .rel.sdata2.* .rel.gnu.linkonce.s2.*)
 *(.rel.sbss2 .rel.sbss2.* .rel.gnu.linkonce.sb2.*)
 *(.rel.bss .rel.bss.* .rel.gnu.linkonce.b.*)
                [!provide]                        PROVIDE (__rel_iplt_start = .)
 *(.rel.iplt)
                [!provide]                        PROVIDE (__rel_iplt_end = .)

.rela.dyn       0x0000000000400018        0x0
 *(.rela.init)
 *(.rela.text .rela.text.* .rela.gnu.linkonce.t.*)
 *(.rela.fini)
 *(.rela.rodata .rela.rodata.* .rela.gnu.linkonce.r.*)
 *(.rela.data .rela.data.* .rela.gnu.linkonce.d.*)
 *(.rela.tdata .rela.tdata.* .rela.gnu.linkonce.td.*)
 *(.rela.tbss .rela.tbss.* .rela.gnu.linkonce.tb.*)
 *(.rela.ctors)
 *(.rela.dtors)
 *(.rela.got)
 *(.rela.sdata .rela.sdata.* .rela.gnu.linkonce.s.*)
 *(.rela.sbss .rela.sbss.* .rela.gnu.linkonce.sb.*)
 *(.rela.sdata2 .rela.sdata2.* .rela.gnu.linkonce.s2.*)
 *(.rela.sbss2 .rela.sbss2.* .rela.gnu.linkonce.sb2.*)
 *(.rela.bss .rela.bss.* .rela.gnu.linkonce.b.*)
                [!provide]                        PROVIDE (__rela_iplt_start = .)
 *(.rela.iplt)
                [!provide]                        PROVIDE (__rela_iplt_end = .)

.rel.plt
 *(.rel.plt)

.rela.plt
 *(.rela.plt)

.init
 *(SORT_NONE(.init))

.plt
 *(.plt)

.iplt
 *(.iplt)

.text           0x0000000007000000        0x0 load address 0x0000000007000018
                0x0000000007000000                _ftext = .
 *(.text.unlikely .text.*_unlikely .text.unlikely.*)
 *(.text.exit .text.exit.*)
 *(.text.startup .text.startup.*)
 *(.text.hot .text.hot.*)
 *(.text .stub .text.* .gnu.linkonce.t.*)
 .text          0x0000000007000000        0x0 build/us_n64/levels/bob/leveldata.o
 *(.gnu.warning)
 *(.mips16.fn.*)
 *(.mips16.call.*)

.fini
 *(SORT_NONE(.fini))
                [!provide]                        PROVIDE (__etext = .)
                [!provide]                        PROVIDE (_etext = .)
                [!provide]                        PROVIDE (etext = .)

.rodata
 *(.rodata .rodata.* .gnu.linkonce.r.*)

.rodata1
 *(.rodata1)

.sdata2
 *(.sdata2 .sdata2.* .gnu.linkonce.s2.*)

.sbss2
 *(.sbss2 .sbss2.* .gnu.linkonce.sb2.*)

.eh_frame_hdr
 *(.eh_frame_hdr)
 *(.eh_frame_entry .eh_frame_entry.*)

.eh_frame
 *(.eh_frame)
 *(.eh_frame.*)

.gcc_except_table
 *(.gcc_except_table .gcc_except_table.*)

.gnu_extab
 *(.gnu_extab*)

.exception_ranges
 *(.exception_ranges .exception_ranges*)
                0x0000000007000000                . = DATA_SEGMENT_ALIGN (CONSTANT (MAXPAGESIZE), CONSTANT (COMMONPAGESIZE))

.eh_frame
 *(.eh_frame)
 *(.eh_frame.*)

.gnu_extab
 *(.gnu_extab)

.gcc_except_table
 *(.gcc_except_table .gcc_except_table.*)

.exception_ranges
 *(.exception_ranges .exception_ranges*)

.tdata
 *(.tdata .tdata.* .gnu.linkonce.td.*)

.tbss
 *(.tbss .tbss.* .gnu.linkonce.tb.*)
 *(.tcommon)

.preinit_array  0x0000000007000000        0x0
                [!provide]                        PROVIDE (__preinit_array_start = .)
 *(.preinit_array)
                [!provide]                        PROVIDE (__preinit_array_end = .)

.init_array     0x0000000007000000        0x0
                [!provide]                        PROVIDE (__init_array_start = .)
 *(SORT_BY_INIT_PRIORITY(.init_array.*) SORT_BY_INIT_PRIORITY(.ctors.*))
 *(.init_array EXCLUDE_FILE(*crtend?.o *crtend.o *crtbegin?.o *crtbegin.o) .ctors)
                [!provide]                        PROVIDE (__init_array_end = .)

.fini_array     0x0000000007000000        0x0
                [!provide]                        PROVIDE (__fini_array_start = .)
 *(SORT_BY_INIT_PRIORITY(.fini_array.*) SORT_BY_INIT_PRIORITY(.dtors.*))
 *(.fini_array EXCLUDE_FILE(*crtend?.o *crtend.o *crtbegin?.o *crtbegin.o) .dtors)
                [!provide]                        PROVIDE (__fini_array_end = .)

.ctors
 *crtbegin.o(.ctors)
 *crtbegin?.o(.ctors)
 *(EXCLUDE_FILE(*crtend?.o *crtend.o) .ctors)
 *(SORT_BY_NAME(.ctors.*))
 *(.ctors)

.dtors
 *crtbegin.o(.dtors)
 *crtbegin?.o(.dtors)
 *(EXCLUDE_FILE(*crtend?.o *crtend.o) .dtors)
 *(SORT_BY_NAME(.dtors.*))
 *(.dtors)

.jcr
 *(.jcr)

.data.rel.ro
 *(.data.rel.ro.local* .gnu.linkonce.d.rel.ro.local.*)
 *(.data.rel.ro .data.rel.ro.* .gnu.linkonce.d.rel.ro.*)
                0x0000000007000000                . = DATA_SEGMENT_RELRO_END (., 0x0)

.data           0x0000000007000000    0x80918 load address 0x0000000007000018
                0x0000000007000000                _fdata = .
 *(.data .data.* .gnu.linkonce.d.*)
 .data          0x0000000007000000    0x80918 build/us_n64/levels/bob/leveldata.o
                0x0000000007000000                bob_dl_final_revert_mesh_layer_5
                0x0000000007000040                bob_dl_final_revert_mesh_layer_4
                0x0000000007000080                bob_dl_final_revert_mesh_layer_1
                0x00000000070000c0                bob_dl_skylight_mesh_layer_5
                0x0000000007000100                bob_dl_render_087_mesh_layer_1
                0x0000000007000140                bob_dl_render_086_mesh_layer_1
                0x0000000007000180                bob_dl_render_085_mesh_layer_1
                0x00000000070001c0                bob_dl_render_084_mesh_layer_1
                0x0000000007000200                bob_dl_render_083_mesh_layer_1
                0x0000000007000240                bob_dl_render_082_mesh_layer_1
                0x0000000007000280                bob_dl_render_081_mesh_layer_1
                0x00000000070002c0                bob_dl_render_080_mesh_layer_1
                0x0000000007000300                bob_dl_render_079_mesh_layer_1
                0x0000000007000340                bob_dl_render_078_mesh_layer_1
                0x0000000007000398                bob_dl_render_075_mesh_layer_1
                0x00000000070003d8                bob_dl_render_074_mesh_layer_1
                0x0000000007000418                bob_dl_render_073_mesh_layer_1
                0x0000000007000458                bob_dl_render_072_mesh_layer_1
                0x0000000007000498                bob_dl_render_071_mesh_layer_1
                0x00000000070004d8                bob_dl_render_070_mesh_layer_1
                0x0000000007000518                bob_dl_render_069_mesh_layer_1
                0x0000000007000558                bob_dl_render_068_mesh_layer_1
                0x00000000070005b0                bob_dl_render_067_mesh_layer_1
                0x00000000070005f0                bob_dl_render_066_mesh_layer_1
                0x0000000007000630                bob_dl_render_065_mesh_layer_1
                0x0000000007000670                bob_dl_render_064_mesh_layer_4
                0x00000000070006b0                bob_dl_render_064_mesh_layer_1
                0x00000000070006f0                bob_dl_render_063_mesh_layer_1
                0x0000000007000730                bob_dl_render_063_mesh_layer_4
                0x0000000007000770                bob_dl_render_062_mesh_layer_1
                0x00000000070007b0                bob_dl_render_061_mesh_layer_1
                0x0000000007000808                bob_dl_render_058_mesh_layer_1
                0x0000000007000848                bob_dl_render_058_mesh_layer_4
                0x0000000007000888                bob_dl_render_056_mesh_layer_1
                0x00000000070008c8                bob_dl_render_055_mesh_layer_1
                0x0000000007000908                bob_dl_render_055_mesh_layer_4
                0x0000000007000948                bob_dl_render_054_mesh_layer_1
                0x0000000007000988                bob_dl_render_053_mesh_layer_1
                0x00000000070009e0                bob_dl_render_051_mesh_layer_1
                0x0000000007000a20                bob_dl_render_050_mesh_layer_1
                0x0000000007000a78                bob_dl_render_049_mesh_layer_1
                0x0000000007000ab8                bob_dl_render_048_mesh_layer_1
                0x0000000007000af8                bob_dl_render_047_mesh_layer_1
                0x0000000007000b38                bob_dl_render_046_mesh_layer_1
                0x0000000007000b78                bob_dl_render_045_mesh_layer_1
                0x0000000007000bb8                bob_dl_render_044_mesh_layer_1
                0x0000000007000c28                bob_dl_render_043_mesh_layer_1
                0x0000000007000c68                bob_dl_render_042_mesh_layer_1
                0x0000000007000ca8                bob_dl_render_041_mesh_layer_1
                0x0000000007000ce8                bob_dl_render_040_mesh_layer_1
                0x0000000007000d28                bob_dl_render_039_mesh_layer_1
                0x0000000007000d68                bob_dl_render_038_mesh_layer_1
                0x0000000007000da8                bob_dl_render_037_mesh_layer_1
                0x0000000007000de8                bob_dl_render_036_mesh_layer_1
                0x0000000007000e28                bob_dl_render_035_mesh_layer_1
                0x0000000007000e68                bob_dl_render_034_mesh_layer_1
                0x0000000007000ea8                bob_dl_render_033_mesh_layer_1
                0x0000000007000ee8                bob_dl_render_032_mesh_layer_1
                0x0000000007000f28                bob_dl_render_031_mesh_layer_1
                0x0000000007000f68                bob_dl_render_030_mesh_layer_1
                0x0000000007000fa8                bob_dl_render_029_mesh_layer_1
                0x0000000007000fe8                bob_dl_render_028_mesh_layer_1
                0x0000000007001028                bob_dl_render_027_mesh_layer_1
                0x0000000007001068                bob_dl_render_026_mesh_layer_1
                0x00000000070010a8                bob_dl_render_025_mesh_layer_1
                0x00000000070010e8                bob_dl_render_024_mesh_layer_1
                0x0000000007001128                bob_dl_render_023_mesh_layer_1
                0x0000000007001180                bob_dl_render_022_mesh_layer_1
                0x00000000070011c0                bob_dl_render_021_mesh_layer_1
                0x0000000007001200                bob_dl_render_020_mesh_layer_1
                0x0000000007001240                bob_dl_render_019_mesh_layer_1
                0x0000000007001280                bob_dl_render_018_mesh_layer_1
                0x00000000070012c0                bob_dl_render_017_mesh_layer_1
                0x0000000007001300                bob_dl_render_016_mesh_layer_1
                0x0000000007001340                bob_dl_render_015_mesh_layer_1
                0x0000000007001380                bob_dl_render_014_mesh_layer_1
                0x00000000070013c0                bob_dl_render_013_mesh_layer_1
                0x0000000007001400                bob_dl_render_012_mesh_layer_1
                0x0000000007001440                bob_dl_render_011_mesh_layer_1
                0x0000000007001480                bob_dl_render_010_mesh_layer_1
                0x00000000070014c0                bob_dl_render_008_mesh_layer_1
                0x0000000007001500                bob_dl_render_007_mesh_layer_1
                0x0000000007001540                bob_dl_render_002_mesh_layer_1
                0x0000000007001580                bob_dl_render_001_mesh_layer_1
                0x00000000070015c0                bob_dl_render_mesh_layer_1
                0x0000000007001600                bob_dl_owl_crest_001_mesh_layer_4
                0x0000000007001640                bob_dl_owl_crest_001_mesh_layer_1
                0x0000000007001698                bob_dl_Mesh_Owl_001_mesh_layer_1
                0x00000000070016d8                bob_dl_Mesh_Owl_mesh_layer_1
                0x0000000007001718                bob_dl_Icosphere_012_mesh_layer_1
                0x00000000070017a0                bob_dl_Icosphere_011_mesh_layer_1
                0x0000000007001828                bob_dl_Icosphere_009_mesh_layer_1
                0x00000000070018b0                bob_dl_Icosphere_007_mesh_layer_1
                0x0000000007001938                bob_dl_Cube_033_mesh_layer_1
                0x0000000007001978                bob_dl_Cube_028_mesh_layer_1
                0x00000000070019b8                bob_dl_Cube_018_mesh_layer_1
                0x00000000070019f8                bob_dl_Cube_016_mesh_layer_1
                0x0000000007001a38                bob_dl_Cube_015_mesh_layer_1
                0x0000000007001a78                bob_dl_Cube_014_mesh_layer_1
                0x0000000007001ab8                bob_dl_Cube_012_mesh_layer_1
                0x0000000007001af8                bob_dl_Cube_011_mesh_layer_1
                0x0000000007001b38                bob_dl_Cube_010_mesh_layer_1
                0x0000000007001b78                bob_dl_Cube_009_mesh_layer_1
                0x0000000007001bb8                bob_dl_Cube_008_mesh_layer_1
                0x0000000007001bf8                bob_dl_Cube_007_mesh_layer_1
                0x0000000007001c38                bob_dl_Cube_006_mesh_layer_1
                0x0000000007001c78                bob_dl_Cube_005_mesh_layer_1
                0x0000000007001cb8                bob_dl_Cube_004_mesh_layer_1
                0x0000000007001cf8                bob_dl_Cube_003_mesh_layer_1
                0x0000000007001d38                bob_dl_Cube_002_mesh_layer_1
                0x0000000007001d78                bob_dl_Cube_001_mesh_layer_1
                0x0000000007001db8                bob_dl_black_001_mesh_layer_1
                0x0000000007001df8                bob_dl_black_mesh_layer_1
                0x0000000007001e38                mat_revert_bob_dl_light
                0x0000000007001e60                mat_bob_dl_light
                0x0000000007001f00                mat_revert_bob_dl_grate
                0x0000000007001f28                mat_bob_dl_grate
                0x0000000007001fc0                mat_revert_bob_dl_circle
                0x0000000007001fe8                mat_bob_dl_circle
                0x0000000007002080                mat_revert_bob_dl_stone_stars
                0x00000000070020a0                mat_bob_dl_stone_stars
                0x0000000007002130                mat_revert_bob_dl_death
                0x0000000007002148                mat_bob_dl_death
                0x0000000007002190                mat_revert_bob_dl_grey_diamond
                0x00000000070021b0                mat_bob_dl_grey_diamond
                0x0000000007002240                mat_revert_bob_dl_white_bevel
                0x0000000007002268                mat_bob_dl_white_bevel
                0x0000000007002300                mat_revert_bob_dl_metal_1
                0x0000000007002320                mat_bob_dl_metal_1
                0x00000000070023b0                mat_revert_bob_dl_gold
                0x00000000070023d0                mat_bob_dl_gold
                0x0000000007002460                mat_revert_bob_dl_slab
                0x0000000007002480                mat_bob_dl_slab
                0x0000000007002510                mat_revert_bob_dl_dirt_with_grass
                0x0000000007002530                mat_bob_dl_dirt_with_grass
                0x00000000070025c0                mat_revert_bob_dl_dirt2
                0x00000000070025e0                mat_bob_dl_dirt2
                0x0000000007002670                mat_revert_bob_dl_dirt
                0x0000000007002690                mat_bob_dl_dirt
                0x0000000007002720                mat_revert_bob_dl_grass
                0x0000000007002740                mat_bob_dl_grass
                0x00000000070027d0                mat_revert_bob_dl_bricks
                0x00000000070027f0                mat_bob_dl_bricks
                0x0000000007002880                mat_revert_bob_dl_swirl_slippery
                0x00000000070028a0                mat_bob_dl_swirl_slippery
                0x0000000007002930                mat_revert_bob_dl_swirl_001
                0x0000000007002950                mat_bob_dl_swirl_001
                0x00000000070029e0                mat_revert_bob_dl_grey_checker
                0x0000000007002a00                mat_bob_dl_grey_checker
                0x0000000007002a90                mat_revert_bob_dl_swirl
                0x0000000007002ab0                mat_bob_dl_swirl
                0x0000000007002b40                mat_revert_bob_dl_black
                0x0000000007002b58                mat_bob_dl_black
                0x0000000007002ba0                bob_dl_skylight_mesh_layer_5_tri_0
                0x0000000007002be0                bob_dl_skylight_mesh_layer_5_vtx_0
                0x0000000007002d60                bob_dl_skylight_mesh_layer_5_vtx_cull
                0x0000000007002de0                bob_dl_render_087_mesh_layer_1_tri_0
                0x0000000007002e20                bob_dl_render_087_mesh_layer_1_vtx_0
                0x0000000007002fa0                bob_dl_render_087_mesh_layer_1_vtx_cull
                0x0000000007003020                bob_dl_render_086_mesh_layer_1_tri_0
                0x0000000007003088                bob_dl_render_086_mesh_layer_1_vtx_0
                0x0000000007003308                bob_dl_render_086_mesh_layer_1_vtx_cull
                0x0000000007003388                bob_dl_render_085_mesh_layer_1_tri_0
                0x00000000070033f0                bob_dl_render_085_mesh_layer_1_vtx_0
                0x0000000007003670                bob_dl_render_085_mesh_layer_1_vtx_cull
                0x00000000070036f0                bob_dl_render_084_mesh_layer_1_tri_0
                0x0000000007003730                bob_dl_render_084_mesh_layer_1_vtx_0
                0x00000000070038b0                bob_dl_render_084_mesh_layer_1_vtx_cull
                0x0000000007003930                bob_dl_render_083_mesh_layer_1_tri_0
                0x0000000007003a00                bob_dl_render_083_mesh_layer_1_vtx_0
                0x0000000007003eb0                bob_dl_render_083_mesh_layer_1_vtx_cull
                0x0000000007003f30                bob_dl_render_082_mesh_layer_1_tri_0
                0x0000000007003f70                bob_dl_render_082_mesh_layer_1_vtx_0
                0x00000000070040f0                bob_dl_render_082_mesh_layer_1_vtx_cull
                0x0000000007004170                bob_dl_render_081_mesh_layer_1_tri_0
                0x00000000070041d8                bob_dl_render_081_mesh_layer_1_vtx_0
                0x0000000007004458                bob_dl_render_081_mesh_layer_1_vtx_cull
                0x00000000070044d8                bob_dl_render_080_mesh_layer_1_tri_0
                0x0000000007004540                bob_dl_render_080_mesh_layer_1_vtx_0
                0x00000000070047c0                bob_dl_render_080_mesh_layer_1_vtx_cull
                0x0000000007004840                bob_dl_render_079_mesh_layer_1_tri_0
                0x0000000007004880                bob_dl_render_079_mesh_layer_1_vtx_0
                0x0000000007004a00                bob_dl_render_079_mesh_layer_1_vtx_cull
                0x0000000007004a80                bob_dl_render_078_mesh_layer_1_tri_1
                0x0000000007004ac0                bob_dl_render_078_mesh_layer_1_vtx_1
                0x0000000007004c20                bob_dl_render_078_mesh_layer_1_tri_0
                0x0000000007004c50                bob_dl_render_078_mesh_layer_1_vtx_0
                0x0000000007004cd0                bob_dl_render_078_mesh_layer_1_vtx_cull
                0x0000000007004d50                bob_dl_render_075_mesh_layer_1_tri_0
                0x0000000007004d88                bob_dl_render_075_mesh_layer_1_vtx_0
                0x0000000007004ec8                bob_dl_render_075_mesh_layer_1_vtx_cull
                0x0000000007004f48                bob_dl_render_074_mesh_layer_1_tri_0
                0x0000000007004f80                bob_dl_render_074_mesh_layer_1_vtx_0
                0x00000000070050c0                bob_dl_render_074_mesh_layer_1_vtx_cull
                0x0000000007005140                bob_dl_render_073_mesh_layer_1_tri_0
                0x00000000070051e8                bob_dl_render_073_mesh_layer_1_vtx_0
                0x00000000070055c8                bob_dl_render_073_mesh_layer_1_vtx_cull
                0x0000000007005648                bob_dl_render_072_mesh_layer_1_tri_0
                0x0000000007005688                bob_dl_render_072_mesh_layer_1_vtx_0
                0x0000000007005808                bob_dl_render_072_mesh_layer_1_vtx_cull
                0x0000000007005888                bob_dl_render_071_mesh_layer_1_tri_0
                0x00000000070058c8                bob_dl_render_071_mesh_layer_1_vtx_0
                0x0000000007005a48                bob_dl_render_071_mesh_layer_1_vtx_cull
                0x0000000007005ac8                bob_dl_render_070_mesh_layer_1_tri_0
                0x0000000007005b10                bob_dl_render_070_mesh_layer_1_vtx_0
                0x0000000007005c90                bob_dl_render_070_mesh_layer_1_vtx_cull
                0x0000000007005d10                bob_dl_render_069_mesh_layer_1_tri_0
                0x0000000007005d50                bob_dl_render_069_mesh_layer_1_vtx_0
                0x0000000007005ed0                bob_dl_render_069_mesh_layer_1_vtx_cull
                0x0000000007005f50                bob_dl_render_068_mesh_layer_1_tri_1
                0x0000000007005fc0                bob_dl_render_068_mesh_layer_1_vtx_1
                0x00000000070061c0                bob_dl_render_068_mesh_layer_1_tri_0
                0x00000000070061f0                bob_dl_render_068_mesh_layer_1_vtx_0
                0x00000000070062f0                bob_dl_render_068_mesh_layer_1_vtx_cull
                0x0000000007006370                bob_dl_render_067_mesh_layer_1_tri_0
                0x0000000007006410                bob_dl_render_067_mesh_layer_1_vtx_0
                0x0000000007006750                bob_dl_render_067_mesh_layer_1_vtx_cull
                0x00000000070067d0                bob_dl_render_066_mesh_layer_1_tri_0
                0x0000000007006810                bob_dl_render_066_mesh_layer_1_vtx_0
                0x0000000007006990                bob_dl_render_066_mesh_layer_1_vtx_cull
                0x0000000007006a10                bob_dl_render_065_mesh_layer_1_tri_0
                0x0000000007006a50                bob_dl_render_065_mesh_layer_1_vtx_0
                0x0000000007006bd0                bob_dl_render_065_mesh_layer_1_vtx_cull
                0x0000000007006c50                bob_dl_render_064_mesh_layer_4_tri_0
                0x0000000007006cb0                bob_dl_render_064_mesh_layer_4_vtx_0
                0x0000000007006e60                bob_dl_render_064_mesh_layer_4_vtx_cull
                0x0000000007006ee0                bob_dl_render_064_mesh_layer_1_tri_0
                0x0000000007006ef8                bob_dl_render_064_mesh_layer_1_vtx_0
                0x0000000007006f28                bob_dl_render_064_mesh_layer_1_vtx_cull
                0x0000000007006fa8                bob_dl_render_063_mesh_layer_1_tri_0
                0x0000000007007000                bob_dl_render_063_mesh_layer_1_vtx_0
                0x00000000070071c0                bob_dl_render_063_mesh_layer_1_vtx_cull
                0x0000000007007240                bob_dl_render_063_mesh_layer_4_tri_0
                0x0000000007007258                bob_dl_render_063_mesh_layer_4_vtx_0
                0x0000000007007298                bob_dl_render_063_mesh_layer_4_vtx_cull
                0x0000000007007318                bob_dl_render_062_mesh_layer_1_tri_0
                0x00000000070073f8                bob_dl_render_062_mesh_layer_1_vtx_0
                0x00000000070078a8                bob_dl_render_062_mesh_layer_1_vtx_cull
                0x0000000007007928                bob_dl_render_061_mesh_layer_1_tri_1
                0x0000000007007978                bob_dl_render_061_mesh_layer_1_vtx_1
                0x0000000007007b38                bob_dl_render_061_mesh_layer_1_tri_0
                0x0000000007007b58                bob_dl_render_061_mesh_layer_1_vtx_0
                0x0000000007007bb8                bob_dl_render_061_mesh_layer_1_vtx_cull
                0x0000000007007c38                bob_dl_render_058_mesh_layer_1_tri_0
                0x0000000007007c90                bob_dl_render_058_mesh_layer_1_vtx_0
                0x0000000007007e50                bob_dl_render_058_mesh_layer_1_vtx_cull
                0x0000000007007ed0                bob_dl_render_058_mesh_layer_4_tri_0
                0x0000000007007ee8                bob_dl_render_058_mesh_layer_4_vtx_0
                0x0000000007007f28                bob_dl_render_058_mesh_layer_4_vtx_cull
                0x0000000007007fa8                bob_dl_render_056_mesh_layer_1_tri_0
                0x0000000007007fe8                bob_dl_render_056_mesh_layer_1_vtx_0
                0x0000000007008168                bob_dl_render_056_mesh_layer_1_vtx_cull
                0x00000000070081e8                bob_dl_render_055_mesh_layer_1_tri_0
                0x0000000007008240                bob_dl_render_055_mesh_layer_1_vtx_0
                0x0000000007008400                bob_dl_render_055_mesh_layer_1_vtx_cull
                0x0000000007008480                bob_dl_render_055_mesh_layer_4_tri_0
                0x0000000007008498                bob_dl_render_055_mesh_layer_4_vtx_0
                0x00000000070084d8                bob_dl_render_055_mesh_layer_4_vtx_cull
                0x0000000007008558                bob_dl_render_054_mesh_layer_1_tri_0
                0x0000000007008598                bob_dl_render_054_mesh_layer_1_vtx_0
                0x0000000007008718                bob_dl_render_054_mesh_layer_1_vtx_cull
                0x0000000007008798                bob_dl_render_053_mesh_layer_1_tri_1
                0x0000000007008830                bob_dl_render_053_mesh_layer_1_vtx_1
                0x0000000007008bb0                bob_dl_render_053_mesh_layer_1_tri_0
                0x0000000007008be0                bob_dl_render_053_mesh_layer_1_vtx_0
                0x0000000007008c80                bob_dl_render_053_mesh_layer_1_vtx_cull
                0x0000000007008d00                bob_dl_render_051_mesh_layer_1_tri_0
                0x0000000007008d40                bob_dl_render_051_mesh_layer_1_vtx_0
                0x0000000007008ec0                bob_dl_render_051_mesh_layer_1_vtx_cull
                0x0000000007008f40                bob_dl_render_050_mesh_layer_1_tri_1
                0x0000000007009040                bob_dl_render_050_mesh_layer_1_vtx_1
                0x00000000070094b0                bob_dl_render_050_mesh_layer_1_tri_0
                0x0000000007009868                bob_dl_render_050_mesh_layer_1_vtx_0
                0x000000000700b158                bob_dl_render_050_mesh_layer_1_vtx_cull
                0x000000000700b1d8                bob_dl_render_049_mesh_layer_1_tri_0
                0x000000000700b2a8                bob_dl_render_049_mesh_layer_1_vtx_0
                0x000000000700b758                bob_dl_render_049_mesh_layer_1_vtx_cull
                0x000000000700b7d8                bob_dl_render_048_mesh_layer_1_tri_0
                0x000000000700b8f8                bob_dl_render_048_mesh_layer_1_vtx_0
                0x000000000700bef8                bob_dl_render_048_mesh_layer_1_vtx_cull
                0x000000000700bf78                bob_dl_render_047_mesh_layer_1_tri_0
                0x000000000700bfa0                bob_dl_render_047_mesh_layer_1_vtx_0
                0x000000000700c020                bob_dl_render_047_mesh_layer_1_vtx_cull
                0x000000000700c0a0                bob_dl_render_046_mesh_layer_1_tri_0
                0x000000000700c1c0                bob_dl_render_046_mesh_layer_1_vtx_0
                0x000000000700c7c0                bob_dl_render_046_mesh_layer_1_vtx_cull
                0x000000000700c840                bob_dl_render_045_mesh_layer_1_tri_0
                0x000000000700c868                bob_dl_render_045_mesh_layer_1_vtx_0
                0x000000000700c8e8                bob_dl_render_045_mesh_layer_1_vtx_cull
                0x000000000700c968                bob_dl_render_044_mesh_layer_1_tri_2
                0x000000000700c980                bob_dl_render_044_mesh_layer_1_vtx_2
                0x000000000700c9c0                bob_dl_render_044_mesh_layer_1_tri_1
                0x000000000700c9e0                bob_dl_render_044_mesh_layer_1_vtx_1
                0x000000000700ca60                bob_dl_render_044_mesh_layer_1_tri_0
                0x000000000700cb78                bob_dl_render_044_mesh_layer_1_vtx_0
                0x000000000700d0f8                bob_dl_render_044_mesh_layer_1_vtx_cull
                0x000000000700d178                bob_dl_render_043_mesh_layer_1_tri_0
                0x000000000700d490                bob_dl_render_043_mesh_layer_1_vtx_0
                0x000000000700e7a0                bob_dl_render_043_mesh_layer_1_vtx_cull
                0x000000000700e820                bob_dl_render_042_mesh_layer_1_tri_0
                0x000000000700eb38                bob_dl_render_042_mesh_layer_1_vtx_0
                0x000000000700fe48                bob_dl_render_042_mesh_layer_1_vtx_cull
                0x000000000700fec8                bob_dl_render_041_mesh_layer_1_tri_0
                0x00000000070101e0                bob_dl_render_041_mesh_layer_1_vtx_0
                0x00000000070114f0                bob_dl_render_041_mesh_layer_1_vtx_cull
                0x0000000007011570                bob_dl_render_040_mesh_layer_1_tri_0
                0x00000000070115b0                bob_dl_render_040_mesh_layer_1_vtx_0
                0x0000000007011730                bob_dl_render_040_mesh_layer_1_vtx_cull
                0x00000000070117b0                bob_dl_render_039_mesh_layer_1_tri_0
                0x00000000070117f0                bob_dl_render_039_mesh_layer_1_vtx_0
                0x0000000007011970                bob_dl_render_039_mesh_layer_1_vtx_cull
                0x00000000070119f0                bob_dl_render_038_mesh_layer_1_tri_0
                0x0000000007011a98                bob_dl_render_038_mesh_layer_1_vtx_0
                0x0000000007011e68                bob_dl_render_038_mesh_layer_1_vtx_cull
                0x0000000007011ee8                bob_dl_render_037_mesh_layer_1_tri_0
                0x0000000007011f28                bob_dl_render_037_mesh_layer_1_vtx_0
                0x00000000070120a8                bob_dl_render_037_mesh_layer_1_vtx_cull
                0x0000000007012128                bob_dl_render_036_mesh_layer_1_tri_0
                0x0000000007012440                bob_dl_render_036_mesh_layer_1_vtx_0
                0x0000000007013750                bob_dl_render_036_mesh_layer_1_vtx_cull
                0x00000000070137d0                bob_dl_render_035_mesh_layer_1_tri_0
                0x0000000007013ae8                bob_dl_render_035_mesh_layer_1_vtx_0
                0x0000000007014df8                bob_dl_render_035_mesh_layer_1_vtx_cull
                0x0000000007014e78                bob_dl_render_034_mesh_layer_1_tri_0
                0x0000000007014eb8                bob_dl_render_034_mesh_layer_1_vtx_0
                0x0000000007015038                bob_dl_render_034_mesh_layer_1_vtx_cull
                0x00000000070150b8                bob_dl_render_033_mesh_layer_1_tri_0
                0x0000000007015120                bob_dl_render_033_mesh_layer_1_vtx_0
                0x00000000070153a0                bob_dl_render_033_mesh_layer_1_vtx_cull
                0x0000000007015420                bob_dl_render_032_mesh_layer_1_tri_0
                0x0000000007015738                bob_dl_render_032_mesh_layer_1_vtx_0
                0x0000000007016a48                bob_dl_render_032_mesh_layer_1_vtx_cull
                0x0000000007016ac8                bob_dl_render_031_mesh_layer_1_tri_0
                0x0000000007016b08                bob_dl_render_031_mesh_layer_1_vtx_0
                0x0000000007016c88                bob_dl_render_031_mesh_layer_1_vtx_cull
                0x0000000007016d08                bob_dl_render_030_mesh_layer_1_tri_0
                0x0000000007016d48                bob_dl_render_030_mesh_layer_1_vtx_0
                0x0000000007016ec8                bob_dl_render_030_mesh_layer_1_vtx_cull
                0x0000000007016f48                bob_dl_render_029_mesh_layer_1_tri_0
                0x0000000007016fb0                bob_dl_render_029_mesh_layer_1_vtx_0
                0x0000000007017230                bob_dl_render_029_mesh_layer_1_vtx_cull
                0x00000000070172b0                bob_dl_render_028_mesh_layer_1_tri_0
                0x00000000070172f0                bob_dl_render_028_mesh_layer_1_vtx_0
                0x0000000007017470                bob_dl_render_028_mesh_layer_1_vtx_cull
                0x00000000070174f0                bob_dl_render_027_mesh_layer_1_tri_0
                0x0000000007017530                bob_dl_render_027_mesh_layer_1_vtx_0
                0x00000000070176b0                bob_dl_render_027_mesh_layer_1_vtx_cull
                0x0000000007017730                bob_dl_render_026_mesh_layer_1_tri_0
                0x0000000007017800                bob_dl_render_026_mesh_layer_1_vtx_0
                0x0000000007017cb0                bob_dl_render_026_mesh_layer_1_vtx_cull
                0x0000000007017d30                bob_dl_render_025_mesh_layer_1_tri_0
                0x0000000007017e50                bob_dl_render_025_mesh_layer_1_vtx_0
                0x0000000007018450                bob_dl_render_025_mesh_layer_1_vtx_cull
                0x00000000070184d0                bob_dl_render_024_mesh_layer_1_tri_0
                0x0000000007018510                bob_dl_render_024_mesh_layer_1_vtx_0
                0x0000000007018690                bob_dl_render_024_mesh_layer_1_vtx_cull
                0x0000000007018710                bob_dl_render_023_mesh_layer_1_tri_1
                0x0000000007018920                bob_dl_render_023_mesh_layer_1_vtx_1
                0x0000000007019430                bob_dl_render_023_mesh_layer_1_tri_0
                0x0000000007019798                bob_dl_render_023_mesh_layer_1_vtx_0
                0x000000000701ae28                bob_dl_render_023_mesh_layer_1_vtx_cull
                0x000000000701aea8                bob_dl_render_022_mesh_layer_1_tri_0
                0x000000000701aee8                bob_dl_render_022_mesh_layer_1_vtx_0
                0x000000000701b068                bob_dl_render_022_mesh_layer_1_vtx_cull
                0x000000000701b0e8                bob_dl_render_021_mesh_layer_1_tri_0
                0x000000000701b110                bob_dl_render_021_mesh_layer_1_vtx_0
                0x000000000701b190                bob_dl_render_021_mesh_layer_1_vtx_cull
                0x000000000701b210                bob_dl_render_020_mesh_layer_1_tri_0
                0x000000000701b250                bob_dl_render_020_mesh_layer_1_vtx_0
                0x000000000701b3d0                bob_dl_render_020_mesh_layer_1_vtx_cull
                0x000000000701b450                bob_dl_render_019_mesh_layer_1_tri_0
                0x000000000701b490                bob_dl_render_019_mesh_layer_1_vtx_0
                0x000000000701b610                bob_dl_render_019_mesh_layer_1_vtx_cull
                0x000000000701b690                bob_dl_render_018_mesh_layer_1_tri_0
                0x000000000701b6f8                bob_dl_render_018_mesh_layer_1_vtx_0
                0x000000000701b978                bob_dl_render_018_mesh_layer_1_vtx_cull
                0x000000000701b9f8                bob_dl_render_017_mesh_layer_1_tri_0
                0x000000000701ba60                bob_dl_render_017_mesh_layer_1_vtx_0
                0x000000000701bce0                bob_dl_render_017_mesh_layer_1_vtx_cull
                0x000000000701bd60                bob_dl_render_016_mesh_layer_1_tri_0
                0x000000000701bda0                bob_dl_render_016_mesh_layer_1_vtx_0
                0x000000000701bf20                bob_dl_render_016_mesh_layer_1_vtx_cull
                0x000000000701bfa0                bob_dl_render_015_mesh_layer_1_tri_0
                0x000000000701c070                bob_dl_render_015_mesh_layer_1_vtx_0
                0x000000000701c520                bob_dl_render_015_mesh_layer_1_vtx_cull
                0x000000000701c5a0                bob_dl_render_014_mesh_layer_1_tri_0
                0x000000000701c5e0                bob_dl_render_014_mesh_layer_1_vtx_0
                0x000000000701c760                bob_dl_render_014_mesh_layer_1_vtx_cull
                0x000000000701c7e0                bob_dl_render_013_mesh_layer_1_tri_0
                0x000000000701c848                bob_dl_render_013_mesh_layer_1_vtx_0
                0x000000000701cac8                bob_dl_render_013_mesh_layer_1_vtx_cull
                0x000000000701cb48                bob_dl_render_012_mesh_layer_1_tri_0
                0x000000000701cbb0                bob_dl_render_012_mesh_layer_1_vtx_0
                0x000000000701ce30                bob_dl_render_012_mesh_layer_1_vtx_cull
                0x000000000701ceb0                bob_dl_render_011_mesh_layer_1_tri_0
                0x000000000701cef0                bob_dl_render_011_mesh_layer_1_vtx_0
                0x000000000701d070                bob_dl_render_011_mesh_layer_1_vtx_cull
                0x000000000701d0f0                bob_dl_render_010_mesh_layer_1_tri_0
                0x000000000701d1c0                bob_dl_render_010_mesh_layer_1_vtx_0
                0x000000000701d670                bob_dl_render_010_mesh_layer_1_vtx_cull
                0x000000000701d6f0                bob_dl_render_008_mesh_layer_1_tri_0
                0x000000000701ec50                bob_dl_render_008_mesh_layer_1_vtx_0
                0x000000000702c0f0                bob_dl_render_008_mesh_layer_1_vtx_cull
                0x000000000702c170                bob_dl_render_007_mesh_layer_1_tri_0
                0x000000000702c508                bob_dl_render_007_mesh_layer_1_vtx_0
                0x000000000702e868                bob_dl_render_007_mesh_layer_1_vtx_cull
                0x000000000702e8e8                bob_dl_render_002_mesh_layer_1_tri_0
                0x000000000702e968                bob_dl_render_002_mesh_layer_1_vtx_0
                0x000000000702ec68                bob_dl_render_002_mesh_layer_1_vtx_cull
                0x000000000702ece8                bob_dl_render_001_mesh_layer_1_tri_0
                0x000000000702ed38                bob_dl_render_001_mesh_layer_1_vtx_0
                0x000000000702ef18                bob_dl_render_001_mesh_layer_1_vtx_cull
                0x000000000702ef98                bob_dl_render_mesh_layer_1_tri_0
                0x000000000702f0c8                bob_dl_render_mesh_layer_1_vtx_0
                0x000000000702f908                bob_dl_render_mesh_layer_1_vtx_cull
                0x000000000702f988                bob_dl_owl_crest_001_mesh_layer_4_tri_0
                0x000000000702fa68                bob_dl_owl_crest_001_mesh_layer_4_vtx_0
                0x000000000702fe88                bob_dl_owl_crest_001_mesh_layer_4_vtx_cull
                0x000000000702ff08                bob_dl_owl_crest_001_mesh_layer_1_tri_1
                0x000000000702ffe8                bob_dl_owl_crest_001_mesh_layer_1_vtx_1
                0x0000000007030408                bob_dl_owl_crest_001_mesh_layer_1_tri_0
                0x00000000070304b8                bob_dl_owl_crest_001_mesh_layer_1_vtx_0
                0x0000000007030938                bob_dl_owl_crest_001_mesh_layer_1_vtx_cull
                0x00000000070309b8                bob_dl_Mesh_Owl_001_mesh_layer_1_tri_0
                0x0000000007031180                bob_dl_Mesh_Owl_001_mesh_layer_1_vtx_0
                0x00000000070346c0                bob_dl_Mesh_Owl_001_mesh_layer_1_vtx_cull
                0x0000000007034740                bob_dl_Mesh_Owl_mesh_layer_1_tri_0
                0x0000000007034f08                bob_dl_Mesh_Owl_mesh_layer_1_vtx_0
                0x0000000007038448                bob_dl_Mesh_Owl_mesh_layer_1_vtx_cull
                0x00000000070384c8                bob_dl_Icosphere_012_mesh_layer_1_tri_3
                0x0000000007038510                bob_dl_Icosphere_012_mesh_layer_1_vtx_3
                0x0000000007038660                bob_dl_Icosphere_012_mesh_layer_1_tri_2
                0x00000000070386b8                bob_dl_Icosphere_012_mesh_layer_1_vtx_2
                0x0000000007038888                bob_dl_Icosphere_012_mesh_layer_1_tri_1
                0x0000000007038a50                bob_dl_Icosphere_012_mesh_layer_1_vtx_1
                0x0000000007039610                bob_dl_Icosphere_012_mesh_layer_1_tri_0
                0x0000000007039c28                bob_dl_Icosphere_012_mesh_layer_1_vtx_0
                0x000000000703d868                bob_dl_Icosphere_012_mesh_layer_1_vtx_cull
                0x000000000703d8e8                bob_dl_Icosphere_011_mesh_layer_1_tri_3
                0x000000000703d930                bob_dl_Icosphere_011_mesh_layer_1_vtx_3
                0x000000000703da80                bob_dl_Icosphere_011_mesh_layer_1_tri_2
                0x000000000703dad8                bob_dl_Icosphere_011_mesh_layer_1_vtx_2
                0x000000000703dca8                bob_dl_Icosphere_011_mesh_layer_1_tri_1
                0x000000000703de70                bob_dl_Icosphere_011_mesh_layer_1_vtx_1
                0x000000000703ea30                bob_dl_Icosphere_011_mesh_layer_1_tri_0
                0x000000000703f048                bob_dl_Icosphere_011_mesh_layer_1_vtx_0
                0x0000000007042c88                bob_dl_Icosphere_011_mesh_layer_1_vtx_cull
                0x0000000007042d08                bob_dl_Icosphere_009_mesh_layer_1_tri_3
                0x0000000007042d50                bob_dl_Icosphere_009_mesh_layer_1_vtx_3
                0x0000000007042ea0                bob_dl_Icosphere_009_mesh_layer_1_tri_2
                0x0000000007042ef8                bob_dl_Icosphere_009_mesh_layer_1_vtx_2
                0x00000000070430c8                bob_dl_Icosphere_009_mesh_layer_1_tri_1
                0x0000000007043290                bob_dl_Icosphere_009_mesh_layer_1_vtx_1
                0x0000000007043e50                bob_dl_Icosphere_009_mesh_layer_1_tri_0
                0x0000000007044468                bob_dl_Icosphere_009_mesh_layer_1_vtx_0
                0x00000000070480a8                bob_dl_Icosphere_009_mesh_layer_1_vtx_cull
                0x0000000007048128                bob_dl_Icosphere_007_mesh_layer_1_tri_3
                0x0000000007048170                bob_dl_Icosphere_007_mesh_layer_1_vtx_3
                0x00000000070482c0                bob_dl_Icosphere_007_mesh_layer_1_tri_2
                0x0000000007048318                bob_dl_Icosphere_007_mesh_layer_1_vtx_2
                0x00000000070484e8                bob_dl_Icosphere_007_mesh_layer_1_tri_1
                0x00000000070486b0                bob_dl_Icosphere_007_mesh_layer_1_vtx_1
                0x0000000007049270                bob_dl_Icosphere_007_mesh_layer_1_tri_0
                0x0000000007049888                bob_dl_Icosphere_007_mesh_layer_1_vtx_0
                0x000000000704d4c8                bob_dl_Icosphere_007_mesh_layer_1_vtx_cull
                0x000000000704d548                bob_dl_Cube_033_mesh_layer_1_tri_0
                0x000000000704d588                bob_dl_Cube_033_mesh_layer_1_vtx_0
                0x000000000704d708                bob_dl_Cube_033_mesh_layer_1_vtx_cull
                0x000000000704d788                bob_dl_Cube_028_mesh_layer_1_tri_0
                0x000000000704d868                bob_dl_Cube_028_mesh_layer_1_vtx_0
                0x000000000704dc88                bob_dl_Cube_028_mesh_layer_1_vtx_cull
                0x000000000704dd08                bob_dl_Cube_018_mesh_layer_1_tri_0
                0x000000000704dda0                bob_dl_Cube_018_mesh_layer_1_vtx_0
                0x000000000704e0a0                bob_dl_Cube_018_mesh_layer_1_vtx_cull
                0x000000000704e120                bob_dl_Cube_016_mesh_layer_1_tri_0
                0x000000000704e270                bob_dl_Cube_016_mesh_layer_1_vtx_0
                0x000000000704ea90                bob_dl_Cube_016_mesh_layer_1_vtx_cull
                0x000000000704eb10                bob_dl_Cube_015_mesh_layer_1_tri_0
                0x000000000704ec60                bob_dl_Cube_015_mesh_layer_1_vtx_0
                0x000000000704f480                bob_dl_Cube_015_mesh_layer_1_vtx_cull
                0x000000000704f500                bob_dl_Cube_014_mesh_layer_1_tri_0
                0x000000000704f650                bob_dl_Cube_014_mesh_layer_1_vtx_0
                0x000000000704fe70                bob_dl_Cube_014_mesh_layer_1_vtx_cull
                0x000000000704fef0                bob_dl_Cube_012_mesh_layer_1_tri_0
                0x0000000007050040                bob_dl_Cube_012_mesh_layer_1_vtx_0
                0x0000000007050860                bob_dl_Cube_012_mesh_layer_1_vtx_cull
                0x00000000070508e0                bob_dl_Cube_011_mesh_layer_1_tri_0
                0x0000000007050a30                bob_dl_Cube_011_mesh_layer_1_vtx_0
                0x0000000007051250                bob_dl_Cube_011_mesh_layer_1_vtx_cull
                0x00000000070512d0                bob_dl_Cube_010_mesh_layer_1_tri_0
                0x0000000007051430                bob_dl_Cube_010_mesh_layer_1_vtx_0
                0x0000000007051c70                bob_dl_Cube_010_mesh_layer_1_vtx_cull
                0x0000000007051cf0                bob_dl_Cube_009_mesh_layer_1_tri_0
                0x0000000007051e50                bob_dl_Cube_009_mesh_layer_1_vtx_0
                0x0000000007052690                bob_dl_Cube_009_mesh_layer_1_vtx_cull
                0x0000000007052710                bob_dl_Cube_008_mesh_layer_1_tri_0
                0x0000000007052750                bob_dl_Cube_008_mesh_layer_1_vtx_0
                0x00000000070528d0                bob_dl_Cube_008_mesh_layer_1_vtx_cull
                0x0000000007052950                bob_dl_Cube_007_mesh_layer_1_tri_0
                0x0000000007052990                bob_dl_Cube_007_mesh_layer_1_vtx_0
                0x0000000007052b10                bob_dl_Cube_007_mesh_layer_1_vtx_cull
                0x0000000007052b90                bob_dl_Cube_006_mesh_layer_1_tri_0
                0x0000000007052bd0                bob_dl_Cube_006_mesh_layer_1_vtx_0
                0x0000000007052d50                bob_dl_Cube_006_mesh_layer_1_vtx_cull
                0x0000000007052dd0                bob_dl_Cube_005_mesh_layer_1_tri_0
                0x0000000007052f30                bob_dl_Cube_005_mesh_layer_1_vtx_0
                0x0000000007053770                bob_dl_Cube_005_mesh_layer_1_vtx_cull
                0x00000000070537f0                bob_dl_Cube_004_mesh_layer_1_tri_0
                0x0000000007053878                bob_dl_Cube_004_mesh_layer_1_vtx_0
                0x0000000007053b98                bob_dl_Cube_004_mesh_layer_1_vtx_cull
                0x0000000007053c18                bob_dl_Cube_003_mesh_layer_1_tri_0
                0x0000000007053cc8                bob_dl_Cube_003_mesh_layer_1_vtx_0
                0x0000000007054148                bob_dl_Cube_003_mesh_layer_1_vtx_cull
                0x00000000070541c8                bob_dl_Cube_002_mesh_layer_1_tri_0
                0x0000000007054208                bob_dl_Cube_002_mesh_layer_1_vtx_0
                0x0000000007054388                bob_dl_Cube_002_mesh_layer_1_vtx_cull
                0x0000000007054408                bob_dl_Cube_001_mesh_layer_1_tri_0
                0x0000000007054448                bob_dl_Cube_001_mesh_layer_1_vtx_0
                0x00000000070545c8                bob_dl_Cube_001_mesh_layer_1_vtx_cull
                0x0000000007054648                bob_dl_black_001_mesh_layer_1_tri_0
                0x0000000007054688                bob_dl_black_001_mesh_layer_1_vtx_0
                0x0000000007054808                bob_dl_black_001_mesh_layer_1_vtx_cull
                0x0000000007054888                bob_dl_black_mesh_layer_1_tri_0
                0x00000000070548c8                bob_dl_black_mesh_layer_1_vtx_0
                0x0000000007054a48                bob_dl_black_mesh_layer_1_vtx_cull
                0x0000000007054ac8                bob_dl_light_pal_rgba16
                0x0000000007054ad0                bob_dl_light_pal_rgba16_aligner
                0x0000000007054ad8                bob_dl_light_ci4
                0x0000000007054cd8                bob_dl_light_ci4_aligner
                0x0000000007054ce0                bob_dl_grate_pal_rgba16
                0x0000000007054dc8                bob_dl_grate_pal_rgba16_aligner
                0x0000000007054dd0                bob_dl_grate_ci8
                0x00000000070551d0                bob_dl_grate_ci8_aligner
                0x00000000070551d8                bob_dl_circle_pal_rgba16
                0x00000000070551e0                bob_dl_circle_pal_rgba16_aligner
                0x00000000070551e8                bob_dl_circle_ci8
                0x00000000070555e8                bob_dl_circle_ci8_aligner
                0x00000000070555f0                bob_dl_star_pal_rgba16
                0x00000000070556d8                bob_dl_star_pal_rgba16_aligner
                0x00000000070556e0                bob_dl_star_ci8
                0x0000000007055ae0                bob_dl_star_ci8_aligner
                0x0000000007055ae8                bob_dl__1_pal_rgba16
                0x0000000007055b50                bob_dl__1_pal_rgba16_aligner
                0x0000000007055b58                bob_dl__1_ci8
                0x0000000007055f58                _::bob_dl(char, int, _aligner)
                0x0000000007055f60                bob_dl_ci4_anonmoose_whiteblock_pal_rgba16
                0x0000000007055f80                bob_dl_ci4_anonmoose_whiteblock_pal_rgba16_aligner
                0x0000000007055f88                bob_dl_ci4_anonmoose_whiteblock_ci4
                0x0000000007056788                bob_dl_ci4_anonmoose_whiteblock_ci4_aligner
                0x0000000007056790                bob_dl_ci4_sophie_metal2_pal_rgba16
                0x00000000070567b0                bob_dl_ci4_sophie_metal2_pal_rgba16_aligner
                0x00000000070567b8                bob_dl_ci4_sophie_metal2_ci4
                0x0000000007056fb8                bob_dl_ci4_sophie_metal2_ci4_aligner
                0x0000000007056fc0                bob_dl_rgba16_anonmoose_envmap_gold1_pal_rgba16
                0x0000000007057130                bob_dl_rgba16_anonmoose_envmap_gold1_pal_rgba16_aligner
                0x0000000007057138                bob_dl_rgba16_anonmoose_envmap_gold1_ci8
                0x0000000007057538                bob_dl_rgba16_anonmoose_envmap_gold1_ci8_aligner
                0x0000000007057540                bob_dl_slab_pal_rgba16
                0x0000000007057578                bob_dl_slab_pal_rgba16_aligner
                0x0000000007057580                bob_dl_slab_ci8
                0x0000000007057980                bob_dl_slab_ci8_aligner
                0x0000000007057988                bob_dl__6_pal_rgba16
                0x0000000007057b70                bob_dl__6_pal_rgba16_aligner
                0x0000000007057b78                bob_dl__6_ci8
                0x0000000007057f78                bob_dl__6_ci8_aligner
                0x0000000007057f80                bob_dl__0_pal_rgba16
                0x00000000070580b0                bob_dl__0_pal_rgba16_aligner
                0x00000000070580b8                bob_dl__0_ci8
                0x00000000070584b8                bob_dl__0_ci8_aligner
                0x00000000070584c0                bob_dl_ci4_anonmoose_Dirt1_pal_rgba16
                0x00000000070584f8                bob_dl_ci4_anonmoose_Dirt1_pal_rgba16_aligner
                0x0000000007058500                bob_dl_ci4_anonmoose_Dirt1_ci8
                0x0000000007058900                bob_dl_ci4_anonmoose_Dirt1_ci8_aligner
                0x0000000007058908                bob_dl__12_pal_rgba16
                0x0000000007058970                bob_dl__12_pal_rgba16_aligner
                0x0000000007058978                bob_dl__12_ci8
                0x0000000007058d78                _ci8_aligner::bob_dl(void)
                0x0000000007058d80                bob_dl__7_pal_rgba16
                0x0000000007058e40                bob_dl__7_pal_rgba16_aligner
                0x0000000007058e48                bob_dl__7_ci8
                0x0000000007059248                bob_dl__7_ci8_aligner
                0x0000000007059250                bob_dl_rgba16_anonmoose_swirl1_pal_rgba16_copy
                0x00000000070592a0                bob_dl_rgba16_anonmoose_swirl1_pal_rgba16_copy_aligner
                0x00000000070592a8                bob_dl_rgba16_anonmoose_swirl1_ci8_copy
                0x00000000070596a8                bob_dl_rgba16_anonmoose_swirl1_ci8_copy_aligner
                0x00000000070596b0                bob_dl_ci4_anonmoose_Tiles1_pal_rgba16
                0x00000000070596d0                bob_dl_ci4_anonmoose_Tiles1_pal_rgba16_aligner
                0x00000000070596d8                bob_dl_ci4_anonmoose_Tiles1_ci4
                0x0000000007059ed8                bob_dl_ci4_anonmoose_Tiles1_ci4_aligner
                0x0000000007059ee0                bob_dl_rgba16_anonmoose_swirl1_pal_rgba16
                0x0000000007059f30                bob_dl_rgba16_anonmoose_swirl1_pal_rgba16_aligner
                0x0000000007059f38                bob_dl_rgba16_anonmoose_swirl1_ci8
                0x000000000705a338                bob_dl_rgba16_anonmoose_swirl1_ci8_aligner
                0x000000000705a340                bob_area_1_macro_objs
                0x000000000705a344                bob_area_1_collision
                0x000000000706f910                bob_seg7_trajectory_koopa
                0x000000000706fa34                bob_seg7_metal_ball_path1
                0x000000000706fb10                bob_seg7_metal_ball_path0
                0x000000000706fba4                bob_seg7_collision_gate
                0x000000000706fc7c                bob_seg7_collision_bridge
                0x000000000706fd18                bob_seg7_collision_chain_chomp_gate
                0x000000000706fd4c                bob_seg7_macro_objs
                0x00000000070700c0                bob_seg7_collision_level
                0x0000000007073000                bob_seg7_dl_0700E8A0
                0x0000000007073140                bob_seg7_dl_0700E768
                0x0000000007073408                bob_seg7_dl_0700E458
                0x0000000007073530                bob_seg7_dl_0700E338
                0x0000000007073a60                bob_seg7_dl_0700DD18
                0x0000000007076968                bob_seg7_dl_0700A920
                0x0000000007076e10                bob_seg7_dl_0700A470
                0x00000000070773e0                bob_seg7_dl_07009D80
                0x000000000707c750                bob_seg7_dl_07004390

.data1
 *(.data1)

.got.plt
 *(.got.plt)
                0x0000000007080918                . = .
                0x0000000007080918                . = .
                0x0000000007088910                _gp = (ALIGN (0x10) + 0x7ff0)

.got
 *(.got)

.sdata
 *(.sdata .sdata.* .gnu.linkonce.s.*)

.lit8
 *(.lit8)

.lit4
 *(.lit4)
                0x0000000007080918                _edata = .
                [!provide]                        PROVIDE (edata = .)
                0x0000000007080918                . = .
                0x0000000007080918                __bss_start = .
                0x0000000007080918                _fbss = .

.sbss
 *(.dynsbss)
 *(.sbss .sbss.* .gnu.linkonce.sb.*)
 *(.scommon)

.bss            0x0000000007080918        0x0 load address 0x0000000007080930
 *(.dynbss)
 *(.bss .bss.* .gnu.linkonce.b.*)
 .bss           0x0000000007080918        0x0 build/us_n64/levels/bob/leveldata.o
 *(COMMON)
                0x0000000007080918                . = ALIGN ((. != 0x0)?0x4:0x1)
                0x0000000007080918                . = ALIGN (0x4)
                0x0000000007080918                . = SEGMENT_START ("ldata-segment", .)
                0x0000000007080918                . = ALIGN (0x4)
                0x0000000007080918                _end = .
                [!provide]                        PROVIDE (end = .)
                0x0000000007080918                . = DATA_SEGMENT_END (.)

.stab
 *(.stab)

.stabstr
 *(.stabstr)

.stab.excl
 *(.stab.excl)

.stab.exclstr
 *(.stab.exclstr)

.stab.index
 *(.stab.index)

.stab.indexstr
 *(.stab.indexstr)

.comment        0x0000000000000000       0x12
 *(.comment)
 .comment       0x0000000000000000       0x12 build/us_n64/levels/bob/leveldata.o
                                         0x13 (size before relaxing)

.pdr            0x0000000000000000        0x0
 .pdr           0x0000000000000000        0x0 build/us_n64/levels/bob/leveldata.o

.debug
 *(.debug)

.line
 *(.line)

.debug_srcinfo
 *(.debug_srcinfo)

.debug_sfnames
 *(.debug_sfnames)

.debug_aranges
 *(.debug_aranges)

.debug_pubnames
 *(.debug_pubnames)

.debug_info
 *(.debug_info .gnu.linkonce.wi.*)

.debug_abbrev
 *(.debug_abbrev)

.debug_line
 *(.debug_line .debug_line.* .debug_line_end)

.debug_frame
 *(.debug_frame)

.debug_str
 *(.debug_str)

.debug_loc
 *(.debug_loc)

.debug_macinfo
 *(.debug_macinfo)

.debug_weaknames
 *(.debug_weaknames)

.debug_funcnames
 *(.debug_funcnames)

.debug_typenames
 *(.debug_typenames)

.debug_varnames
 *(.debug_varnames)

.debug_pubtypes
 *(.debug_pubtypes)

.debug_ranges
 *(.debug_ranges)

.debug_macro
 *(.debug_macro)

.debug_addr
 *(.debug_addr)

.gnu.attributes
                0x0000000000000000       0x10
 *(.gnu.attributes)
 .gnu.attributes
                0x0000000000000000       0x10 build/us_n64/levels/bob/leveldata.o

.gptab.sdata
 *(.gptab.data)
 *(.gptab.sdata)

.gptab.sbss
 *(.gptab.bss)
 *(.gptab.sbss)

.mdebug.abi32   0x0000000000000000        0x0
 *(.mdebug.abi32)
 .mdebug.abi32  0x0000000000000000        0x0 build/us_n64/levels/bob/leveldata.o

.mdebug.abiN32
 *(.mdebug.abiN32)

.mdebug.abi64
 *(.mdebug.abi64)

.mdebug.abiO64
 *(.mdebug.abiO64)

.mdebug.eabi32
 *(.mdebug.eabi32)

.mdebug.eabi64
 *(.mdebug.eabi64)

.gcc_compiled_long32
 *(.gcc_compiled_long32)

.gcc_compiled_long64
 *(.gcc_compiled_long64)

/DISCARD/
 *(.note.GNU-stack)
 *(.gnu_debuglink)
 *(.gnu.lto_*)
OUTPUT(build/us_n64/levels/bob/leveldata.elf elf32-bigmips)
