
Memory Configuration

Name             Origin             Length             Attributes
*default*        0x0000000000000000 0xffffffffffffffff

Linker script and memory map

Address of section .text set to 0x7000000
LOAD build/us_n64/bin/generic.elf
LOAD build/us_n64/levels/bob/leveldata.o
                [!provide]                        PROVIDE (__executable_start = SEGMENT_START ("text-segment", 0x400000))
                0x0000000000400000                . = SEGMENT_START ("text-segment", 0x400000)

.interp
 *(.interp)

.MIPS.abiflags  0x0000000000400000       0x18
 *(.MIPS.abiflags)
 .MIPS.abiflags
                0x0000000000400000       0x18 build/us_n64/levels/bob/leveldata.o

.reginfo        0x0000000000400018       0x18
 *(.reginfo)
 .reginfo       0x0000000000400018       0x18 build/us_n64/levels/bob/leveldata.o

.note.gnu.build-id
 *(.note.gnu.build-id)

.dynamic
 *(.dynamic)

.hash
 *(.hash)

.gnu.hash
 *(.gnu.hash)

.dynsym
 *(.dynsym)

.dynstr
 *(.dynstr)

.gnu.version
 *(.gnu.version)

.gnu.version_d
 *(.gnu.version_d)

.gnu.version_r
 *(.gnu.version_r)

.rel.dyn        0x0000000000400018        0x0 load address 0x0000000000400030
 *(.rel.init)
 *(.rel.text .rel.text.* .rel.gnu.linkonce.t.*)
 *(.rel.fini)
 *(.rel.rodata .rel.rodata.* .rel.gnu.linkonce.r.*)
 *(.rel.data.rel.ro .rel.data.rel.ro.* .rel.gnu.linkonce.d.rel.ro.*)
 *(.rel.data .rel.data.* .rel.gnu.linkonce.d.*)
 *(.rel.tdata .rel.tdata.* .rel.gnu.linkonce.td.*)
 *(.rel.tbss .rel.tbss.* .rel.gnu.linkonce.tb.*)
 *(.rel.ctors)
 *(.rel.dtors)
 *(.rel.got)
 *(.rel.dyn)
 .rel.dyn       0x0000000000400018        0x0 build/us_n64/levels/bob/leveldata.o
 *(.rel.sdata .rel.sdata.* .rel.gnu.linkonce.s.*)
 *(.rel.sbss .rel.sbss.* .rel.gnu.linkonce.sb.*)
 *(.rel.sdata2 .rel.sdata2.* .rel.gnu.linkonce.s2.*)
 *(.rel.sbss2 .rel.sbss2.* .rel.gnu.linkonce.sb2.*)
 *(.rel.bss .rel.bss.* .rel.gnu.linkonce.b.*)
                [!provide]                        PROVIDE (__rel_iplt_start = .)
 *(.rel.iplt)
                [!provide]                        PROVIDE (__rel_iplt_end = .)

.rela.dyn       0x0000000000400018        0x0
 *(.rela.init)
 *(.rela.text .rela.text.* .rela.gnu.linkonce.t.*)
 *(.rela.fini)
 *(.rela.rodata .rela.rodata.* .rela.gnu.linkonce.r.*)
 *(.rela.data .rela.data.* .rela.gnu.linkonce.d.*)
 *(.rela.tdata .rela.tdata.* .rela.gnu.linkonce.td.*)
 *(.rela.tbss .rela.tbss.* .rela.gnu.linkonce.tb.*)
 *(.rela.ctors)
 *(.rela.dtors)
 *(.rela.got)
 *(.rela.sdata .rela.sdata.* .rela.gnu.linkonce.s.*)
 *(.rela.sbss .rela.sbss.* .rela.gnu.linkonce.sb.*)
 *(.rela.sdata2 .rela.sdata2.* .rela.gnu.linkonce.s2.*)
 *(.rela.sbss2 .rela.sbss2.* .rela.gnu.linkonce.sb2.*)
 *(.rela.bss .rela.bss.* .rela.gnu.linkonce.b.*)
                [!provide]                        PROVIDE (__rela_iplt_start = .)
 *(.rela.iplt)
                [!provide]                        PROVIDE (__rela_iplt_end = .)

.rel.plt
 *(.rel.plt)

.rela.plt
 *(.rela.plt)

.init
 *(SORT_NONE(.init))

.plt
 *(.plt)

.iplt
 *(.iplt)

.text           0x0000000007000000        0x0 load address 0x0000000007000018
                0x0000000007000000                _ftext = .
 *(.text.unlikely .text.*_unlikely .text.unlikely.*)
 *(.text.exit .text.exit.*)
 *(.text.startup .text.startup.*)
 *(.text.hot .text.hot.*)
 *(.text .stub .text.* .gnu.linkonce.t.*)
 .text          0x0000000007000000        0x0 build/us_n64/levels/bob/leveldata.o
 *(.gnu.warning)
 *(.mips16.fn.*)
 *(.mips16.call.*)

.fini
 *(SORT_NONE(.fini))
                [!provide]                        PROVIDE (__etext = .)
                [!provide]                        PROVIDE (_etext = .)
                [!provide]                        PROVIDE (etext = .)

.rodata
 *(.rodata .rodata.* .gnu.linkonce.r.*)

.rodata1
 *(.rodata1)

.sdata2
 *(.sdata2 .sdata2.* .gnu.linkonce.s2.*)

.sbss2
 *(.sbss2 .sbss2.* .gnu.linkonce.sb2.*)

.eh_frame_hdr
 *(.eh_frame_hdr)
 *(.eh_frame_entry .eh_frame_entry.*)

.eh_frame
 *(.eh_frame)
 *(.eh_frame.*)

.gcc_except_table
 *(.gcc_except_table .gcc_except_table.*)

.gnu_extab
 *(.gnu_extab*)

.exception_ranges
 *(.exception_ranges .exception_ranges*)
                0x0000000007000000                . = DATA_SEGMENT_ALIGN (CONSTANT (MAXPAGESIZE), CONSTANT (COMMONPAGESIZE))

.eh_frame
 *(.eh_frame)
 *(.eh_frame.*)

.gnu_extab
 *(.gnu_extab)

.gcc_except_table
 *(.gcc_except_table .gcc_except_table.*)

.exception_ranges
 *(.exception_ranges .exception_ranges*)

.tdata
 *(.tdata .tdata.* .gnu.linkonce.td.*)

.tbss
 *(.tbss .tbss.* .gnu.linkonce.tb.*)
 *(.tcommon)

.preinit_array  0x0000000007000000        0x0
                [!provide]                        PROVIDE (__preinit_array_start = .)
 *(.preinit_array)
                [!provide]                        PROVIDE (__preinit_array_end = .)

.init_array     0x0000000007000000        0x0
                [!provide]                        PROVIDE (__init_array_start = .)
 *(SORT_BY_INIT_PRIORITY(.init_array.*) SORT_BY_INIT_PRIORITY(.ctors.*))
 *(.init_array EXCLUDE_FILE(*crtend?.o *crtend.o *crtbegin?.o *crtbegin.o) .ctors)
                [!provide]                        PROVIDE (__init_array_end = .)

.fini_array     0x0000000007000000        0x0
                [!provide]                        PROVIDE (__fini_array_start = .)
 *(SORT_BY_INIT_PRIORITY(.fini_array.*) SORT_BY_INIT_PRIORITY(.dtors.*))
 *(.fini_array EXCLUDE_FILE(*crtend?.o *crtend.o *crtbegin?.o *crtbegin.o) .dtors)
                [!provide]                        PROVIDE (__fini_array_end = .)

.ctors
 *crtbegin.o(.ctors)
 *crtbegin?.o(.ctors)
 *(EXCLUDE_FILE(*crtend?.o *crtend.o) .ctors)
 *(SORT_BY_NAME(.ctors.*))
 *(.ctors)

.dtors
 *crtbegin.o(.dtors)
 *crtbegin?.o(.dtors)
 *(EXCLUDE_FILE(*crtend?.o *crtend.o) .dtors)
 *(SORT_BY_NAME(.dtors.*))
 *(.dtors)

.jcr
 *(.jcr)

.data.rel.ro
 *(.data.rel.ro.local* .gnu.linkonce.d.rel.ro.local.*)
 *(.data.rel.ro .data.rel.ro.* .gnu.linkonce.d.rel.ro.*)
                0x0000000007000000                . = DATA_SEGMENT_RELRO_END (., 0x0)

.data           0x0000000007000000   0x123de0 load address 0x0000000007000018
                0x0000000007000000                _fdata = .
 *(.data .data.* .gnu.linkonce.d.*)
 .data          0x0000000007000000   0x123de0 build/us_n64/levels/bob/leveldata.o
                0x0000000007000000                bob_dl_final_revert_mesh_layer_5
                0x0000000007000040                bob_dl_final_revert_mesh_layer_4
                0x0000000007000080                bob_dl_final_revert_mesh_layer_1
                0x00000000070000c0                bob_dl_wind_platform_001_mesh_layer_4
                0x0000000007000100                bob_dl_wind_platform_mesh_layer_4
                0x0000000007000140                bob_dl_small_fan_001_mesh_layer_1
                0x0000000007000198                bob_dl_SM_Fountain_02_mesh_layer_1
                0x0000000007000208                bob_dl_skylight_mesh_layer_5
                0x0000000007000248                bob_dl_render_088_mesh_layer_1
                0x0000000007000288                bob_dl_render_087_mesh_layer_1
                0x00000000070002c8                bob_dl_render_086_mesh_layer_1
                0x0000000007000308                bob_dl_render_085_mesh_layer_1
                0x0000000007000348                bob_dl_render_084_mesh_layer_1
                0x0000000007000388                bob_dl_render_083_mesh_layer_1
                0x00000000070003c8                bob_dl_render_082_mesh_layer_1
                0x0000000007000408                bob_dl_render_081_mesh_layer_1
                0x0000000007000448                bob_dl_render_080_mesh_layer_1
                0x0000000007000488                bob_dl_render_079_mesh_layer_1
                0x00000000070004c8                bob_dl_render_078_mesh_layer_1
                0x0000000007000520                bob_dl_render_075_mesh_layer_1
                0x0000000007000560                bob_dl_render_074_mesh_layer_1
                0x00000000070005a0                bob_dl_render_073_mesh_layer_1
                0x00000000070005e0                bob_dl_render_072_mesh_layer_1
                0x0000000007000620                bob_dl_render_071_mesh_layer_1
                0x0000000007000660                bob_dl_render_070_mesh_layer_1
                0x00000000070006a0                bob_dl_render_069_mesh_layer_1
                0x00000000070006e0                bob_dl_render_068_mesh_layer_1
                0x0000000007000738                bob_dl_render_067_mesh_layer_1
                0x0000000007000778                bob_dl_render_066_mesh_layer_1
                0x00000000070007b8                bob_dl_render_065_mesh_layer_1
                0x00000000070007f8                bob_dl_render_064_mesh_layer_4
                0x0000000007000838                bob_dl_render_064_mesh_layer_1
                0x0000000007000878                bob_dl_render_063_mesh_layer_1
                0x00000000070008b8                bob_dl_render_063_mesh_layer_4
                0x00000000070008f8                bob_dl_render_062_mesh_layer_1
                0x0000000007000938                bob_dl_render_061_mesh_layer_1
                0x0000000007000990                bob_dl_render_060_mesh_layer_1
                0x00000000070009d0                bob_dl_render_059_mesh_layer_1
                0x0000000007000a10                bob_dl_render_058_mesh_layer_1
                0x0000000007000a50                bob_dl_render_058_mesh_layer_4
                0x0000000007000a90                bob_dl_render_056_mesh_layer_1
                0x0000000007000ad0                bob_dl_render_055_mesh_layer_1
                0x0000000007000b10                bob_dl_render_055_mesh_layer_4
                0x0000000007000b50                bob_dl_render_054_mesh_layer_1
                0x0000000007000b90                bob_dl_render_053_mesh_layer_1
                0x0000000007000be8                bob_dl_render_052_mesh_layer_4
                0x0000000007000c40                bob_dl_render_051_mesh_layer_1
                0x0000000007000c80                bob_dl_render_050_mesh_layer_1
                0x0000000007000cd8                bob_dl_render_049_mesh_layer_1
                0x0000000007000d18                bob_dl_render_048_mesh_layer_1
                0x0000000007000d58                bob_dl_render_047_mesh_layer_1
                0x0000000007000d98                bob_dl_render_046_mesh_layer_1
                0x0000000007000dd8                bob_dl_render_045_mesh_layer_1
                0x0000000007000e18                bob_dl_render_044_mesh_layer_1
                0x0000000007000e88                bob_dl_render_043_mesh_layer_1
                0x0000000007000ec8                bob_dl_render_042_mesh_layer_1
                0x0000000007000f08                bob_dl_render_041_mesh_layer_1
                0x0000000007000f48                bob_dl_render_040_mesh_layer_1
                0x0000000007000f88                bob_dl_render_039_mesh_layer_1
                0x0000000007000fc8                bob_dl_render_038_mesh_layer_1
                0x0000000007001008                bob_dl_render_037_mesh_layer_1
                0x0000000007001048                bob_dl_render_036_mesh_layer_1
                0x0000000007001088                bob_dl_render_035_mesh_layer_1
                0x00000000070010c8                bob_dl_render_034_mesh_layer_1
                0x0000000007001108                bob_dl_render_033_mesh_layer_1
                0x0000000007001148                bob_dl_render_032_mesh_layer_1
                0x0000000007001188                bob_dl_render_031_mesh_layer_1
                0x00000000070011c8                bob_dl_render_030_mesh_layer_1
                0x0000000007001208                bob_dl_render_029_mesh_layer_1
                0x0000000007001248                bob_dl_render_028_mesh_layer_1
                0x0000000007001288                bob_dl_render_027_mesh_layer_1
                0x00000000070012c8                bob_dl_render_026_mesh_layer_1
                0x0000000007001308                bob_dl_render_025_mesh_layer_1
                0x0000000007001348                bob_dl_render_024_mesh_layer_1
                0x0000000007001388                bob_dl_render_023_mesh_layer_1
                0x00000000070013e0                bob_dl_render_022_mesh_layer_1
                0x0000000007001420                bob_dl_render_021_mesh_layer_1
                0x0000000007001460                bob_dl_render_020_mesh_layer_1
                0x00000000070014a0                bob_dl_render_019_mesh_layer_1
                0x00000000070014e0                bob_dl_render_018_mesh_layer_1
                0x0000000007001520                bob_dl_render_017_mesh_layer_1
                0x0000000007001560                bob_dl_render_016_mesh_layer_1
                0x00000000070015a0                bob_dl_render_015_mesh_layer_1
                0x00000000070015e0                bob_dl_render_014_mesh_layer_1
                0x0000000007001620                bob_dl_render_013_mesh_layer_1
                0x0000000007001660                bob_dl_render_012_mesh_layer_1
                0x00000000070016a0                bob_dl_render_011_mesh_layer_1
                0x00000000070016e0                bob_dl_render_010_mesh_layer_1
                0x0000000007001720                bob_dl_render_008_mesh_layer_1
                0x0000000007001760                bob_dl_render_007_mesh_layer_1
                0x00000000070017a0                bob_dl_render_002_mesh_layer_1
                0x00000000070017e0                bob_dl_render_001_mesh_layer_1
                0x0000000007001820                bob_dl_render_mesh_layer_1
                0x0000000007001860                bob_dl_pillar_022_mesh_layer_4
                0x00000000070018a0                bob_dl_pillar_021_mesh_layer_4
                0x00000000070018e0                bob_dl_pillar_020_mesh_layer_4
                0x0000000007001920                bob_dl_pillar_019_mesh_layer_1
                0x0000000007001960                bob_dl_pillar_018_mesh_layer_1
                0x00000000070019a0                bob_dl_pillar_017_mesh_layer_4
                0x00000000070019e0                bob_dl_pillar_016_mesh_layer_4
                0x0000000007001a20                bob_dl_pillar_015_mesh_layer_4
                0x0000000007001a60                bob_dl_pillar_014_mesh_layer_4
                0x0000000007001aa0                bob_dl_pillar_013_mesh_layer_4
                0x0000000007001ae0                bob_dl_pillar_012_mesh_layer_4
                0x0000000007001b20                bob_dl_pillar_011_mesh_layer_4
                0x0000000007001b60                bob_dl_pillar_010_mesh_layer_4
                0x0000000007001ba0                bob_dl_pillar_009_mesh_layer_4
                0x0000000007001be0                bob_dl_pillar_008_mesh_layer_4
                0x0000000007001c20                bob_dl_pillar_007_mesh_layer_4
                0x0000000007001c60                bob_dl_pillar_006_mesh_layer_4
                0x0000000007001ca0                bob_dl_pillar_005_mesh_layer_4
                0x0000000007001ce0                bob_dl_pillar_004_mesh_layer_4
                0x0000000007001d20                bob_dl_pillar_003_mesh_layer_4
                0x0000000007001d60                bob_dl_pillar_002_mesh_layer_4
                0x0000000007001da0                bob_dl_pillar_001_mesh_layer_1
                0x0000000007001de0                bob_dl_picnic_mesh_layer_1
                0x0000000007001e20                bob_dl_owl_crest_001_mesh_layer_4
                0x0000000007001e60                bob_dl_owl_crest_001_mesh_layer_1
                0x0000000007001eb8                bob_dl_owl_crest_mesh_layer_4
                0x0000000007001ef8                bob_dl_owl_crest_mesh_layer_1
                0x0000000007001f50                bob_dl_Mesh_Owl_001_mesh_layer_1
                0x0000000007001f90                bob_dl_Mesh_Owl_mesh_layer_1
                0x0000000007001fd0                bob_dl_Icosphere_014_mesh_layer_1
                0x0000000007002010                bob_dl_Icosphere_013_mesh_layer_1
                0x0000000007002080                bob_dl_Icosphere_012_mesh_layer_1
                0x0000000007002108                bob_dl_Icosphere_011_mesh_layer_1
                0x0000000007002190                bob_dl_Icosphere_010_mesh_layer_1
                0x0000000007002200                bob_dl_Icosphere_009_mesh_layer_1
                0x0000000007002288                bob_dl_Icosphere_008_mesh_layer_1
                0x0000000007002310                bob_dl_Icosphere_007_mesh_layer_1
                0x0000000007002398                bob_dl_Icosphere_006_mesh_layer_1
                0x00000000070023d8                bob_dl_Icosphere_005_mesh_layer_1
                0x0000000007002418                bob_dl_Icosphere_004_mesh_layer_1
                0x0000000007002458                bob_dl_Icosphere_003_mesh_layer_1
                0x0000000007002498                bob_dl_Icosphere_002_mesh_layer_1
                0x00000000070024d8                bob_dl_Icosphere_001_mesh_layer_1
                0x0000000007002518                bob_dl_houses_mesh_layer_1
                0x00000000070025b8                bob_dl_Floor_BricksSeparate2_mesh_layer_1
                0x00000000070025f8                bob_dl_Cube_060_mesh_layer_1
                0x0000000007002638                bob_dl_Cube_059_mesh_layer_1
                0x0000000007002678                bob_dl_Cube_058_mesh_layer_1
                0x00000000070026b8                bob_dl_Cube_057_mesh_layer_1
                0x00000000070026f8                bob_dl_Cube_056_mesh_layer_1
                0x0000000007002738                bob_dl_Cube_055_mesh_layer_1
                0x0000000007002778                bob_dl_Cube_054_mesh_layer_1
                0x00000000070027b8                bob_dl_Cube_053_mesh_layer_1
                0x00000000070027f8                bob_dl_Cube_052_mesh_layer_1
                0x0000000007002838                bob_dl_Cube_051_mesh_layer_1
                0x0000000007002878                bob_dl_Cube_050_mesh_layer_1
                0x00000000070028b8                bob_dl_Cube_049_mesh_layer_1
                0x00000000070028f8                bob_dl_Cube_048_mesh_layer_1
                0x0000000007002938                bob_dl_Cube_047_mesh_layer_1
                0x0000000007002978                bob_dl_Cube_046_mesh_layer_1
                0x00000000070029b8                bob_dl_Cube_045_mesh_layer_1
                0x00000000070029f8                bob_dl_Cube_044_mesh_layer_1
                0x0000000007002a38                bob_dl_Cube_043_mesh_layer_1
                0x0000000007002a78                bob_dl_Cube_042_mesh_layer_1
                0x0000000007002ab8                bob_dl_Cube_041_mesh_layer_1
                0x0000000007002af8                bob_dl_Cube_040_mesh_layer_1
                0x0000000007002b38                bob_dl_Cube_039_mesh_layer_5
                0x0000000007002b78                bob_dl_Cube_038_mesh_layer_1
                0x0000000007002bd0                bob_dl_Cube_037_mesh_layer_1
                0x0000000007002c10                bob_dl_Cube_036_mesh_layer_1
                0x0000000007002c50                bob_dl_Cube_035_mesh_layer_1
                0x0000000007002cc0                bob_dl_Cube_034_mesh_layer_1
                0x0000000007002d00                bob_dl_Cube_033_mesh_layer_1
                0x0000000007002d40                bob_dl_Cube_032_mesh_layer_1
                0x0000000007002d80                bob_dl_Cube_031_mesh_layer_1
                0x0000000007002dc0                bob_dl_Cube_030_mesh_layer_1
                0x0000000007002e00                bob_dl_Cube_029_mesh_layer_4
                0x0000000007002e40                bob_dl_Cube_028_mesh_layer_1
                0x0000000007002e80                bob_dl_Cube_027_mesh_layer_1
                0x0000000007002ec0                bob_dl_Cube_026_mesh_layer_1
                0x0000000007002f00                bob_dl_Cube_025_mesh_layer_1
                0x0000000007002f40                bob_dl_Cube_024_mesh_layer_1
                0x0000000007002f80                bob_dl_Cube_023_mesh_layer_1
                0x0000000007002fc0                bob_dl_Cube_022_mesh_layer_1
                0x0000000007003000                bob_dl_Cube_021_mesh_layer_1
                0x0000000007003040                bob_dl_Cube_020_mesh_layer_1
                0x0000000007003080                bob_dl_Cube_019_mesh_layer_1
                0x00000000070030c0                bob_dl_Cube_018_mesh_layer_1
                0x0000000007003100                bob_dl_Cube_017_mesh_layer_1
                0x0000000007003140                bob_dl_Cube_016_mesh_layer_1
                0x0000000007003180                bob_dl_Cube_015_mesh_layer_1
                0x00000000070031c0                bob_dl_Cube_014_mesh_layer_1
                0x0000000007003200                bob_dl_Cube_013_mesh_layer_1
                0x0000000007003240                bob_dl_Cube_012_mesh_layer_1
                0x0000000007003280                bob_dl_Cube_011_mesh_layer_1
                0x00000000070032c0                bob_dl_Cube_010_mesh_layer_1
                0x0000000007003300                bob_dl_Cube_009_mesh_layer_1
                0x0000000007003340                bob_dl_Cube_008_mesh_layer_1
                0x0000000007003380                bob_dl_Cube_007_mesh_layer_1
                0x00000000070033c0                bob_dl_Cube_006_mesh_layer_1
                0x0000000007003400                bob_dl_Cube_005_mesh_layer_1
                0x0000000007003440                bob_dl_Cube_004_mesh_layer_1
                0x0000000007003480                bob_dl_Cube_003_mesh_layer_1
                0x00000000070034c0                bob_dl_Cube_002_mesh_layer_1
                0x0000000007003500                bob_dl_Cube_001_mesh_layer_1
                0x0000000007003540                bob_dl_Cube_mesh_layer_1
                0x0000000007003580                bob_dl_bell_mesh_layer_1
                0x00000000070035c0                bob_dl_Beach_Chairs_and_Umbrella_mesh_layer_1
                0x0000000007003618                mat_revert_bob_dl_metal_2
                0x0000000007003638                mat_bob_dl_metal_2
                0x00000000070036c8                mat_revert_bob_dl_circle
                0x00000000070036f0                mat_bob_dl_circle
                0x0000000007003788                mat_revert_bob_dl_stone_stars
                0x00000000070037a8                mat_bob_dl_stone_stars
                0x0000000007003838                mat_revert_bob_dl_grey_diamond
                0x0000000007003858                mat_bob_dl_grey_diamond
                0x00000000070038e8                mat_revert_bob_dl_black
                0x0000000007003900                mat_bob_dl_black
                0x0000000007003948                mat_revert_bob_dl_picnic
                0x0000000007003968                mat_bob_dl_picnic
                0x00000000070039f8                mat_revert_bob_dl_white_bevel
                0x0000000007003a20                mat_bob_dl_white_bevel
                0x0000000007003ab8                mat_revert_bob_dl_metal_1
                0x0000000007003ad8                mat_bob_dl_metal_1
                0x0000000007003b68                mat_revert_bob_dl_gold
                0x0000000007003b88                mat_bob_dl_gold
                0x0000000007003c18                mat_revert_bob_dl_slab
                0x0000000007003c38                mat_bob_dl_slab
                0x0000000007003cc8                mat_revert_bob_dl_dirt_with_grass
                0x0000000007003ce8                mat_bob_dl_dirt_with_grass
                0x0000000007003d78                mat_revert_bob_dl_dirt2
                0x0000000007003d98                mat_bob_dl_dirt2
                0x0000000007003e28                mat_revert_bob_dl_grass
                0x0000000007003e48                mat_bob_dl_grass
                0x0000000007003ed8                mat_revert_bob_dl_interior
                0x0000000007003ef8                mat_bob_dl_interior
                0x0000000007003f88                mat_revert_bob_dl_light
                0x0000000007003fb0                mat_bob_dl_light
                0x0000000007004050                mat_revert_bob_dl_tree_rings
                0x0000000007004070                mat_bob_dl_tree_rings
                0x0000000007004100                mat_revert_bob_dl_bark
                0x0000000007004120                mat_bob_dl_bark
                0x00000000070041b0                mat_revert_bob_dl_shingles
                0x00000000070041d0                mat_bob_dl_shingles
                0x0000000007004260                mat_revert_bob_dl_grate
                0x0000000007004288                mat_bob_dl_grate
                0x0000000007004320                mat_revert_bob_dl_bricks
                0x0000000007004340                mat_bob_dl_bricks
                0x00000000070043d0                mat_revert_bob_dl_wood
                0x00000000070043f0                mat_bob_dl_wood
                0x0000000007004480                mat_revert_bob_dl_swirl_slippery
                0x00000000070044a0                mat_bob_dl_swirl_slippery
                0x0000000007004530                mat_revert_bob_dl_swirl_001
                0x0000000007004550                mat_bob_dl_swirl_001
                0x00000000070045e0                mat_revert_bob_dl_grey_checker
                0x0000000007004600                mat_bob_dl_grey_checker
                0x0000000007004690                mat_revert_bob_dl_swirl
                0x00000000070046b0                mat_bob_dl_swirl
                0x0000000007004740                mat_revert_bob_dl_dirt
                0x0000000007004760                mat_bob_dl_dirt
                0x00000000070047f0                mat_revert_bob_dl_caution
                0x0000000007004810                mat_bob_dl_caution
                0x00000000070048a0                mat_revert_bob_dl_hay
                0x00000000070048c0                mat_bob_dl_hay
                0x0000000007004950                mat_revert_bob_dl_wood2
                0x0000000007004970                mat_bob_dl_wood2
                0x0000000007004a00                bob_dl_wind_platform_001_mesh_layer_4_tri_0
                0x0000000007004a18                bob_dl_wind_platform_001_mesh_layer_4_vtx_0
                0x0000000007004a58                bob_dl_wind_platform_001_mesh_layer_4_vtx_cull
                0x0000000007004ad8                bob_dl_wind_platform_mesh_layer_4_tri_0
                0x0000000007004af0                bob_dl_wind_platform_mesh_layer_4_vtx_0
                0x0000000007004b30                bob_dl_wind_platform_mesh_layer_4_vtx_cull
                0x0000000007004bb0                bob_dl_small_fan_001_mesh_layer_1_tri_1
                0x0000000007004bf0                bob_dl_small_fan_001_mesh_layer_1_vtx_1
                0x0000000007004d70                bob_dl_small_fan_001_mesh_layer_1_tri_0
                0x0000000007004de8                bob_dl_small_fan_001_mesh_layer_1_vtx_0
                0x00000000070050e8                bob_dl_small_fan_001_mesh_layer_1_vtx_cull
                0x0000000007005168                bob_dl_SM_Fountain_02_mesh_layer_1_tri_2
                0x0000000007005478                bob_dl_SM_Fountain_02_mesh_layer_1_vtx_2
                0x00000000070067e8                bob_dl_SM_Fountain_02_mesh_layer_1_tri_1
                0x0000000007006910                bob_dl_SM_Fountain_02_mesh_layer_1_vtx_1
                0x0000000007006eb0                bob_dl_SM_Fountain_02_mesh_layer_1_tri_0
                0x0000000007007fc0                bob_dl_SM_Fountain_02_mesh_layer_1_vtx_0
                0x000000000700d0f0                bob_dl_SM_Fountain_02_mesh_layer_1_vtx_cull
                0x000000000700d170                bob_dl_skylight_mesh_layer_5_tri_0
                0x000000000700d1b0                bob_dl_skylight_mesh_layer_5_vtx_0
                0x000000000700d330                bob_dl_skylight_mesh_layer_5_vtx_cull
                0x000000000700d3b0                bob_dl_render_088_mesh_layer_1_tri_0
                0x000000000700d3f0                bob_dl_render_088_mesh_layer_1_vtx_0
                0x000000000700d570                bob_dl_render_088_mesh_layer_1_vtx_cull
                0x000000000700d5f0                bob_dl_render_087_mesh_layer_1_tri_0
                0x000000000700d630                bob_dl_render_087_mesh_layer_1_vtx_0
                0x000000000700d7b0                bob_dl_render_087_mesh_layer_1_vtx_cull
                0x000000000700d830                bob_dl_render_086_mesh_layer_1_tri_0
                0x000000000700d898                bob_dl_render_086_mesh_layer_1_vtx_0
                0x000000000700db18                bob_dl_render_086_mesh_layer_1_vtx_cull
                0x000000000700db98                bob_dl_render_085_mesh_layer_1_tri_0
                0x000000000700dc00                bob_dl_render_085_mesh_layer_1_vtx_0
                0x000000000700de80                bob_dl_render_085_mesh_layer_1_vtx_cull
                0x000000000700df00                bob_dl_render_084_mesh_layer_1_tri_0
                0x000000000700df40                bob_dl_render_084_mesh_layer_1_vtx_0
                0x000000000700e0c0                bob_dl_render_084_mesh_layer_1_vtx_cull
                0x000000000700e140                bob_dl_render_083_mesh_layer_1_tri_0
                0x000000000700e210                bob_dl_render_083_mesh_layer_1_vtx_0
                0x000000000700e6c0                bob_dl_render_083_mesh_layer_1_vtx_cull
                0x000000000700e740                bob_dl_render_082_mesh_layer_1_tri_0
                0x000000000700e780                bob_dl_render_082_mesh_layer_1_vtx_0
                0x000000000700e900                bob_dl_render_082_mesh_layer_1_vtx_cull
                0x000000000700e980                bob_dl_render_081_mesh_layer_1_tri_0
                0x000000000700e9e8                bob_dl_render_081_mesh_layer_1_vtx_0
                0x000000000700ec68                bob_dl_render_081_mesh_layer_1_vtx_cull
                0x000000000700ece8                bob_dl_render_080_mesh_layer_1_tri_0
                0x000000000700ed50                bob_dl_render_080_mesh_layer_1_vtx_0
                0x000000000700efd0                bob_dl_render_080_mesh_layer_1_vtx_cull
                0x000000000700f050                bob_dl_render_079_mesh_layer_1_tri_0
                0x000000000700f090                bob_dl_render_079_mesh_layer_1_vtx_0
                0x000000000700f210                bob_dl_render_079_mesh_layer_1_vtx_cull
                0x000000000700f290                bob_dl_render_078_mesh_layer_1_tri_1
                0x000000000700f2d0                bob_dl_render_078_mesh_layer_1_vtx_1
                0x000000000700f430                bob_dl_render_078_mesh_layer_1_tri_0
                0x000000000700f460                bob_dl_render_078_mesh_layer_1_vtx_0
                0x000000000700f4e0                bob_dl_render_078_mesh_layer_1_vtx_cull
                0x000000000700f560                bob_dl_render_075_mesh_layer_1_tri_0
                0x000000000700f598                bob_dl_render_075_mesh_layer_1_vtx_0
                0x000000000700f6d8                bob_dl_render_075_mesh_layer_1_vtx_cull
                0x000000000700f758                bob_dl_render_074_mesh_layer_1_tri_0
                0x000000000700f790                bob_dl_render_074_mesh_layer_1_vtx_0
                0x000000000700f8d0                bob_dl_render_074_mesh_layer_1_vtx_cull
                0x000000000700f950                bob_dl_render_073_mesh_layer_1_tri_0
                0x000000000700f9f8                bob_dl_render_073_mesh_layer_1_vtx_0
                0x000000000700fdd8                bob_dl_render_073_mesh_layer_1_vtx_cull
                0x000000000700fe58                bob_dl_render_072_mesh_layer_1_tri_0
                0x000000000700fe98                bob_dl_render_072_mesh_layer_1_vtx_0
                0x0000000007010018                bob_dl_render_072_mesh_layer_1_vtx_cull
                0x0000000007010098                bob_dl_render_071_mesh_layer_1_tri_0
                0x00000000070100d8                bob_dl_render_071_mesh_layer_1_vtx_0
                0x0000000007010258                bob_dl_render_071_mesh_layer_1_vtx_cull
                0x00000000070102d8                bob_dl_render_070_mesh_layer_1_tri_0
                0x0000000007010320                bob_dl_render_070_mesh_layer_1_vtx_0
                0x00000000070104a0                bob_dl_render_070_mesh_layer_1_vtx_cull
                0x0000000007010520                bob_dl_render_069_mesh_layer_1_tri_0
                0x0000000007010560                bob_dl_render_069_mesh_layer_1_vtx_0
                0x00000000070106e0                bob_dl_render_069_mesh_layer_1_vtx_cull
                0x0000000007010760                bob_dl_render_068_mesh_layer_1_tri_1
                0x00000000070107d0                bob_dl_render_068_mesh_layer_1_vtx_1
                0x00000000070109d0                bob_dl_render_068_mesh_layer_1_tri_0
                0x0000000007010a00                bob_dl_render_068_mesh_layer_1_vtx_0
                0x0000000007010b00                bob_dl_render_068_mesh_layer_1_vtx_cull
                0x0000000007010b80                bob_dl_render_067_mesh_layer_1_tri_0
                0x0000000007010c20                bob_dl_render_067_mesh_layer_1_vtx_0
                0x0000000007010f60                bob_dl_render_067_mesh_layer_1_vtx_cull
                0x0000000007010fe0                bob_dl_render_066_mesh_layer_1_tri_0
                0x0000000007011020                bob_dl_render_066_mesh_layer_1_vtx_0
                0x00000000070111a0                bob_dl_render_066_mesh_layer_1_vtx_cull
                0x0000000007011220                bob_dl_render_065_mesh_layer_1_tri_0
                0x0000000007011260                bob_dl_render_065_mesh_layer_1_vtx_0
                0x00000000070113e0                bob_dl_render_065_mesh_layer_1_vtx_cull
                0x0000000007011460                bob_dl_render_064_mesh_layer_4_tri_0
                0x00000000070114c0                bob_dl_render_064_mesh_layer_4_vtx_0
                0x0000000007011670                bob_dl_render_064_mesh_layer_4_vtx_cull
                0x00000000070116f0                bob_dl_render_064_mesh_layer_1_tri_0
                0x0000000007011708                bob_dl_render_064_mesh_layer_1_vtx_0
                0x0000000007011738                bob_dl_render_064_mesh_layer_1_vtx_cull
                0x00000000070117b8                bob_dl_render_063_mesh_layer_1_tri_0
                0x0000000007011810                bob_dl_render_063_mesh_layer_1_vtx_0
                0x00000000070119d0                bob_dl_render_063_mesh_layer_1_vtx_cull
                0x0000000007011a50                bob_dl_render_063_mesh_layer_4_tri_0
                0x0000000007011a68                bob_dl_render_063_mesh_layer_4_vtx_0
                0x0000000007011aa8                bob_dl_render_063_mesh_layer_4_vtx_cull
                0x0000000007011b28                bob_dl_render_062_mesh_layer_1_tri_0
                0x0000000007011c08                bob_dl_render_062_mesh_layer_1_vtx_0
                0x00000000070120b8                bob_dl_render_062_mesh_layer_1_vtx_cull
                0x0000000007012138                bob_dl_render_061_mesh_layer_1_tri_1
                0x0000000007012188                bob_dl_render_061_mesh_layer_1_vtx_1
                0x0000000007012348                bob_dl_render_061_mesh_layer_1_tri_0
                0x0000000007012368                bob_dl_render_061_mesh_layer_1_vtx_0
                0x00000000070123c8                bob_dl_render_061_mesh_layer_1_vtx_cull
                0x0000000007012448                bob_dl_render_060_mesh_layer_1_tri_0
                0x0000000007012488                bob_dl_render_060_mesh_layer_1_vtx_0
                0x0000000007012608                bob_dl_render_060_mesh_layer_1_vtx_cull
                0x0000000007012688                bob_dl_render_059_mesh_layer_1_tri_0
                0x0000000007012740                bob_dl_render_059_mesh_layer_1_vtx_0
                0x0000000007012a80                bob_dl_render_059_mesh_layer_1_vtx_cull
                0x0000000007012b00                bob_dl_render_058_mesh_layer_1_tri_0
                0x0000000007012b58                bob_dl_render_058_mesh_layer_1_vtx_0
                0x0000000007012d18                bob_dl_render_058_mesh_layer_1_vtx_cull
                0x0000000007012d98                bob_dl_render_058_mesh_layer_4_tri_0
                0x0000000007012db0                bob_dl_render_058_mesh_layer_4_vtx_0
                0x0000000007012df0                bob_dl_render_058_mesh_layer_4_vtx_cull
                0x0000000007012e70                bob_dl_render_056_mesh_layer_1_tri_0
                0x0000000007012eb0                bob_dl_render_056_mesh_layer_1_vtx_0
                0x0000000007013030                bob_dl_render_056_mesh_layer_1_vtx_cull
                0x00000000070130b0                bob_dl_render_055_mesh_layer_1_tri_0
                0x0000000007013108                bob_dl_render_055_mesh_layer_1_vtx_0
                0x00000000070132c8                bob_dl_render_055_mesh_layer_1_vtx_cull
                0x0000000007013348                bob_dl_render_055_mesh_layer_4_tri_0
                0x0000000007013360                bob_dl_render_055_mesh_layer_4_vtx_0
                0x00000000070133a0                bob_dl_render_055_mesh_layer_4_vtx_cull
                0x0000000007013420                bob_dl_render_054_mesh_layer_1_tri_0
                0x0000000007013460                bob_dl_render_054_mesh_layer_1_vtx_0
                0x00000000070135e0                bob_dl_render_054_mesh_layer_1_vtx_cull
                0x0000000007013660                bob_dl_render_053_mesh_layer_1_tri_1
                0x00000000070136f8                bob_dl_render_053_mesh_layer_1_vtx_1
                0x0000000007013a78                bob_dl_render_053_mesh_layer_1_tri_0
                0x0000000007013aa8                bob_dl_render_053_mesh_layer_1_vtx_0
                0x0000000007013b48                bob_dl_render_053_mesh_layer_1_vtx_cull
                0x0000000007013bc8                bob_dl_render_052_mesh_layer_4_tri_1
                0x0000000007013c20                bob_dl_render_052_mesh_layer_4_vtx_1
                0x0000000007013de0                bob_dl_render_052_mesh_layer_4_tri_0
                0x0000000007013df8                bob_dl_render_052_mesh_layer_4_vtx_0
                0x0000000007013e38                bob_dl_render_052_mesh_layer_4_vtx_cull
                0x0000000007013eb8                bob_dl_render_051_mesh_layer_1_tri_0
                0x0000000007013ef8                bob_dl_render_051_mesh_layer_1_vtx_0
                0x0000000007014078                bob_dl_render_051_mesh_layer_1_vtx_cull
                0x00000000070140f8                bob_dl_render_050_mesh_layer_1_tri_1
                0x00000000070141f8                bob_dl_render_050_mesh_layer_1_vtx_1
                0x0000000007014668                bob_dl_render_050_mesh_layer_1_tri_0
                0x0000000007014a20                bob_dl_render_050_mesh_layer_1_vtx_0
                0x0000000007016310                bob_dl_render_050_mesh_layer_1_vtx_cull
                0x0000000007016390                bob_dl_render_049_mesh_layer_1_tri_0
                0x0000000007016460                bob_dl_render_049_mesh_layer_1_vtx_0
                0x0000000007016910                bob_dl_render_049_mesh_layer_1_vtx_cull
                0x0000000007016990                bob_dl_render_048_mesh_layer_1_tri_0
                0x0000000007016ab0                bob_dl_render_048_mesh_layer_1_vtx_0
                0x00000000070170b0                bob_dl_render_048_mesh_layer_1_vtx_cull
                0x0000000007017130                bob_dl_render_047_mesh_layer_1_tri_0
                0x0000000007017158                bob_dl_render_047_mesh_layer_1_vtx_0
                0x00000000070171d8                bob_dl_render_047_mesh_layer_1_vtx_cull
                0x0000000007017258                bob_dl_render_046_mesh_layer_1_tri_0
                0x0000000007017378                bob_dl_render_046_mesh_layer_1_vtx_0
                0x0000000007017978                bob_dl_render_046_mesh_layer_1_vtx_cull
                0x00000000070179f8                bob_dl_render_045_mesh_layer_1_tri_0
                0x0000000007017a20                bob_dl_render_045_mesh_layer_1_vtx_0
                0x0000000007017aa0                bob_dl_render_045_mesh_layer_1_vtx_cull
                0x0000000007017b20                bob_dl_render_044_mesh_layer_1_tri_2
                0x0000000007017b38                bob_dl_render_044_mesh_layer_1_vtx_2
                0x0000000007017b78                bob_dl_render_044_mesh_layer_1_tri_1
                0x0000000007017b98                bob_dl_render_044_mesh_layer_1_vtx_1
                0x0000000007017c18                bob_dl_render_044_mesh_layer_1_tri_0
                0x0000000007017d30                bob_dl_render_044_mesh_layer_1_vtx_0
                0x00000000070182b0                bob_dl_render_044_mesh_layer_1_vtx_cull
                0x0000000007018330                bob_dl_render_043_mesh_layer_1_tri_0
                0x0000000007018648                bob_dl_render_043_mesh_layer_1_vtx_0
                0x0000000007019958                bob_dl_render_043_mesh_layer_1_vtx_cull
                0x00000000070199d8                bob_dl_render_042_mesh_layer_1_tri_0
                0x0000000007019cf0                bob_dl_render_042_mesh_layer_1_vtx_0
                0x000000000701b000                bob_dl_render_042_mesh_layer_1_vtx_cull
                0x000000000701b080                bob_dl_render_041_mesh_layer_1_tri_0
                0x000000000701b398                bob_dl_render_041_mesh_layer_1_vtx_0
                0x000000000701c6a8                bob_dl_render_041_mesh_layer_1_vtx_cull
                0x000000000701c728                bob_dl_render_040_mesh_layer_1_tri_0
                0x000000000701c768                bob_dl_render_040_mesh_layer_1_vtx_0
                0x000000000701c8e8                bob_dl_render_040_mesh_layer_1_vtx_cull
                0x000000000701c968                bob_dl_render_039_mesh_layer_1_tri_0
                0x000000000701c9a8                bob_dl_render_039_mesh_layer_1_vtx_0
                0x000000000701cb28                bob_dl_render_039_mesh_layer_1_vtx_cull
                0x000000000701cba8                bob_dl_render_038_mesh_layer_1_tri_0
                0x000000000701cc50                bob_dl_render_038_mesh_layer_1_vtx_0
                0x000000000701d020                bob_dl_render_038_mesh_layer_1_vtx_cull
                0x000000000701d0a0                bob_dl_render_037_mesh_layer_1_tri_0
                0x000000000701d0e0                bob_dl_render_037_mesh_layer_1_vtx_0
                0x000000000701d260                bob_dl_render_037_mesh_layer_1_vtx_cull
                0x000000000701d2e0                bob_dl_render_036_mesh_layer_1_tri_0
                0x000000000701d5f8                bob_dl_render_036_mesh_layer_1_vtx_0
                0x000000000701e908                bob_dl_render_036_mesh_layer_1_vtx_cull
                0x000000000701e988                bob_dl_render_035_mesh_layer_1_tri_0
                0x000000000701eca0                bob_dl_render_035_mesh_layer_1_vtx_0
                0x000000000701ffb0                bob_dl_render_035_mesh_layer_1_vtx_cull
                0x0000000007020030                bob_dl_render_034_mesh_layer_1_tri_0
                0x0000000007020070                bob_dl_render_034_mesh_layer_1_vtx_0
                0x00000000070201f0                bob_dl_render_034_mesh_layer_1_vtx_cull
                0x0000000007020270                bob_dl_render_033_mesh_layer_1_tri_0
                0x00000000070202d8                bob_dl_render_033_mesh_layer_1_vtx_0
                0x0000000007020558                bob_dl_render_033_mesh_layer_1_vtx_cull
                0x00000000070205d8                bob_dl_render_032_mesh_layer_1_tri_0
                0x00000000070208f0                bob_dl_render_032_mesh_layer_1_vtx_0
                0x0000000007021c00                bob_dl_render_032_mesh_layer_1_vtx_cull
                0x0000000007021c80                bob_dl_render_031_mesh_layer_1_tri_0
                0x0000000007021cc0                bob_dl_render_031_mesh_layer_1_vtx_0
                0x0000000007021e40                bob_dl_render_031_mesh_layer_1_vtx_cull
                0x0000000007021ec0                bob_dl_render_030_mesh_layer_1_tri_0
                0x0000000007021f00                bob_dl_render_030_mesh_layer_1_vtx_0
                0x0000000007022080                bob_dl_render_030_mesh_layer_1_vtx_cull
                0x0000000007022100                bob_dl_render_029_mesh_layer_1_tri_0
                0x0000000007022168                bob_dl_render_029_mesh_layer_1_vtx_0
                0x00000000070223e8                bob_dl_render_029_mesh_layer_1_vtx_cull
                0x0000000007022468                bob_dl_render_028_mesh_layer_1_tri_0
                0x00000000070224a8                bob_dl_render_028_mesh_layer_1_vtx_0
                0x0000000007022628                bob_dl_render_028_mesh_layer_1_vtx_cull
                0x00000000070226a8                bob_dl_render_027_mesh_layer_1_tri_0
                0x00000000070226e8                bob_dl_render_027_mesh_layer_1_vtx_0
                0x0000000007022868                bob_dl_render_027_mesh_layer_1_vtx_cull
                0x00000000070228e8                bob_dl_render_026_mesh_layer_1_tri_0
                0x00000000070229b8                bob_dl_render_026_mesh_layer_1_vtx_0
                0x0000000007022e68                bob_dl_render_026_mesh_layer_1_vtx_cull
                0x0000000007022ee8                bob_dl_render_025_mesh_layer_1_tri_0
                0x0000000007023008                bob_dl_render_025_mesh_layer_1_vtx_0
                0x0000000007023608                bob_dl_render_025_mesh_layer_1_vtx_cull
                0x0000000007023688                bob_dl_render_024_mesh_layer_1_tri_0
                0x00000000070236c8                bob_dl_render_024_mesh_layer_1_vtx_0
                0x0000000007023848                bob_dl_render_024_mesh_layer_1_vtx_cull
                0x00000000070238c8                bob_dl_render_023_mesh_layer_1_tri_1
                0x0000000007023ad8                bob_dl_render_023_mesh_layer_1_vtx_1
                0x00000000070245e8                bob_dl_render_023_mesh_layer_1_tri_0
                0x0000000007024950                bob_dl_render_023_mesh_layer_1_vtx_0
                0x0000000007025fe0                bob_dl_render_023_mesh_layer_1_vtx_cull
                0x0000000007026060                bob_dl_render_022_mesh_layer_1_tri_0
                0x00000000070260a0                bob_dl_render_022_mesh_layer_1_vtx_0
                0x0000000007026220                bob_dl_render_022_mesh_layer_1_vtx_cull
                0x00000000070262a0                bob_dl_render_021_mesh_layer_1_tri_0
                0x00000000070262c8                bob_dl_render_021_mesh_layer_1_vtx_0
                0x0000000007026348                bob_dl_render_021_mesh_layer_1_vtx_cull
                0x00000000070263c8                bob_dl_render_020_mesh_layer_1_tri_0
                0x0000000007026408                bob_dl_render_020_mesh_layer_1_vtx_0
                0x0000000007026588                bob_dl_render_020_mesh_layer_1_vtx_cull
                0x0000000007026608                bob_dl_render_019_mesh_layer_1_tri_0
                0x0000000007026648                bob_dl_render_019_mesh_layer_1_vtx_0
                0x00000000070267c8                bob_dl_render_019_mesh_layer_1_vtx_cull
                0x0000000007026848                bob_dl_render_018_mesh_layer_1_tri_0
                0x00000000070268b0                bob_dl_render_018_mesh_layer_1_vtx_0
                0x0000000007026b30                bob_dl_render_018_mesh_layer_1_vtx_cull
                0x0000000007026bb0                bob_dl_render_017_mesh_layer_1_tri_0
                0x0000000007026c18                bob_dl_render_017_mesh_layer_1_vtx_0
                0x0000000007026e98                bob_dl_render_017_mesh_layer_1_vtx_cull
                0x0000000007026f18                bob_dl_render_016_mesh_layer_1_tri_0
                0x0000000007026f58                bob_dl_render_016_mesh_layer_1_vtx_0
                0x00000000070270d8                bob_dl_render_016_mesh_layer_1_vtx_cull
                0x0000000007027158                bob_dl_render_015_mesh_layer_1_tri_0
                0x0000000007027228                bob_dl_render_015_mesh_layer_1_vtx_0
                0x00000000070276d8                bob_dl_render_015_mesh_layer_1_vtx_cull
                0x0000000007027758                bob_dl_render_014_mesh_layer_1_tri_0
                0x0000000007027798                bob_dl_render_014_mesh_layer_1_vtx_0
                0x0000000007027918                bob_dl_render_014_mesh_layer_1_vtx_cull
                0x0000000007027998                bob_dl_render_013_mesh_layer_1_tri_0
                0x0000000007027a00                bob_dl_render_013_mesh_layer_1_vtx_0
                0x0000000007027c80                bob_dl_render_013_mesh_layer_1_vtx_cull
                0x0000000007027d00                bob_dl_render_012_mesh_layer_1_tri_0
                0x0000000007027d68                bob_dl_render_012_mesh_layer_1_vtx_0
                0x0000000007027fe8                bob_dl_render_012_mesh_layer_1_vtx_cull
                0x0000000007028068                bob_dl_render_011_mesh_layer_1_tri_0
                0x00000000070280a8                bob_dl_render_011_mesh_layer_1_vtx_0
                0x0000000007028228                bob_dl_render_011_mesh_layer_1_vtx_cull
                0x00000000070282a8                bob_dl_render_010_mesh_layer_1_tri_0
                0x0000000007028378                bob_dl_render_010_mesh_layer_1_vtx_0
                0x0000000007028828                bob_dl_render_010_mesh_layer_1_vtx_cull
                0x00000000070288a8                bob_dl_render_008_mesh_layer_1_tri_0
                0x0000000007029e08                bob_dl_render_008_mesh_layer_1_vtx_0
                0x00000000070372a8                bob_dl_render_008_mesh_layer_1_vtx_cull
                0x0000000007037328                bob_dl_render_007_mesh_layer_1_tri_0
                0x00000000070376c0                bob_dl_render_007_mesh_layer_1_vtx_0
                0x0000000007039a20                bob_dl_render_007_mesh_layer_1_vtx_cull
                0x0000000007039aa0                bob_dl_render_002_mesh_layer_1_tri_0
                0x000000000703b390                bob_dl_render_002_mesh_layer_1_vtx_0
                0x000000000704ab90                bob_dl_render_002_mesh_layer_1_vtx_cull
                0x000000000704ac10                bob_dl_render_001_mesh_layer_1_tri_0
                0x000000000704c500                bob_dl_render_001_mesh_layer_1_vtx_0
                0x000000000705bd00                bob_dl_render_001_mesh_layer_1_vtx_cull
                0x000000000705bd80                bob_dl_render_mesh_layer_1_tri_0
                0x000000000705beb0                bob_dl_render_mesh_layer_1_vtx_0
                0x000000000705c6f0                bob_dl_render_mesh_layer_1_vtx_cull
                0x000000000705c770                bob_dl_pillar_022_mesh_layer_4_tri_0
                0x000000000705c7b0                bob_dl_pillar_022_mesh_layer_4_vtx_0
                0x000000000705c930                bob_dl_pillar_022_mesh_layer_4_vtx_cull
                0x000000000705c9b0                bob_dl_pillar_021_mesh_layer_4_tri_0
                0x000000000705c9f0                bob_dl_pillar_021_mesh_layer_4_vtx_0
                0x000000000705cb70                bob_dl_pillar_021_mesh_layer_4_vtx_cull
                0x000000000705cbf0                bob_dl_pillar_020_mesh_layer_4_tri_0
                0x000000000705cc30                bob_dl_pillar_020_mesh_layer_4_vtx_0
                0x000000000705cdb0                bob_dl_pillar_020_mesh_layer_4_vtx_cull
                0x000000000705ce30                bob_dl_pillar_019_mesh_layer_1_tri_0
                0x000000000705ce70                bob_dl_pillar_019_mesh_layer_1_vtx_0
                0x000000000705cff0                bob_dl_pillar_019_mesh_layer_1_vtx_cull
                0x000000000705d070                bob_dl_pillar_018_mesh_layer_1_tri_0
                0x000000000705d0b0                bob_dl_pillar_018_mesh_layer_1_vtx_0
                0x000000000705d230                bob_dl_pillar_018_mesh_layer_1_vtx_cull
                0x000000000705d2b0                bob_dl_pillar_017_mesh_layer_4_tri_0
                0x000000000705d2f0                bob_dl_pillar_017_mesh_layer_4_vtx_0
                0x000000000705d470                bob_dl_pillar_017_mesh_layer_4_vtx_cull
                0x000000000705d4f0                bob_dl_pillar_016_mesh_layer_4_tri_0
                0x000000000705d530                bob_dl_pillar_016_mesh_layer_4_vtx_0
                0x000000000705d6b0                bob_dl_pillar_016_mesh_layer_4_vtx_cull
                0x000000000705d730                bob_dl_pillar_015_mesh_layer_4_tri_0
                0x000000000705d770                bob_dl_pillar_015_mesh_layer_4_vtx_0
                0x000000000705d8f0                bob_dl_pillar_015_mesh_layer_4_vtx_cull
                0x000000000705d970                bob_dl_pillar_014_mesh_layer_4_tri_0
                0x000000000705d9b0                bob_dl_pillar_014_mesh_layer_4_vtx_0
                0x000000000705db30                bob_dl_pillar_014_mesh_layer_4_vtx_cull
                0x000000000705dbb0                bob_dl_pillar_013_mesh_layer_4_tri_0
                0x000000000705dbf0                bob_dl_pillar_013_mesh_layer_4_vtx_0
                0x000000000705dd70                bob_dl_pillar_013_mesh_layer_4_vtx_cull
                0x000000000705ddf0                bob_dl_pillar_012_mesh_layer_4_tri_0
                0x000000000705de30                bob_dl_pillar_012_mesh_layer_4_vtx_0
                0x000000000705dfb0                bob_dl_pillar_012_mesh_layer_4_vtx_cull
                0x000000000705e030                bob_dl_pillar_011_mesh_layer_4_tri_0
                0x000000000705e070                bob_dl_pillar_011_mesh_layer_4_vtx_0
                0x000000000705e1f0                bob_dl_pillar_011_mesh_layer_4_vtx_cull
                0x000000000705e270                bob_dl_pillar_010_mesh_layer_4_tri_0
                0x000000000705e2b0                bob_dl_pillar_010_mesh_layer_4_vtx_0
                0x000000000705e430                bob_dl_pillar_010_mesh_layer_4_vtx_cull
                0x000000000705e4b0                bob_dl_pillar_009_mesh_layer_4_tri_0
                0x000000000705e4f0                bob_dl_pillar_009_mesh_layer_4_vtx_0
                0x000000000705e670                bob_dl_pillar_009_mesh_layer_4_vtx_cull
                0x000000000705e6f0                bob_dl_pillar_008_mesh_layer_4_tri_0
                0x000000000705e730                bob_dl_pillar_008_mesh_layer_4_vtx_0
                0x000000000705e8b0                bob_dl_pillar_008_mesh_layer_4_vtx_cull
                0x000000000705e930                bob_dl_pillar_007_mesh_layer_4_tri_0
                0x000000000705e970                bob_dl_pillar_007_mesh_layer_4_vtx_0
                0x000000000705eaf0                bob_dl_pillar_007_mesh_layer_4_vtx_cull
                0x000000000705eb70                bob_dl_pillar_006_mesh_layer_4_tri_0
                0x000000000705ebb0                bob_dl_pillar_006_mesh_layer_4_vtx_0
                0x000000000705ed30                bob_dl_pillar_006_mesh_layer_4_vtx_cull
                0x000000000705edb0                bob_dl_pillar_005_mesh_layer_4_tri_0
                0x000000000705edf0                bob_dl_pillar_005_mesh_layer_4_vtx_0
                0x000000000705ef70                bob_dl_pillar_005_mesh_layer_4_vtx_cull
                0x000000000705eff0                bob_dl_pillar_004_mesh_layer_4_tri_0
                0x000000000705f030                bob_dl_pillar_004_mesh_layer_4_vtx_0
                0x000000000705f1b0                bob_dl_pillar_004_mesh_layer_4_vtx_cull
                0x000000000705f230                bob_dl_pillar_003_mesh_layer_4_tri_0
                0x000000000705f270                bob_dl_pillar_003_mesh_layer_4_vtx_0
                0x000000000705f3f0                bob_dl_pillar_003_mesh_layer_4_vtx_cull
                0x000000000705f470                bob_dl_pillar_002_mesh_layer_4_tri_0
                0x000000000705f4b0                bob_dl_pillar_002_mesh_layer_4_vtx_0
                0x000000000705f630                bob_dl_pillar_002_mesh_layer_4_vtx_cull
                0x000000000705f6b0                bob_dl_pillar_001_mesh_layer_1_tri_0
                0x000000000705f6f0                bob_dl_pillar_001_mesh_layer_1_vtx_0
                0x000000000705f870                bob_dl_pillar_001_mesh_layer_1_vtx_cull
                0x000000000705f8f0                bob_dl_picnic_mesh_layer_1_tri_0
                0x000000000705f930                bob_dl_picnic_mesh_layer_1_vtx_0
                0x000000000705fab0                bob_dl_picnic_mesh_layer_1_vtx_cull
                0x000000000705fb30                bob_dl_owl_crest_001_mesh_layer_4_tri_0
                0x000000000705fc10                bob_dl_owl_crest_001_mesh_layer_4_vtx_0
                0x0000000007060030                bob_dl_owl_crest_001_mesh_layer_4_vtx_cull
                0x00000000070600b0                bob_dl_owl_crest_001_mesh_layer_1_tri_1
                0x0000000007060190                bob_dl_owl_crest_001_mesh_layer_1_vtx_1
                0x00000000070605b0                bob_dl_owl_crest_001_mesh_layer_1_tri_0
                0x0000000007060660                bob_dl_owl_crest_001_mesh_layer_1_vtx_0
                0x0000000007060ae0                bob_dl_owl_crest_001_mesh_layer_1_vtx_cull
                0x0000000007060b60                bob_dl_owl_crest_mesh_layer_4_tri_0
                0x0000000007060c40                bob_dl_owl_crest_mesh_layer_4_vtx_0
                0x0000000007061060                bob_dl_owl_crest_mesh_layer_4_vtx_cull
                0x00000000070610e0                bob_dl_owl_crest_mesh_layer_1_tri_1
                0x00000000070611c0                bob_dl_owl_crest_mesh_layer_1_vtx_1
                0x00000000070615e0                bob_dl_owl_crest_mesh_layer_1_tri_0
                0x0000000007061690                bob_dl_owl_crest_mesh_layer_1_vtx_0
                0x0000000007061b10                bob_dl_owl_crest_mesh_layer_1_vtx_cull
                0x0000000007061b90                bob_dl_Mesh_Owl_001_mesh_layer_1_tri_0
                0x0000000007062358                bob_dl_Mesh_Owl_001_mesh_layer_1_vtx_0
                0x0000000007065898                bob_dl_Mesh_Owl_001_mesh_layer_1_vtx_cull
                0x0000000007065918                bob_dl_Mesh_Owl_mesh_layer_1_tri_0
                0x00000000070660e0                bob_dl_Mesh_Owl_mesh_layer_1_vtx_0
                0x0000000007069620                bob_dl_Mesh_Owl_mesh_layer_1_vtx_cull
                0x00000000070696a0                bob_dl_Icosphere_014_mesh_layer_1_tri_0
                0x0000000007069ca8                bob_dl_Icosphere_014_mesh_layer_1_vtx_0
                0x000000000706d8a8                bob_dl_Icosphere_014_mesh_layer_1_vtx_cull
                0x000000000706d928                bob_dl_Icosphere_013_mesh_layer_1_tri_2
                0x000000000706d9a8                bob_dl_Icosphere_013_mesh_layer_1_vtx_2
                0x000000000706dc18                bob_dl_Icosphere_013_mesh_layer_1_tri_1
                0x000000000706dc88                bob_dl_Icosphere_013_mesh_layer_1_vtx_1
                0x000000000706dee8                bob_dl_Icosphere_013_mesh_layer_1_tri_0
                0x000000000706df90                bob_dl_Icosphere_013_mesh_layer_1_vtx_0
                0x000000000706e300                bob_dl_Icosphere_013_mesh_layer_1_vtx_cull
                0x000000000706e380                bob_dl_Icosphere_012_mesh_layer_1_tri_3
                0x000000000706e3c8                bob_dl_Icosphere_012_mesh_layer_1_vtx_3
                0x000000000706e518                bob_dl_Icosphere_012_mesh_layer_1_tri_2
                0x000000000706e570                bob_dl_Icosphere_012_mesh_layer_1_vtx_2
                0x000000000706e740                bob_dl_Icosphere_012_mesh_layer_1_tri_1
                0x000000000706e908                bob_dl_Icosphere_012_mesh_layer_1_vtx_1
                0x000000000706f4c8                bob_dl_Icosphere_012_mesh_layer_1_tri_0
                0x000000000706fae0                bob_dl_Icosphere_012_mesh_layer_1_vtx_0
                0x0000000007073720                bob_dl_Icosphere_012_mesh_layer_1_vtx_cull
                0x00000000070737a0                bob_dl_Icosphere_011_mesh_layer_1_tri_3
                0x00000000070737e8                bob_dl_Icosphere_011_mesh_layer_1_vtx_3
                0x0000000007073938                bob_dl_Icosphere_011_mesh_layer_1_tri_2
                0x0000000007073990                bob_dl_Icosphere_011_mesh_layer_1_vtx_2
                0x0000000007073b60                bob_dl_Icosphere_011_mesh_layer_1_tri_1
                0x0000000007073d28                bob_dl_Icosphere_011_mesh_layer_1_vtx_1
                0x00000000070748e8                bob_dl_Icosphere_011_mesh_layer_1_tri_0
                0x0000000007074f00                bob_dl_Icosphere_011_mesh_layer_1_vtx_0
                0x0000000007078b40                bob_dl_Icosphere_011_mesh_layer_1_vtx_cull
                0x0000000007078bc0                bob_dl_Icosphere_010_mesh_layer_1_tri_2
                0x0000000007078c30                bob_dl_Icosphere_010_mesh_layer_1_vtx_2
                0x0000000007078e20                bob_dl_Icosphere_010_mesh_layer_1_tri_1
                0x0000000007078e78                bob_dl_Icosphere_010_mesh_layer_1_vtx_1
                0x0000000007079048                bob_dl_Icosphere_010_mesh_layer_1_tri_0
                0x00000000070790e8                bob_dl_Icosphere_010_mesh_layer_1_vtx_0
                0x0000000007079448                bob_dl_Icosphere_010_mesh_layer_1_vtx_cull
                0x00000000070794c8                bob_dl_Icosphere_009_mesh_layer_1_tri_3
                0x0000000007079510                bob_dl_Icosphere_009_mesh_layer_1_vtx_3
                0x0000000007079660                bob_dl_Icosphere_009_mesh_layer_1_tri_2
                0x00000000070796b8                bob_dl_Icosphere_009_mesh_layer_1_vtx_2
                0x0000000007079888                bob_dl_Icosphere_009_mesh_layer_1_tri_1
                0x0000000007079a50                bob_dl_Icosphere_009_mesh_layer_1_vtx_1
                0x000000000707a610                bob_dl_Icosphere_009_mesh_layer_1_tri_0
                0x000000000707ac28                bob_dl_Icosphere_009_mesh_layer_1_vtx_0
                0x000000000707e868                bob_dl_Icosphere_009_mesh_layer_1_vtx_cull
                0x000000000707e8e8                bob_dl_Icosphere_008_mesh_layer_1_tri_3
                0x000000000707e930                bob_dl_Icosphere_008_mesh_layer_1_vtx_3
                0x000000000707ea80                bob_dl_Icosphere_008_mesh_layer_1_tri_2
                0x000000000707ead8                bob_dl_Icosphere_008_mesh_layer_1_vtx_2
                0x000000000707eca8                bob_dl_Icosphere_008_mesh_layer_1_tri_1
                0x000000000707ee70                bob_dl_Icosphere_008_mesh_layer_1_vtx_1
                0x000000000707fa30                bob_dl_Icosphere_008_mesh_layer_1_tri_0
                0x0000000007080048                bob_dl_Icosphere_008_mesh_layer_1_vtx_0
                0x0000000007083c88                bob_dl_Icosphere_008_mesh_layer_1_vtx_cull
                0x0000000007083d08                bob_dl_Icosphere_007_mesh_layer_1_tri_3
                0x0000000007083d50                bob_dl_Icosphere_007_mesh_layer_1_vtx_3
                0x0000000007083ea0                bob_dl_Icosphere_007_mesh_layer_1_tri_2
                0x0000000007083ef8                bob_dl_Icosphere_007_mesh_layer_1_vtx_2
                0x00000000070840c8                bob_dl_Icosphere_007_mesh_layer_1_tri_1
                0x0000000007084290                bob_dl_Icosphere_007_mesh_layer_1_vtx_1
                0x0000000007084e50                bob_dl_Icosphere_007_mesh_layer_1_tri_0
                0x0000000007085468                bob_dl_Icosphere_007_mesh_layer_1_vtx_0
                0x00000000070890a8                bob_dl_Icosphere_007_mesh_layer_1_vtx_cull
                0x0000000007089128                bob_dl_Icosphere_006_mesh_layer_1_tri_0
                0x0000000007089730                bob_dl_Icosphere_006_mesh_layer_1_vtx_0
                0x000000000708d330                bob_dl_Icosphere_006_mesh_layer_1_vtx_cull
                0x000000000708d3b0                bob_dl_Icosphere_005_mesh_layer_1_tri_0
                0x000000000708d9b8                bob_dl_Icosphere_005_mesh_layer_1_vtx_0
                0x00000000070915b8                bob_dl_Icosphere_005_mesh_layer_1_vtx_cull
                0x0000000007091638                bob_dl_Icosphere_004_mesh_layer_1_tri_0
                0x0000000007091c40                bob_dl_Icosphere_004_mesh_layer_1_vtx_0
                0x0000000007095840                bob_dl_Icosphere_004_mesh_layer_1_vtx_cull
                0x00000000070958c0                bob_dl_Icosphere_003_mesh_layer_1_tri_0
                0x0000000007095ec8                bob_dl_Icosphere_003_mesh_layer_1_vtx_0
                0x0000000007099ac8                bob_dl_Icosphere_003_mesh_layer_1_vtx_cull
                0x0000000007099b48                bob_dl_Icosphere_002_mesh_layer_1_tri_0
                0x000000000709a150                bob_dl_Icosphere_002_mesh_layer_1_vtx_0
                0x000000000709dd50                bob_dl_Icosphere_002_mesh_layer_1_vtx_cull
                0x000000000709ddd0                bob_dl_Icosphere_001_mesh_layer_1_tri_0
                0x000000000709e3d8                bob_dl_Icosphere_001_mesh_layer_1_vtx_0
                0x00000000070a1fd8                bob_dl_Icosphere_001_mesh_layer_1_vtx_cull
                0x00000000070a2058                bob_dl_houses_mesh_layer_1_tri_4
                0x00000000070a23d0                bob_dl_houses_mesh_layer_1_vtx_4
                0x00000000070a39f0                bob_dl_houses_mesh_layer_1_tri_3
                0x00000000070a4db8                bob_dl_houses_mesh_layer_1_vtx_3
                0x00000000070acf78                bob_dl_houses_mesh_layer_1_tri_2
                0x00000000070ad088                bob_dl_houses_mesh_layer_1_vtx_2
                0x00000000070ad688                bob_dl_houses_mesh_layer_1_tri_1
                0x00000000070ad7b0                bob_dl_houses_mesh_layer_1_vtx_1
                0x00000000070ade30                bob_dl_houses_mesh_layer_1_tri_0
                0x00000000070adf98                bob_dl_houses_mesh_layer_1_vtx_0
                0x00000000070ae798                bob_dl_houses_mesh_layer_1_vtx_cull
                0x00000000070ae818                bob_dl_Floor_BricksSeparate2_mesh_layer_1_tri_0
                0x00000000070af090                bob_dl_Floor_BricksSeparate2_mesh_layer_1_vtx_0
                0x00000000070b2640                bob_dl_Floor_BricksSeparate2_mesh_layer_1_vtx_cull
                0x00000000070b26c0                bob_dl_Cube_060_mesh_layer_1_tri_0
                0x00000000070b2700                bob_dl_Cube_060_mesh_layer_1_vtx_0
                0x00000000070b2880                bob_dl_Cube_060_mesh_layer_1_vtx_cull
                0x00000000070b2900                bob_dl_Cube_059_mesh_layer_1_tri_0
                0x00000000070b2940                bob_dl_Cube_059_mesh_layer_1_vtx_0
                0x00000000070b2ac0                bob_dl_Cube_059_mesh_layer_1_vtx_cull
                0x00000000070b2b40                bob_dl_Cube_058_mesh_layer_1_tri_0
                0x00000000070b2b80                bob_dl_Cube_058_mesh_layer_1_vtx_0
                0x00000000070b2d00                bob_dl_Cube_058_mesh_layer_1_vtx_cull
                0x00000000070b2d80                bob_dl_Cube_057_mesh_layer_1_tri_0
                0x00000000070b2dc0                bob_dl_Cube_057_mesh_layer_1_vtx_0
                0x00000000070b2f40                bob_dl_Cube_057_mesh_layer_1_vtx_cull
                0x00000000070b2fc0                bob_dl_Cube_056_mesh_layer_1_tri_0
                0x00000000070b3000                bob_dl_Cube_056_mesh_layer_1_vtx_0
                0x00000000070b3180                bob_dl_Cube_056_mesh_layer_1_vtx_cull
                0x00000000070b3200                bob_dl_Cube_055_mesh_layer_1_tri_0
                0x00000000070b3240                bob_dl_Cube_055_mesh_layer_1_vtx_0
                0x00000000070b33c0                bob_dl_Cube_055_mesh_layer_1_vtx_cull
                0x00000000070b3440                bob_dl_Cube_054_mesh_layer_1_tri_0
                0x00000000070b3480                bob_dl_Cube_054_mesh_layer_1_vtx_0
                0x00000000070b3600                bob_dl_Cube_054_mesh_layer_1_vtx_cull
                0x00000000070b3680                bob_dl_Cube_053_mesh_layer_1_tri_0
                0x00000000070b36c0                bob_dl_Cube_053_mesh_layer_1_vtx_0
                0x00000000070b3840                bob_dl_Cube_053_mesh_layer_1_vtx_cull
                0x00000000070b38c0                bob_dl_Cube_052_mesh_layer_1_tri_0
                0x00000000070b3900                bob_dl_Cube_052_mesh_layer_1_vtx_0
                0x00000000070b3a80                bob_dl_Cube_052_mesh_layer_1_vtx_cull
                0x00000000070b3b00                bob_dl_Cube_051_mesh_layer_1_tri_0
                0x00000000070b3b40                bob_dl_Cube_051_mesh_layer_1_vtx_0
                0x00000000070b3cc0                bob_dl_Cube_051_mesh_layer_1_vtx_cull
                0x00000000070b3d40                bob_dl_Cube_050_mesh_layer_1_tri_0
                0x00000000070b3d80                bob_dl_Cube_050_mesh_layer_1_vtx_0
                0x00000000070b3f00                bob_dl_Cube_050_mesh_layer_1_vtx_cull
                0x00000000070b3f80                bob_dl_Cube_049_mesh_layer_1_tri_0
                0x00000000070b3fc0                bob_dl_Cube_049_mesh_layer_1_vtx_0
                0x00000000070b4140                bob_dl_Cube_049_mesh_layer_1_vtx_cull
                0x00000000070b41c0                bob_dl_Cube_048_mesh_layer_1_tri_0
                0x00000000070b4200                bob_dl_Cube_048_mesh_layer_1_vtx_0
                0x00000000070b4380                bob_dl_Cube_048_mesh_layer_1_vtx_cull
                0x00000000070b4400                bob_dl_Cube_047_mesh_layer_1_tri_0
                0x00000000070b4440                bob_dl_Cube_047_mesh_layer_1_vtx_0
                0x00000000070b45c0                bob_dl_Cube_047_mesh_layer_1_vtx_cull
                0x00000000070b4640                bob_dl_Cube_046_mesh_layer_1_tri_0
                0x00000000070b46a8                bob_dl_Cube_046_mesh_layer_1_vtx_0
                0x00000000070b4918                bob_dl_Cube_046_mesh_layer_1_vtx_cull
                0x00000000070b4998                bob_dl_Cube_045_mesh_layer_1_tri_0
                0x00000000070b49d8                bob_dl_Cube_045_mesh_layer_1_vtx_0
                0x00000000070b4b58                bob_dl_Cube_045_mesh_layer_1_vtx_cull
                0x00000000070b4bd8                bob_dl_Cube_044_mesh_layer_1_tri_0
                0x00000000070b4c18                bob_dl_Cube_044_mesh_layer_1_vtx_0
                0x00000000070b4d98                bob_dl_Cube_044_mesh_layer_1_vtx_cull
                0x00000000070b4e18                bob_dl_Cube_043_mesh_layer_1_tri_0
                0x00000000070b4e58                bob_dl_Cube_043_mesh_layer_1_vtx_0
                0x00000000070b4fd8                bob_dl_Cube_043_mesh_layer_1_vtx_cull
                0x00000000070b5058                bob_dl_Cube_042_mesh_layer_1_tri_0
                0x00000000070b5098                bob_dl_Cube_042_mesh_layer_1_vtx_0
                0x00000000070b5218                bob_dl_Cube_042_mesh_layer_1_vtx_cull
                0x00000000070b5298                bob_dl_Cube_041_mesh_layer_1_tri_0
                0x00000000070b52d8                bob_dl_Cube_041_mesh_layer_1_vtx_0
                0x00000000070b5458                bob_dl_Cube_041_mesh_layer_1_vtx_cull
                0x00000000070b54d8                bob_dl_Cube_040_mesh_layer_1_tri_0
                0x00000000070b5518                bob_dl_Cube_040_mesh_layer_1_vtx_0
                0x00000000070b5698                bob_dl_Cube_040_mesh_layer_1_vtx_cull
                0x00000000070b5718                bob_dl_Cube_039_mesh_layer_5_tri_0
                0x00000000070b5758                bob_dl_Cube_039_mesh_layer_5_vtx_0
                0x00000000070b58d8                bob_dl_Cube_039_mesh_layer_5_vtx_cull
                0x00000000070b5958                bob_dl_Cube_038_mesh_layer_1_tri_1
                0x00000000070b59c0                bob_dl_Cube_038_mesh_layer_1_vtx_1
                0x00000000070b5c40                bob_dl_Cube_038_mesh_layer_1_tri_0
                0x00000000070b5e18                bob_dl_Cube_038_mesh_layer_1_vtx_0
                0x00000000070b6938                bob_dl_Cube_038_mesh_layer_1_vtx_cull
                0x00000000070b69b8                bob_dl_Cube_037_mesh_layer_1_tri_0
                0x00000000070b6a20                bob_dl_Cube_037_mesh_layer_1_vtx_0
                0x00000000070b6c60                bob_dl_Cube_037_mesh_layer_1_vtx_cull
                0x00000000070b6ce0                bob_dl_Cube_036_mesh_layer_1_tri_0
                0x00000000070b6d48                bob_dl_Cube_036_mesh_layer_1_vtx_0
                0x00000000070b6f88                bob_dl_Cube_036_mesh_layer_1_vtx_cull
                0x00000000070b7008                bob_dl_Cube_035_mesh_layer_1_tri_2
                0x00000000070b7040                bob_dl_Cube_035_mesh_layer_1_vtx_2
                0x00000000070b7150                bob_dl_Cube_035_mesh_layer_1_tri_1
                0x00000000070b71f0                bob_dl_Cube_035_mesh_layer_1_vtx_1
                0x00000000070b7500                bob_dl_Cube_035_mesh_layer_1_tri_0
                0x00000000070b7560                bob_dl_Cube_035_mesh_layer_1_vtx_0
                0x00000000070b7720                bob_dl_Cube_035_mesh_layer_1_vtx_cull
                0x00000000070b77a0                bob_dl_Cube_034_mesh_layer_1_tri_0
                0x00000000070b7808                bob_dl_Cube_034_mesh_layer_1_vtx_0
                0x00000000070b7a48                bob_dl_Cube_034_mesh_layer_1_vtx_cull
                0x00000000070b7ac8                bob_dl_Cube_033_mesh_layer_1_tri_0
                0x00000000070b7b08                bob_dl_Cube_033_mesh_layer_1_vtx_0
                0x00000000070b7c88                bob_dl_Cube_033_mesh_layer_1_vtx_cull
                0x00000000070b7d08                bob_dl_Cube_032_mesh_layer_1_tri_0
                0x00000000070b7d48                bob_dl_Cube_032_mesh_layer_1_vtx_0
                0x00000000070b7ec8                bob_dl_Cube_032_mesh_layer_1_vtx_cull
                0x00000000070b7f48                bob_dl_Cube_031_mesh_layer_1_tri_0
                0x00000000070b7fb0                bob_dl_Cube_031_mesh_layer_1_vtx_0
                0x00000000070b81f0                bob_dl_Cube_031_mesh_layer_1_vtx_cull
                0x00000000070b8270                bob_dl_Cube_030_mesh_layer_1_tri_0
                0x00000000070b8308                bob_dl_Cube_030_mesh_layer_1_vtx_0
                0x00000000070b8608                bob_dl_Cube_030_mesh_layer_1_vtx_cull
                0x00000000070b8688                bob_dl_Cube_029_mesh_layer_4_tri_0
                0x00000000070b8768                bob_dl_Cube_029_mesh_layer_4_vtx_0
                0x00000000070b8b88                bob_dl_Cube_029_mesh_layer_4_vtx_cull
                0x00000000070b8c08                bob_dl_Cube_028_mesh_layer_1_tri_0
                0x00000000070b8ce8                bob_dl_Cube_028_mesh_layer_1_vtx_0
                0x00000000070b9108                bob_dl_Cube_028_mesh_layer_1_vtx_cull
                0x00000000070b9188                bob_dl_Cube_027_mesh_layer_1_tri_0
                0x00000000070b9350                bob_dl_Cube_027_mesh_layer_1_vtx_0
                0x00000000070b9f10                bob_dl_Cube_027_mesh_layer_1_vtx_cull
                0x00000000070b9f90                bob_dl_Cube_026_mesh_layer_1_tri_0
                0x00000000070b9fd0                bob_dl_Cube_026_mesh_layer_1_vtx_0
                0x00000000070ba150                bob_dl_Cube_026_mesh_layer_1_vtx_cull
                0x00000000070ba1d0                bob_dl_Cube_025_mesh_layer_1_tri_0
                0x00000000070ba210                bob_dl_Cube_025_mesh_layer_1_vtx_0
                0x00000000070ba390                bob_dl_Cube_025_mesh_layer_1_vtx_cull
                0x00000000070ba410                bob_dl_Cube_024_mesh_layer_1_tri_0
                0x00000000070ba450                bob_dl_Cube_024_mesh_layer_1_vtx_0
                0x00000000070ba5d0                bob_dl_Cube_024_mesh_layer_1_vtx_cull
                0x00000000070ba650                bob_dl_Cube_023_mesh_layer_1_tri_0
                0x00000000070ba690                bob_dl_Cube_023_mesh_layer_1_vtx_0
                0x00000000070ba810                bob_dl_Cube_023_mesh_layer_1_vtx_cull
                0x00000000070ba890                bob_dl_Cube_022_mesh_layer_1_tri_0
                0x00000000070baa58                bob_dl_Cube_022_mesh_layer_1_vtx_0
                0x00000000070bb618                bob_dl_Cube_022_mesh_layer_1_vtx_cull
                0x00000000070bb698                bob_dl_Cube_021_mesh_layer_1_tri_0
                0x00000000070bb860                bob_dl_Cube_021_mesh_layer_1_vtx_0
                0x00000000070bc420                bob_dl_Cube_021_mesh_layer_1_vtx_cull
                0x00000000070bc4a0                bob_dl_Cube_020_mesh_layer_1_tri_0
                0x00000000070bc668                bob_dl_Cube_020_mesh_layer_1_vtx_0
                0x00000000070bd228                bob_dl_Cube_020_mesh_layer_1_vtx_cull
                0x00000000070bd2a8                bob_dl_Cube_019_mesh_layer_1_tri_0
                0x00000000070bd470                bob_dl_Cube_019_mesh_layer_1_vtx_0
                0x00000000070be030                bob_dl_Cube_019_mesh_layer_1_vtx_cull
                0x00000000070be0b0                bob_dl_Cube_018_mesh_layer_1_tri_0
                0x00000000070be148                bob_dl_Cube_018_mesh_layer_1_vtx_0
                0x00000000070be448                bob_dl_Cube_018_mesh_layer_1_vtx_cull
                0x00000000070be4c8                bob_dl_Cube_017_mesh_layer_1_tri_0
                0x00000000070be690                bob_dl_Cube_017_mesh_layer_1_vtx_0
                0x00000000070bf250                bob_dl_Cube_017_mesh_layer_1_vtx_cull
                0x00000000070bf2d0                bob_dl_Cube_016_mesh_layer_1_tri_0
                0x00000000070bf420                bob_dl_Cube_016_mesh_layer_1_vtx_0
                0x00000000070bfc40                bob_dl_Cube_016_mesh_layer_1_vtx_cull
                0x00000000070bfcc0                bob_dl_Cube_015_mesh_layer_1_tri_0
                0x00000000070bfe10                bob_dl_Cube_015_mesh_layer_1_vtx_0
                0x00000000070c0630                bob_dl_Cube_015_mesh_layer_1_vtx_cull
                0x00000000070c06b0                bob_dl_Cube_014_mesh_layer_1_tri_0
                0x00000000070c0800                bob_dl_Cube_014_mesh_layer_1_vtx_0
                0x00000000070c1020                bob_dl_Cube_014_mesh_layer_1_vtx_cull
                0x00000000070c10a0                bob_dl_Cube_013_mesh_layer_1_tri_0
                0x00000000070c10e0                bob_dl_Cube_013_mesh_layer_1_vtx_0
                0x00000000070c1260                bob_dl_Cube_013_mesh_layer_1_vtx_cull
                0x00000000070c12e0                bob_dl_Cube_012_mesh_layer_1_tri_0
                0x00000000070c1430                bob_dl_Cube_012_mesh_layer_1_vtx_0
                0x00000000070c1c50                bob_dl_Cube_012_mesh_layer_1_vtx_cull
                0x00000000070c1cd0                bob_dl_Cube_011_mesh_layer_1_tri_0
                0x00000000070c1e20                bob_dl_Cube_011_mesh_layer_1_vtx_0
                0x00000000070c2640                bob_dl_Cube_011_mesh_layer_1_vtx_cull
                0x00000000070c26c0                bob_dl_Cube_010_mesh_layer_1_tri_0
                0x00000000070c2820                bob_dl_Cube_010_mesh_layer_1_vtx_0
                0x00000000070c3060                bob_dl_Cube_010_mesh_layer_1_vtx_cull
                0x00000000070c30e0                bob_dl_Cube_009_mesh_layer_1_tri_0
                0x00000000070c3240                bob_dl_Cube_009_mesh_layer_1_vtx_0
                0x00000000070c3a80                bob_dl_Cube_009_mesh_layer_1_vtx_cull
                0x00000000070c3b00                bob_dl_Cube_008_mesh_layer_1_tri_0
                0x00000000070c3b40                bob_dl_Cube_008_mesh_layer_1_vtx_0
                0x00000000070c3cc0                bob_dl_Cube_008_mesh_layer_1_vtx_cull
                0x00000000070c3d40                bob_dl_Cube_007_mesh_layer_1_tri_0
                0x00000000070c3d80                bob_dl_Cube_007_mesh_layer_1_vtx_0
                0x00000000070c3f00                bob_dl_Cube_007_mesh_layer_1_vtx_cull
                0x00000000070c3f80                bob_dl_Cube_006_mesh_layer_1_tri_0
                0x00000000070c3fc0                bob_dl_Cube_006_mesh_layer_1_vtx_0
                0x00000000070c4140                bob_dl_Cube_006_mesh_layer_1_vtx_cull
                0x00000000070c41c0                bob_dl_Cube_005_mesh_layer_1_tri_0
                0x00000000070c4320                bob_dl_Cube_005_mesh_layer_1_vtx_0
                0x00000000070c4b60                bob_dl_Cube_005_mesh_layer_1_vtx_cull
                0x00000000070c4be0                bob_dl_Cube_004_mesh_layer_1_tri_0
                0x00000000070c4c68                bob_dl_Cube_004_mesh_layer_1_vtx_0
                0x00000000070c4f88                bob_dl_Cube_004_mesh_layer_1_vtx_cull
                0x00000000070c5008                bob_dl_Cube_003_mesh_layer_1_tri_0
                0x00000000070c50b8                bob_dl_Cube_003_mesh_layer_1_vtx_0
                0x00000000070c5538                bob_dl_Cube_003_mesh_layer_1_vtx_cull
                0x00000000070c55b8                bob_dl_Cube_002_mesh_layer_1_tri_0
                0x00000000070c56a0                bob_dl_Cube_002_mesh_layer_1_vtx_0
                0x00000000070c5b60                bob_dl_Cube_002_mesh_layer_1_vtx_cull
                0x00000000070c5be0                bob_dl_Cube_001_mesh_layer_1_tri_0
                0x00000000070c5c20                bob_dl_Cube_001_mesh_layer_1_vtx_0
                0x00000000070c5da0                bob_dl_Cube_001_mesh_layer_1_vtx_cull
                0x00000000070c5e20                bob_dl_Cube_mesh_layer_1_tri_0
                0x00000000070c5fe8                bob_dl_Cube_mesh_layer_1_vtx_0
                0x00000000070c6ba8                bob_dl_Cube_mesh_layer_1_vtx_cull
                0x00000000070c6c28                bob_dl_bell_mesh_layer_1_tri_0
                0x00000000070c7b80                bob_dl_bell_mesh_layer_1_vtx_0
                0x00000000070ce280                bob_dl_bell_mesh_layer_1_vtx_cull
                0x00000000070ce300                bob_dl_Beach_Chairs_and_Umbrella_mesh_layer_1_tri_1
                0x00000000070ce350                bob_dl_Beach_Chairs_and_Umbrella_mesh_layer_1_vtx_1
                0x00000000070ce460                bob_dl_Beach_Chairs_and_Umbrella_mesh_layer_1_tri_0
                0x00000000070cee78                bob_dl_Beach_Chairs_and_Umbrella_mesh_layer_1_vtx_0
                0x00000000070d22d8                bob_dl_Beach_Chairs_and_Umbrella_mesh_layer_1_vtx_cull
                0x00000000070d2358                bob_dl_rgba16_anonmoose_GreenishSquare_pal_rgba16
                0x00000000070d2380                bob_dl_rgba16_anonmoose_GreenishSquare_pal_rgba16_aligner
                0x00000000070d2388                bob_dl_rgba16_anonmoose_GreenishSquare_ci8
                0x00000000070d2788                bob_dl_rgba16_anonmoose_GreenishSquare_ci8_aligner
                0x00000000070d2790                bob_dl_circle_pal_rgba16
                0x00000000070d2798                bob_dl_circle_pal_rgba16_aligner
                0x00000000070d27a0                bob_dl_circle_ci8
                0x00000000070d2ba0                bob_dl_circle_ci8_aligner
                0x00000000070d2ba8                bob_dl_star_pal_rgba16
                0x00000000070d2c90                bob_dl_star_pal_rgba16_aligner
                0x00000000070d2c98                bob_dl_star_ci8
                0x00000000070d3098                bob_dl_star_ci8_aligner
                0x00000000070d30a0                bob_dl__1_pal_rgba16
                0x00000000070d3108                bob_dl__1_pal_rgba16_aligner
                0x00000000070d3110                bob_dl__1_ci8
                0x00000000070d3510                _::bob_dl(char, int, _aligner)
                0x00000000070d3518                bob_dl_ci4_sophie_tablecloth_pal_rgba16
                0x00000000070d3538                bob_dl_ci4_sophie_tablecloth_pal_rgba16_aligner
                0x00000000070d3540                bob_dl_ci4_sophie_tablecloth_ci4
                0x00000000070d3d40                bob_dl_ci4_sophie_tablecloth_ci4_aligner
                0x00000000070d3d48                bob_dl_ci4_anonmoose_whiteblock_pal_rgba16
                0x00000000070d3d68                bob_dl_ci4_anonmoose_whiteblock_pal_rgba16_aligner
                0x00000000070d3d70                bob_dl_ci4_anonmoose_whiteblock_ci4
                0x00000000070d4570                bob_dl_ci4_anonmoose_whiteblock_ci4_aligner
                0x00000000070d4578                bob_dl_ci4_sophie_metal2_pal_rgba16
                0x00000000070d4598                bob_dl_ci4_sophie_metal2_pal_rgba16_aligner
                0x00000000070d45a0                bob_dl_ci4_sophie_metal2_ci4
                0x00000000070d4da0                bob_dl_ci4_sophie_metal2_ci4_aligner
                0x00000000070d4da8                bob_dl_rgba16_anonmoose_envmap_gold1_pal_rgba16
                0x00000000070d4f18                bob_dl_rgba16_anonmoose_envmap_gold1_pal_rgba16_aligner
                0x00000000070d4f20                bob_dl_rgba16_anonmoose_envmap_gold1_ci8
                0x00000000070d5320                bob_dl_rgba16_anonmoose_envmap_gold1_ci8_aligner
                0x00000000070d5328                bob_dl_slab_pal_rgba16
                0x00000000070d5360                bob_dl_slab_pal_rgba16_aligner
                0x00000000070d5368                bob_dl_slab_ci8
                0x00000000070d5768                bob_dl_slab_ci8_aligner
                0x00000000070d5770                bob_dl__6_pal_rgba16
                0x00000000070d5958                bob_dl__6_pal_rgba16_aligner
                0x00000000070d5960                bob_dl__6_ci8
                0x00000000070d5d60                bob_dl__6_ci8_aligner
                0x00000000070d5d68                bob_dl__0_pal_rgba16
                0x00000000070d5e98                bob_dl__0_pal_rgba16_aligner
                0x00000000070d5ea0                bob_dl__0_ci8
                0x00000000070d62a0                bob_dl__0_ci8_aligner
                0x00000000070d62a8                bob_dl__12_pal_rgba16
                0x00000000070d6310                bob_dl__12_pal_rgba16_aligner
                0x00000000070d6318                bob_dl__12_ci8
                0x00000000070d6718                _ci8_aligner::bob_dl(void)
                0x00000000070d6720                bob_dl_ci4_sophie_interiorwall_pal_rgba16
                0x00000000070d6738                bob_dl_ci4_sophie_interiorwall_pal_rgba16_aligner
                0x00000000070d6740                bob_dl_ci4_sophie_interiorwall_ci4
                0x00000000070d6f40                bob_dl_ci4_sophie_interiorwall_ci4_aligner
                0x00000000070d6f48                bob_dl_light_pal_rgba16
                0x00000000070d6f50                bob_dl_light_pal_rgba16_aligner
                0x00000000070d6f58                bob_dl_light_ci4
                0x00000000070d7158                bob_dl_light_ci4_aligner
                0x00000000070d7160                bob_dl_rings_pal_rgba16
                0x00000000070d7240                bob_dl_rings_pal_rgba16_aligner
                0x00000000070d7248                bob_dl_rings_ci8
                0x00000000070d7648                bob_dl_rings_ci8_aligner
                0x00000000070d7650                bob_dl_ci4_anonmoose_treebark1_pal_rgba16
                0x00000000070d7670                bob_dl_ci4_anonmoose_treebark1_pal_rgba16_aligner
                0x00000000070d7678                bob_dl_ci4_anonmoose_treebark1_ci4
                0x00000000070d7e78                bob_dl_ci4_anonmoose_treebark1_ci4_aligner
                0x00000000070d7e80                bob_dl_ci4_sophie_rooftile_pal_rgba16
                0x00000000070d7ea0                bob_dl_ci4_sophie_rooftile_pal_rgba16_aligner
                0x00000000070d7ea8                bob_dl_ci4_sophie_rooftile_ci4
                0x00000000070d86a8                bob_dl_ci4_sophie_rooftile_ci4_aligner
                0x00000000070d86b0                bob_dl_grate_pal_rgba16
                0x00000000070d8798                bob_dl_grate_pal_rgba16_aligner
                0x00000000070d87a0                bob_dl_grate_ci8
                0x00000000070d8ba0                bob_dl_grate_ci8_aligner
                0x00000000070d8ba8                bob_dl__7_pal_rgba16
                0x00000000070d8c68                bob_dl__7_pal_rgba16_aligner
                0x00000000070d8c70                bob_dl__7_ci8
                0x00000000070d9070                bob_dl__7_ci8_aligner
                0x00000000070d9078                bob_dl_ci4_sophie_broom_pal_rgba16
                0x00000000070d9098                bob_dl_ci4_sophie_broom_pal_rgba16_aligner
                0x00000000070d90a0                bob_dl_ci4_sophie_broom_ci4
                0x00000000070d98a0                bob_dl_ci4_sophie_broom_ci4_aligner
                0x00000000070d98a8                bob_dl_rgba16_anonmoose_swirl1_pal_rgba16_copy
                0x00000000070d98f8                bob_dl_rgba16_anonmoose_swirl1_pal_rgba16_copy_aligner
                0x00000000070d9900                bob_dl_rgba16_anonmoose_swirl1_ci8_copy
                0x00000000070d9d00                bob_dl_rgba16_anonmoose_swirl1_ci8_copy_aligner
                0x00000000070d9d08                bob_dl_ci4_anonmoose_Tiles1_pal_rgba16
                0x00000000070d9d28                bob_dl_ci4_anonmoose_Tiles1_pal_rgba16_aligner
                0x00000000070d9d30                bob_dl_ci4_anonmoose_Tiles1_ci4
                0x00000000070da530                bob_dl_ci4_anonmoose_Tiles1_ci4_aligner
                0x00000000070da538                bob_dl_rgba16_anonmoose_swirl1_pal_rgba16
                0x00000000070da588                bob_dl_rgba16_anonmoose_swirl1_pal_rgba16_aligner
                0x00000000070da590                bob_dl_rgba16_anonmoose_swirl1_ci8
                0x00000000070da990                bob_dl_rgba16_anonmoose_swirl1_ci8_aligner
                0x00000000070da998                bob_dl_ci4_anonmoose_Dirt1_pal_rgba16
                0x00000000070da9d0                bob_dl_ci4_anonmoose_Dirt1_pal_rgba16_aligner
                0x00000000070da9d8                bob_dl_ci4_anonmoose_Dirt1_ci8
                0x00000000070dadd8                bob_dl_ci4_anonmoose_Dirt1_ci8_aligner
                0x00000000070dade0                bob_dl_rgba16_sophie_caution_pal_rgba16
                0x00000000070dae58                bob_dl_rgba16_sophie_caution_pal_rgba16_aligner
                0x00000000070dae60                bob_dl_rgba16_sophie_caution_ci8
                0x00000000070db660                bob_dl_rgba16_sophie_caution_ci8_aligner
                0x00000000070db668                bob_dl_ci4_sophie_hay_pal_rgba16
                0x00000000070db688                bob_dl_ci4_sophie_hay_pal_rgba16_aligner
                0x00000000070db690                bob_dl_ci4_sophie_hay_ci4
                0x00000000070dbe90                bob_dl_ci4_sophie_hay_ci4_aligner
                0x00000000070dbe98                bob_dl_ci4_sophie_wood2_pal_rgba16
                0x00000000070dbeb8                bob_dl_ci4_sophie_wood2_pal_rgba16_aligner
                0x00000000070dbec0                bob_dl_ci4_sophie_wood2_ci4
                0x00000000070dc6c0                bob_dl_ci4_sophie_wood2_ci4_aligner
                0x00000000070dc6c8                bob_area_1_macro_objs
                0x00000000070dc6cc                bob_area_1_collision
                0x0000000007112dd8                bob_seg7_trajectory_koopa
                0x0000000007112efc                bob_seg7_metal_ball_path1
                0x0000000007112fd8                bob_seg7_metal_ball_path0
                0x000000000711306c                bob_seg7_collision_gate
                0x0000000007113144                bob_seg7_collision_bridge
                0x00000000071131e0                bob_seg7_collision_chain_chomp_gate
                0x0000000007113214                bob_seg7_macro_objs
                0x0000000007113588                bob_seg7_collision_level
                0x00000000071164c8                bob_seg7_dl_0700E8A0
                0x0000000007116608                bob_seg7_dl_0700E768
                0x00000000071168d0                bob_seg7_dl_0700E458
                0x00000000071169f8                bob_seg7_dl_0700E338
                0x0000000007116f28                bob_seg7_dl_0700DD18
                0x0000000007119e30                bob_seg7_dl_0700A920
                0x000000000711a2d8                bob_seg7_dl_0700A470
                0x000000000711a8a8                bob_seg7_dl_07009D80
                0x000000000711fc18                bob_seg7_dl_07004390

.data1
 *(.data1)

.got.plt
 *(.got.plt)
                0x0000000007123de0                . = .
                0x0000000007123de0                . = .
                0x000000000712bdd0                _gp = (ALIGN (0x10) + 0x7ff0)

.got
 *(.got)

.sdata
 *(.sdata .sdata.* .gnu.linkonce.s.*)

.lit8
 *(.lit8)

.lit4
 *(.lit4)
                0x0000000007123de0                _edata = .
                [!provide]                        PROVIDE (edata = .)
                0x0000000007123de0                . = .
                0x0000000007123de0                __bss_start = .
                0x0000000007123de0                _fbss = .

.sbss
 *(.dynsbss)
 *(.sbss .sbss.* .gnu.linkonce.sb.*)
 *(.scommon)

.bss            0x0000000007123de0        0x0 load address 0x0000000007123df8
 *(.dynbss)
 *(.bss .bss.* .gnu.linkonce.b.*)
 .bss           0x0000000007123de0        0x0 build/us_n64/levels/bob/leveldata.o
 *(COMMON)
                0x0000000007123de0                . = ALIGN ((. != 0x0)?0x4:0x1)
                0x0000000007123de0                . = ALIGN (0x4)
                0x0000000007123de0                . = SEGMENT_START ("ldata-segment", .)
                0x0000000007123de0                . = ALIGN (0x4)
                0x0000000007123de0                _end = .
                [!provide]                        PROVIDE (end = .)
                0x0000000007123de0                . = DATA_SEGMENT_END (.)

.stab
 *(.stab)

.stabstr
 *(.stabstr)

.stab.excl
 *(.stab.excl)

.stab.exclstr
 *(.stab.exclstr)

.stab.index
 *(.stab.index)

.stab.indexstr
 *(.stab.indexstr)

.comment        0x0000000000000000       0x12
 *(.comment)
 .comment       0x0000000000000000       0x12 build/us_n64/levels/bob/leveldata.o
                                         0x13 (size before relaxing)

.pdr            0x0000000000000000        0x0
 .pdr           0x0000000000000000        0x0 build/us_n64/levels/bob/leveldata.o

.debug
 *(.debug)

.line
 *(.line)

.debug_srcinfo
 *(.debug_srcinfo)

.debug_sfnames
 *(.debug_sfnames)

.debug_aranges
 *(.debug_aranges)

.debug_pubnames
 *(.debug_pubnames)

.debug_info
 *(.debug_info .gnu.linkonce.wi.*)

.debug_abbrev
 *(.debug_abbrev)

.debug_line
 *(.debug_line .debug_line.* .debug_line_end)

.debug_frame
 *(.debug_frame)

.debug_str
 *(.debug_str)

.debug_loc
 *(.debug_loc)

.debug_macinfo
 *(.debug_macinfo)

.debug_weaknames
 *(.debug_weaknames)

.debug_funcnames
 *(.debug_funcnames)

.debug_typenames
 *(.debug_typenames)

.debug_varnames
 *(.debug_varnames)

.debug_pubtypes
 *(.debug_pubtypes)

.debug_ranges
 *(.debug_ranges)

.debug_macro
 *(.debug_macro)

.debug_addr
 *(.debug_addr)

.gnu.attributes
                0x0000000000000000       0x10
 *(.gnu.attributes)
 .gnu.attributes
                0x0000000000000000       0x10 build/us_n64/levels/bob/leveldata.o

.gptab.sdata
 *(.gptab.data)
 *(.gptab.sdata)

.gptab.sbss
 *(.gptab.bss)
 *(.gptab.sbss)

.mdebug.abi32   0x0000000000000000        0x0
 *(.mdebug.abi32)
 .mdebug.abi32  0x0000000000000000        0x0 build/us_n64/levels/bob/leveldata.o

.mdebug.abiN32
 *(.mdebug.abiN32)

.mdebug.abi64
 *(.mdebug.abi64)

.mdebug.abiO64
 *(.mdebug.abiO64)

.mdebug.eabi32
 *(.mdebug.eabi32)

.mdebug.eabi64
 *(.mdebug.eabi64)

.gcc_compiled_long32
 *(.gcc_compiled_long32)

.gcc_compiled_long64
 *(.gcc_compiled_long64)

/DISCARD/
 *(.note.GNU-stack)
 *(.gnu_debuglink)
 *(.gnu.lto_*)
OUTPUT(build/us_n64/levels/bob/leveldata.elf elf32-bigmips)
