
Memory Configuration

Name             Origin             Length             Attributes
*default*        0x0000000000000000 0xffffffffffffffff

Linker script and memory map

Address of section .text set to 0x7000000
LOAD build/us_n64/bin/water.elf
LOAD build/us_n64/levels/jrb/leveldata.o
                [!provide]                        PROVIDE (__executable_start = SEGMENT_START ("text-segment", 0x400000))
                0x0000000000400000                . = SEGMENT_START ("text-segment", 0x400000)

.interp
 *(.interp)

.MIPS.abiflags  0x0000000000400000       0x18
 *(.MIPS.abiflags)
 .MIPS.abiflags
                0x0000000000400000       0x18 build/us_n64/levels/jrb/leveldata.o

.reginfo        0x0000000000400018       0x18
 *(.reginfo)
 .reginfo       0x0000000000400018       0x18 build/us_n64/levels/jrb/leveldata.o

.note.gnu.build-id
 *(.note.gnu.build-id)

.dynamic
 *(.dynamic)

.hash
 *(.hash)

.gnu.hash
 *(.gnu.hash)

.dynsym
 *(.dynsym)

.dynstr
 *(.dynstr)

.gnu.version
 *(.gnu.version)

.gnu.version_d
 *(.gnu.version_d)

.gnu.version_r
 *(.gnu.version_r)

.rel.dyn        0x0000000000400018        0x0 load address 0x0000000000400030
 *(.rel.init)
 *(.rel.text .rel.text.* .rel.gnu.linkonce.t.*)
 *(.rel.fini)
 *(.rel.rodata .rel.rodata.* .rel.gnu.linkonce.r.*)
 *(.rel.data.rel.ro .rel.data.rel.ro.* .rel.gnu.linkonce.d.rel.ro.*)
 *(.rel.data .rel.data.* .rel.gnu.linkonce.d.*)
 *(.rel.tdata .rel.tdata.* .rel.gnu.linkonce.td.*)
 *(.rel.tbss .rel.tbss.* .rel.gnu.linkonce.tb.*)
 *(.rel.ctors)
 *(.rel.dtors)
 *(.rel.got)
 *(.rel.dyn)
 .rel.dyn       0x0000000000400018        0x0 build/us_n64/levels/jrb/leveldata.o
 *(.rel.sdata .rel.sdata.* .rel.gnu.linkonce.s.*)
 *(.rel.sbss .rel.sbss.* .rel.gnu.linkonce.sb.*)
 *(.rel.sdata2 .rel.sdata2.* .rel.gnu.linkonce.s2.*)
 *(.rel.sbss2 .rel.sbss2.* .rel.gnu.linkonce.sb2.*)
 *(.rel.bss .rel.bss.* .rel.gnu.linkonce.b.*)
                [!provide]                        PROVIDE (__rel_iplt_start = .)
 *(.rel.iplt)
                [!provide]                        PROVIDE (__rel_iplt_end = .)

.rela.dyn       0x0000000000400018        0x0
 *(.rela.init)
 *(.rela.text .rela.text.* .rela.gnu.linkonce.t.*)
 *(.rela.fini)
 *(.rela.rodata .rela.rodata.* .rela.gnu.linkonce.r.*)
 *(.rela.data .rela.data.* .rela.gnu.linkonce.d.*)
 *(.rela.tdata .rela.tdata.* .rela.gnu.linkonce.td.*)
 *(.rela.tbss .rela.tbss.* .rela.gnu.linkonce.tb.*)
 *(.rela.ctors)
 *(.rela.dtors)
 *(.rela.got)
 *(.rela.sdata .rela.sdata.* .rela.gnu.linkonce.s.*)
 *(.rela.sbss .rela.sbss.* .rela.gnu.linkonce.sb.*)
 *(.rela.sdata2 .rela.sdata2.* .rela.gnu.linkonce.s2.*)
 *(.rela.sbss2 .rela.sbss2.* .rela.gnu.linkonce.sb2.*)
 *(.rela.bss .rela.bss.* .rela.gnu.linkonce.b.*)
                [!provide]                        PROVIDE (__rela_iplt_start = .)
 *(.rela.iplt)
                [!provide]                        PROVIDE (__rela_iplt_end = .)

.rel.plt
 *(.rel.plt)

.rela.plt
 *(.rela.plt)

.init
 *(SORT_NONE(.init))

.plt
 *(.plt)

.iplt
 *(.iplt)

.text           0x0000000007000000        0x0 load address 0x0000000007000018
                0x0000000007000000                _ftext = .
 *(.text.unlikely .text.*_unlikely .text.unlikely.*)
 *(.text.exit .text.exit.*)
 *(.text.startup .text.startup.*)
 *(.text.hot .text.hot.*)
 *(.text .stub .text.* .gnu.linkonce.t.*)
 .text          0x0000000007000000        0x0 build/us_n64/levels/jrb/leveldata.o
 *(.gnu.warning)
 *(.mips16.fn.*)
 *(.mips16.call.*)

.fini
 *(SORT_NONE(.fini))
                [!provide]                        PROVIDE (__etext = .)
                [!provide]                        PROVIDE (_etext = .)
                [!provide]                        PROVIDE (etext = .)

.rodata
 *(.rodata .rodata.* .gnu.linkonce.r.*)

.rodata1
 *(.rodata1)

.sdata2
 *(.sdata2 .sdata2.* .gnu.linkonce.s2.*)

.sbss2
 *(.sbss2 .sbss2.* .gnu.linkonce.sb2.*)

.eh_frame_hdr
 *(.eh_frame_hdr)
 *(.eh_frame_entry .eh_frame_entry.*)

.eh_frame
 *(.eh_frame)
 *(.eh_frame.*)

.gcc_except_table
 *(.gcc_except_table .gcc_except_table.*)

.gnu_extab
 *(.gnu_extab*)

.exception_ranges
 *(.exception_ranges .exception_ranges*)
                0x0000000007000000                . = DATA_SEGMENT_ALIGN (CONSTANT (MAXPAGESIZE), CONSTANT (COMMONPAGESIZE))

.eh_frame
 *(.eh_frame)
 *(.eh_frame.*)

.gnu_extab
 *(.gnu_extab)

.gcc_except_table
 *(.gcc_except_table .gcc_except_table.*)

.exception_ranges
 *(.exception_ranges .exception_ranges*)

.tdata
 *(.tdata .tdata.* .gnu.linkonce.td.*)

.tbss
 *(.tbss .tbss.* .gnu.linkonce.tb.*)
 *(.tcommon)

.preinit_array  0x0000000007000000        0x0
                [!provide]                        PROVIDE (__preinit_array_start = .)
 *(.preinit_array)
                [!provide]                        PROVIDE (__preinit_array_end = .)

.init_array     0x0000000007000000        0x0
                [!provide]                        PROVIDE (__init_array_start = .)
 *(SORT_BY_INIT_PRIORITY(.init_array.*) SORT_BY_INIT_PRIORITY(.ctors.*))
 *(.init_array EXCLUDE_FILE(*crtend?.o *crtend.o *crtbegin?.o *crtbegin.o) .ctors)
                [!provide]                        PROVIDE (__init_array_end = .)

.fini_array     0x0000000007000000        0x0
                [!provide]                        PROVIDE (__fini_array_start = .)
 *(SORT_BY_INIT_PRIORITY(.fini_array.*) SORT_BY_INIT_PRIORITY(.dtors.*))
 *(.fini_array EXCLUDE_FILE(*crtend?.o *crtend.o *crtbegin?.o *crtbegin.o) .dtors)
                [!provide]                        PROVIDE (__fini_array_end = .)

.ctors
 *crtbegin.o(.ctors)
 *crtbegin?.o(.ctors)
 *(EXCLUDE_FILE(*crtend?.o *crtend.o) .ctors)
 *(SORT_BY_NAME(.ctors.*))
 *(.ctors)

.dtors
 *crtbegin.o(.dtors)
 *crtbegin?.o(.dtors)
 *(EXCLUDE_FILE(*crtend?.o *crtend.o) .dtors)
 *(SORT_BY_NAME(.dtors.*))
 *(.dtors)

.jcr
 *(.jcr)

.data.rel.ro
 *(.data.rel.ro.local* .gnu.linkonce.d.rel.ro.local.*)
 *(.data.rel.ro .data.rel.ro.* .gnu.linkonce.d.rel.ro.*)
                0x0000000007000000                . = DATA_SEGMENT_RELRO_END (., 0x0)

.data           0x0000000007000000    0xebf40 load address 0x0000000007000018
                0x0000000007000000                _fdata = .
 *(.data .data.* .gnu.linkonce.d.*)
 .data          0x0000000007000000    0xebf40 build/us_n64/levels/jrb/leveldata.o
                0x0000000007000000                jrb_dl_final_revert_mesh_layer_4
                0x0000000007000040                jrb_dl_final_revert_mesh_layer_5
                0x0000000007000080                jrb_dl_final_revert_mesh_layer_6
                0x00000000070000c0                jrb_dl_final_revert_mesh_layer_1
                0x0000000007000100                jrb_dl_wind_grate_010_mesh_layer_4
                0x0000000007000140                jrb_dl_wind_grate_009_mesh_layer_4
                0x0000000007000180                jrb_dl_wind_grate_008_mesh_layer_4
                0x00000000070001c0                jrb_dl_wind_grate_007_mesh_layer_4
                0x0000000007000200                jrb_dl_wind_grate_006_mesh_layer_4
                0x0000000007000240                jrb_dl_wind_grate_005_mesh_layer_4
                0x0000000007000280                jrb_dl_wind_grate_004_mesh_layer_4
                0x00000000070002c0                jrb_dl_wind_grate_003_mesh_layer_4
                0x0000000007000300                jrb_dl_wind_grate_002_mesh_layer_4
                0x0000000007000340                jrb_dl_wind_grate_001_mesh_layer_4
                0x0000000007000380                jrb_dl_waterfall_mesh_layer_5
                0x00000000070003c0                jrb_dl_wall_002_mesh_layer_1
                0x0000000007000400                jrb_dl_wall_001_mesh_layer_1
                0x0000000007000458                jrb_dl_wall_mesh_layer_1
                0x0000000007000498                jrb_dl_small_fan_004_mesh_layer_1
                0x00000000070004f0                jrb_dl_small_fan_003_mesh_layer_1
                0x0000000007000548                jrb_dl_small_fan_002_mesh_layer_1
                0x00000000070005a0                jrb_dl_small_fan_001_mesh_layer_1
                0x00000000070005f8                jrb_dl_SM_Fountain_02_mesh_layer_1
                0x0000000007000668                jrb_dl_rock_012_mesh_layer_1
                0x00000000070006d8                jrb_dl_rock_011_mesh_layer_1
                0x0000000007000718                jrb_dl_rock_010_mesh_layer_1
                0x0000000007000758                jrb_dl_rock_009_mesh_layer_1
                0x0000000007000798                jrb_dl_rock_008_mesh_layer_1
                0x0000000007000808                jrb_dl_rock_007_mesh_layer_1
                0x0000000007000878                jrb_dl_rock_006_mesh_layer_1
                0x00000000070008e8                jrb_dl_rock_005_mesh_layer_1
                0x0000000007000928                jrb_dl_rock_004_mesh_layer_1
                0x0000000007000968                jrb_dl_rock_003_mesh_layer_1
                0x00000000070009a8                jrb_dl_rock_002_mesh_layer_1
                0x00000000070009e8                jrb_dl_rock_001_mesh_layer_1
                0x0000000007000a28                jrb_dl_rock_mesh_layer_1
                0x0000000007000a68                jrb_dl_render_048_mesh_layer_1
                0x0000000007000ac0                jrb_dl_Plane_mesh_layer_6
                0x0000000007000b00                jrb_dl_pillar_030_mesh_layer_1
                0x0000000007000b40                jrb_dl_pillar_029_mesh_layer_1
                0x0000000007000b80                jrb_dl_pillar_028_mesh_layer_1
                0x0000000007000bc0                jrb_dl_pillar_027_mesh_layer_1
                0x0000000007000c00                jrb_dl_pillar_026_mesh_layer_1
                0x0000000007000c40                jrb_dl_pillar_025_mesh_layer_1
                0x0000000007000c80                jrb_dl_pillar_024_mesh_layer_1
                0x0000000007000cc0                jrb_dl_pillar_019_mesh_layer_1
                0x0000000007000d00                jrb_dl_pillar_014_mesh_layer_1
                0x0000000007000d40                jrb_dl_pillar_013_mesh_layer_1
                0x0000000007000d80                jrb_dl_pillar_012_mesh_layer_1
                0x0000000007000dc0                jrb_dl_pillar_011_mesh_layer_1
                0x0000000007000e00                jrb_dl_pillar_010_mesh_layer_1
                0x0000000007000e40                jrb_dl_pillar_009_mesh_layer_1
                0x0000000007000e80                jrb_dl_pillar_008_mesh_layer_1
                0x0000000007000ec0                jrb_dl_pillar_007_mesh_layer_1
                0x0000000007000f00                jrb_dl_pillar_006_mesh_layer_1
                0x0000000007000f40                jrb_dl_pillar_005_mesh_layer_1
                0x0000000007000f80                jrb_dl_pillar_004_mesh_layer_1
                0x0000000007000fc0                jrb_dl_pillar_003_mesh_layer_1
                0x0000000007001000                jrb_dl_pillar_002_mesh_layer_1
                0x0000000007001040                jrb_dl_pillar_001_mesh_layer_1
                0x0000000007001080                jrb_dl_pillar_mesh_layer_1
                0x00000000070010f0                jrb_dl_path_002_mesh_layer_6
                0x0000000007001130                jrb_dl_path_001_mesh_layer_6
                0x0000000007001170                jrb_dl_path_mesh_layer_6
                0x00000000070011b0                jrb_dl_mossy_stone_019_mesh_layer_1
                0x00000000070011f0                jrb_dl_mossy_stone_018_mesh_layer_1
                0x0000000007001230                jrb_dl_mossy_stone_017_mesh_layer_1
                0x0000000007001270                jrb_dl_mossy_stone_016_mesh_layer_1
                0x00000000070012b0                jrb_dl_mossy_stone_015_mesh_layer_1
                0x00000000070012f0                jrb_dl_mossy_stone_014_mesh_layer_1
                0x0000000007001330                jrb_dl_mossy_stone_013_mesh_layer_1
                0x0000000007001370                jrb_dl_mossy_stone_012_mesh_layer_1
                0x00000000070013b0                jrb_dl_mossy_stone_011_mesh_layer_1
                0x00000000070013f0                jrb_dl_mossy_stone_010_mesh_layer_1
                0x0000000007001430                jrb_dl_mossy_stone_009_mesh_layer_1
                0x0000000007001470                jrb_dl_mossy_stone_008_mesh_layer_1
                0x00000000070014b0                jrb_dl_mossy_stone_007_mesh_layer_1
                0x00000000070014f0                jrb_dl_mossy_stone_006_mesh_layer_1
                0x0000000007001530                jrb_dl_mossy_stone_005_mesh_layer_1
                0x0000000007001570                jrb_dl_mossy_stone_004_mesh_layer_1
                0x00000000070015b0                jrb_dl_mossy_stone_003_mesh_layer_1
                0x00000000070015f0                jrb_dl_mossy_stone_002_mesh_layer_1
                0x0000000007001630                jrb_dl_mossy_stone_001_mesh_layer_1
                0x0000000007001670                jrb_dl_mossy_stone_mesh_layer_1
                0x00000000070016b0                jrb_dl_Mesh_Owl_mesh_layer_1
                0x00000000070016f0                jrb_dl_massive_pillar_003_mesh_layer_4
                0x0000000007001730                jrb_dl_massive_pillar_mesh_layer_1
                0x00000000070017e8                jrb_dl_Icosphere_015_mesh_layer_1
                0x0000000007001828                jrb_dl_Icosphere_008_mesh_layer_1
                0x0000000007001868                jrb_dl_Icosphere_007_mesh_layer_1
                0x00000000070018a8                jrb_dl_Icosphere_006_mesh_layer_1
                0x00000000070018e8                jrb_dl_Icosphere_005_mesh_layer_1
                0x0000000007001928                jrb_dl_Icosphere_004_mesh_layer_1
                0x0000000007001968                jrb_dl_Icosphere_003_mesh_layer_1
                0x00000000070019a8                jrb_dl_Icosphere_002_mesh_layer_1
                0x00000000070019e8                jrb_dl_Icosphere_001_mesh_layer_1
                0x0000000007001a28                jrb_dl_Houses_SecondAge_3_Level1_004_mesh_layer_1
                0x0000000007001ac8                jrb_dl_Houses_SecondAge_3_Level1_003_mesh_layer_1
                0x0000000007001b68                jrb_dl_Houses_SecondAge_3_Level1_002_mesh_layer_1
                0x0000000007001c08                jrb_dl_Houses_SecondAge_3_Level1_001_mesh_layer_1
                0x0000000007001ca8                jrb_dl_Houses_SecondAge_3_Level1_mesh_layer_1
                0x0000000007001d48                jrb_dl_Houses_SecondAge_1_Level1_001_mesh_layer_1
                0x0000000007001de8                jrb_dl_flowers_002_mesh_layer_5
                0x0000000007001e28                jrb_dl_flowers_002_mesh_layer_4
                0x0000000007001e68                jrb_dl_flowers_001_mesh_layer_5
                0x0000000007001ea8                jrb_dl_flowers_001_mesh_layer_4
                0x0000000007001ee8                jrb_dl_flowers_mesh_layer_5
                0x0000000007001f28                jrb_dl_flowers_mesh_layer_4
                0x0000000007001f68                jrb_dl_death_plane_mesh_layer_1
                0x0000000007001fa8                jrb_dl_Cylinder_006_mesh_layer_1
                0x0000000007002018                jrb_dl_Cylinder_005_mesh_layer_1
                0x0000000007002070                jrb_dl_Cylinder_004_mesh_layer_1
                0x00000000070020c8                jrb_dl_Cylinder_003_mesh_layer_1
                0x0000000007002120                jrb_dl_Cylinder_002_mesh_layer_1
                0x0000000007002178                jrb_dl_Cylinder_001_mesh_layer_6
                0x00000000070021b8                jrb_dl_Cylinder_mesh_layer_1
                0x0000000007002228                jrb_dl_Cube_064_mesh_layer_1
                0x00000000070022e0                jrb_dl_Cube_058_mesh_layer_1
                0x0000000007002320                jrb_dl_Cube_056_mesh_layer_1
                0x0000000007002378                jrb_dl_Cube_055_mesh_layer_1
                0x00000000070023b8                jrb_dl_Cube_054_mesh_layer_6
                0x00000000070023f8                jrb_dl_Cube_053_mesh_layer_6
                0x0000000007002438                jrb_dl_Cube_051_mesh_layer_1
                0x0000000007002478                jrb_dl_Cube_050_mesh_layer_1
                0x00000000070024d0                jrb_dl_Cube_049_mesh_layer_1
                0x0000000007002528                jrb_dl_Cube_048_mesh_layer_1
                0x0000000007002568                jrb_dl_Cube_047_mesh_layer_1
                0x00000000070025a8                jrb_dl_Cube_046_mesh_layer_6
                0x00000000070025e8                jrb_dl_Cube_045_mesh_layer_1
                0x0000000007002640                jrb_dl_Cube_044_mesh_layer_1
                0x0000000007002698                jrb_dl_Cube_043_mesh_layer_1
                0x00000000070026d8                jrb_dl_Cube_042_mesh_layer_1
                0x0000000007002730                jrb_dl_Cube_041_mesh_layer_1
                0x0000000007002770                jrb_dl_Cube_040_mesh_layer_1
                0x00000000070027b0                jrb_dl_Cube_039_mesh_layer_1
                0x00000000070027f0                jrb_dl_Cube_038_mesh_layer_5
                0x0000000007002830                jrb_dl_Cube_037_mesh_layer_1
                0x0000000007002870                jrb_dl_Cube_036_mesh_layer_1
                0x00000000070028c8                jrb_dl_Cube_035_mesh_layer_5
                0x0000000007002908                jrb_dl_Cube_035_mesh_layer_4
                0x0000000007002948                jrb_dl_Cube_035_mesh_layer_1
                0x0000000007002a60                jrb_dl_Cube_034_mesh_layer_1
                0x0000000007002ab8                jrb_dl_Cube_033_mesh_layer_6
                0x0000000007002af8                jrb_dl_Cube_032_mesh_layer_1
                0x0000000007002b38                jrb_dl_Cube_031_mesh_layer_1
                0x0000000007002b90                jrb_dl_Cube_030_mesh_layer_1
                0x0000000007002bd0                jrb_dl_Cube_029_mesh_layer_1
                0x0000000007002c10                jrb_dl_Cube_028_mesh_layer_1
                0x0000000007002c50                jrb_dl_Cube_027_mesh_layer_6
                0x0000000007002c90                jrb_dl_Cube_026_mesh_layer_1
                0x0000000007002ce8                jrb_dl_Cube_024_mesh_layer_1
                0x0000000007002d40                jrb_dl_Cube_023_mesh_layer_5
                0x0000000007002d80                jrb_dl_Cube_022_mesh_layer_6
                0x0000000007002dc0                jrb_dl_Cube_021_mesh_layer_1
                0x0000000007002e18                jrb_dl_Cube_020_mesh_layer_5
                0x0000000007002e58                jrb_dl_Cube_019_mesh_layer_1
                0x0000000007002ee0                jrb_dl_Cube_018_mesh_layer_5
                0x0000000007002f38                jrb_dl_Cube_017_mesh_layer_1
                0x0000000007002f78                jrb_dl_Cube_016_mesh_layer_1
                0x0000000007002fb8                jrb_dl_Cube_015_mesh_layer_1
                0x0000000007003010                jrb_dl_Cube_014_mesh_layer_1
                0x0000000007003050                jrb_dl_Cube_013_mesh_layer_1
                0x00000000070030f0                jrb_dl_Cube_012_mesh_layer_1
                0x0000000007003148                jrb_dl_Cube_011_mesh_layer_1
                0x0000000007003188                jrb_dl_Cube_010_mesh_layer_5
                0x00000000070031c8                jrb_dl_Cube_009_mesh_layer_1
                0x0000000007003208                jrb_dl_Cube_008_mesh_layer_5
                0x0000000007003248                jrb_dl_Cube_007_mesh_layer_1
                0x0000000007003288                jrb_dl_Cube_006_mesh_layer_1
                0x00000000070032c8                jrb_dl_Cube_005_mesh_layer_1
                0x0000000007003308                jrb_dl_Cube_004_mesh_layer_1
                0x0000000007003348                jrb_dl_Cube_003_mesh_layer_1
                0x0000000007003388                jrb_dl_Cube_002_mesh_layer_1
                0x00000000070033c8                jrb_dl_Cube_001_mesh_layer_5
                0x0000000007003408                jrb_dl_Cube_mesh_layer_1
                0x00000000070034a8                jrb_dl_bridge_mesh_layer_1
                0x00000000070034e8                jrb_dl_Alpha_002_mesh_layer_6
                0x0000000007003528                jrb_dl_Alpha_001_mesh_layer_6
                0x0000000007003568                jrb_dl_Alpha_mesh_layer_1
                0x00000000070035d8                mat_revert_jrb_dl_greate_wind
                0x0000000007003600                mat_jrb_dl_greate_wind
                0x0000000007003698                mat_revert_jrb_dl_metal_2
                0x00000000070036b8                mat_jrb_dl_metal_2
                0x0000000007003748                mat_revert_jrb_dl_flowers_002
                0x0000000007003770                mat_jrb_dl_flowers_002
                0x0000000007003808                mat_revert_jrb_dl_bricks_001
                0x0000000007003828                mat_jrb_dl_bricks_001
                0x00000000070038b8                mat_revert_jrb_dl_flowers
                0x00000000070038e0                mat_jrb_dl_flowers
                0x0000000007003978                mat_revert_jrb_dl_f3dlite_material_004
                0x0000000007003990                mat_jrb_dl_f3dlite_material_004
                0x0000000007003a00                mat_revert_jrb_dl_hay
                0x0000000007003a20                mat_jrb_dl_hay
                0x0000000007003ab0                mat_revert_jrb_dl_swirl
                0x0000000007003ad0                mat_jrb_dl_swirl
                0x0000000007003b60                mat_revert_jrb_dl_picnic
                0x0000000007003b80                mat_jrb_dl_picnic
                0x0000000007003c10                mat_revert_jrb_dl_tree_rings
                0x0000000007003c30                mat_jrb_dl_tree_rings
                0x0000000007003cc0                mat_revert_jrb_dl_bark
                0x0000000007003ce0                mat_jrb_dl_bark
                0x0000000007003d70                mat_revert_jrb_dl_water_bottom
                0x0000000007003d88                mat_jrb_dl_water_bottom
                0x0000000007003dd0                mat_revert_jrb_dl_death
                0x0000000007003df0                mat_jrb_dl_death
                0x0000000007003e80                mat_revert_jrb_dl_stone_star_002
                0x0000000007003ea0                mat_jrb_dl_stone_star_002
                0x0000000007003f30                mat_revert_jrb_dl_caution
                0x0000000007003f50                mat_jrb_dl_caution
                0x0000000007003fe0                mat_revert_jrb_dl_light
                0x0000000007004008                mat_jrb_dl_light
                0x00000000070040a8                mat_revert_jrb_dl_old_checker
                0x00000000070040c8                mat_jrb_dl_old_checker
                0x0000000007004158                mat_revert_jrb_dl_f3dlite_material
                0x0000000007004178                mat_jrb_dl_f3dlite_material
                0x0000000007004208                mat_revert_jrb_dl_metal_1
                0x0000000007004228                mat_jrb_dl_metal_1
                0x00000000070042b8                mat_revert_jrb_dl_gold
                0x00000000070042d8                mat_jrb_dl_gold
                0x0000000007004368                mat_revert_jrb_dl_white_bevel
                0x0000000007004390                mat_jrb_dl_white_bevel
                0x0000000007004428                mat_revert_jrb_dl_f3dlite_material_001
                0x0000000007004448                mat_jrb_dl_f3dlite_material_001
                0x00000000070044d8                mat_revert_jrb_dl_f3dlite_material_003
                0x00000000070044f8                mat_jrb_dl_f3dlite_material_003
                0x0000000007004588                mat_revert_jrb_dl_invisible
                0x00000000070045a8                mat_jrb_dl_invisible
                0x0000000007004628                mat_revert_jrb_dl_fake_water
                0x0000000007004650                mat_jrb_dl_fake_water
                0x00000000070046f0                mat_revert_jrb_dl_f3dlite_material_002
                0x0000000007004710                mat_jrb_dl_f3dlite_material_002
                0x00000000070047a0                mat_revert_jrb_dl_mossy_stone
                0x00000000070047c0                mat_jrb_dl_mossy_stone
                0x0000000007004850                mat_revert_jrb_dl_fast_water
                0x0000000007004870                mat_jrb_dl_fast_water
                0x0000000007004900                mat_revert_jrb_dl_moving_water
                0x0000000007004920                mat_jrb_dl_moving_water
                0x00000000070049b0                mat_revert_jrb_dl_old_stone
                0x00000000070049d0                mat_jrb_dl_old_stone
                0x0000000007004a60                mat_revert_jrb_dl_bark_small
                0x0000000007004a80                mat_jrb_dl_bark_small
                0x0000000007004b10                mat_revert_jrb_dl_black
                0x0000000007004b28                mat_jrb_dl_black
                0x0000000007004b70                mat_revert_jrb_dl_rock
                0x0000000007004b90                mat_jrb_dl_rock
                0x0000000007004c20                mat_revert_jrb_dl_stone_star
                0x0000000007004c40                mat_jrb_dl_stone_star
                0x0000000007004cd0                mat_revert_jrb_dl_water
                0x0000000007004cf8                mat_jrb_dl_water
                0x0000000007004d98                mat_revert_jrb_dl_shingles
                0x0000000007004db8                mat_jrb_dl_shingles
                0x0000000007004e48                mat_revert_jrb_dl_wood
                0x0000000007004e68                mat_jrb_dl_wood
                0x0000000007004ef8                mat_revert_jrb_dl_wood2
                0x0000000007004f18                mat_jrb_dl_wood2
                0x0000000007004fa8                mat_revert_jrb_dl_interior
                0x0000000007004fc8                mat_jrb_dl_interior
                0x0000000007005058                mat_revert_jrb_dl_bricks
                0x0000000007005078                mat_jrb_dl_bricks
                0x0000000007005108                mat_revert_jrb_dl_dirt
                0x0000000007005128                mat_jrb_dl_dirt
                0x00000000070051b8                mat_revert_jrb_dl_stone_path
                0x00000000070051d0                mat_jrb_dl_stone_path
                0x0000000007005240                mat_revert_jrb_dl_dirt2
                0x0000000007005260                mat_jrb_dl_dirt2
                0x00000000070052f0                mat_revert_jrb_dl_dirt_with_grass
                0x0000000007005310                mat_jrb_dl_dirt_with_grass
                0x00000000070053a0                mat_revert_jrb_dl_grass
                0x00000000070053c0                mat_jrb_dl_grass
                0x0000000007005450                jrb_dl_wind_grate_010_mesh_layer_4_tri_0
                0x0000000007005468                jrb_dl_wind_grate_010_mesh_layer_4_vtx_0
                0x00000000070054a8                jrb_dl_wind_grate_010_mesh_layer_4_vtx_cull
                0x0000000007005528                jrb_dl_wind_grate_009_mesh_layer_4_tri_0
                0x0000000007005540                jrb_dl_wind_grate_009_mesh_layer_4_vtx_0
                0x0000000007005580                jrb_dl_wind_grate_009_mesh_layer_4_vtx_cull
                0x0000000007005600                jrb_dl_wind_grate_008_mesh_layer_4_tri_0
                0x0000000007005618                jrb_dl_wind_grate_008_mesh_layer_4_vtx_0
                0x0000000007005658                jrb_dl_wind_grate_008_mesh_layer_4_vtx_cull
                0x00000000070056d8                jrb_dl_wind_grate_007_mesh_layer_4_tri_0
                0x00000000070056f0                jrb_dl_wind_grate_007_mesh_layer_4_vtx_0
                0x0000000007005730                jrb_dl_wind_grate_007_mesh_layer_4_vtx_cull
                0x00000000070057b0                jrb_dl_wind_grate_006_mesh_layer_4_tri_0
                0x00000000070057f0                jrb_dl_wind_grate_006_mesh_layer_4_vtx_0
                0x0000000007005970                jrb_dl_wind_grate_006_mesh_layer_4_vtx_cull
                0x00000000070059f0                jrb_dl_wind_grate_005_mesh_layer_4_tri_0
                0x0000000007005a08                jrb_dl_wind_grate_005_mesh_layer_4_vtx_0
                0x0000000007005a48                jrb_dl_wind_grate_005_mesh_layer_4_vtx_cull
                0x0000000007005ac8                jrb_dl_wind_grate_004_mesh_layer_4_tri_0
                0x0000000007005ae0                jrb_dl_wind_grate_004_mesh_layer_4_vtx_0
                0x0000000007005b20                jrb_dl_wind_grate_004_mesh_layer_4_vtx_cull
                0x0000000007005ba0                jrb_dl_wind_grate_003_mesh_layer_4_tri_0
                0x0000000007005bb8                jrb_dl_wind_grate_003_mesh_layer_4_vtx_0
                0x0000000007005bf8                jrb_dl_wind_grate_003_mesh_layer_4_vtx_cull
                0x0000000007005c78                jrb_dl_wind_grate_002_mesh_layer_4_tri_0
                0x0000000007005c90                jrb_dl_wind_grate_002_mesh_layer_4_vtx_0
                0x0000000007005cd0                jrb_dl_wind_grate_002_mesh_layer_4_vtx_cull
                0x0000000007005d50                jrb_dl_wind_grate_001_mesh_layer_4_tri_0
                0x0000000007005d68                jrb_dl_wind_grate_001_mesh_layer_4_vtx_0
                0x0000000007005da8                jrb_dl_wind_grate_001_mesh_layer_4_vtx_cull
                0x0000000007005e28                jrb_dl_waterfall_mesh_layer_5_tri_0
                0x0000000007005eb0                jrb_dl_waterfall_mesh_layer_5_vtx_0
                0x0000000007006230                jrb_dl_waterfall_mesh_layer_5_vtx_cull
                0x00000000070062b0                jrb_dl_wall_002_mesh_layer_1_tri_0
                0x0000000007006340                jrb_dl_wall_002_mesh_layer_1_vtx_0
                0x0000000007006660                jrb_dl_wall_002_mesh_layer_1_vtx_cull
                0x00000000070066e0                jrb_dl_wall_001_mesh_layer_1_tri_1
                0x0000000007006700                jrb_dl_wall_001_mesh_layer_1_vtx_1
                0x00000000070067a0                jrb_dl_wall_001_mesh_layer_1_tri_0
                0x0000000007006948                jrb_dl_wall_001_mesh_layer_1_vtx_0
                0x0000000007007228                jrb_dl_wall_001_mesh_layer_1_vtx_cull
                0x00000000070072a8                jrb_dl_wall_mesh_layer_1_tri_0
                0x0000000007007330                jrb_dl_wall_mesh_layer_1_vtx_0
                0x0000000007007630                jrb_dl_wall_mesh_layer_1_vtx_cull
                0x00000000070076b0                jrb_dl_small_fan_004_mesh_layer_1_tri_1
                0x00000000070076f0                jrb_dl_small_fan_004_mesh_layer_1_vtx_1
                0x0000000007007870                jrb_dl_small_fan_004_mesh_layer_1_tri_0
                0x00000000070078e8                jrb_dl_small_fan_004_mesh_layer_1_vtx_0
                0x0000000007007be8                jrb_dl_small_fan_004_mesh_layer_1_vtx_cull
                0x0000000007007c68                jrb_dl_small_fan_003_mesh_layer_1_tri_1
                0x0000000007007ca8                jrb_dl_small_fan_003_mesh_layer_1_vtx_1
                0x0000000007007e28                jrb_dl_small_fan_003_mesh_layer_1_tri_0
                0x0000000007007ea0                jrb_dl_small_fan_003_mesh_layer_1_vtx_0
                0x00000000070081a0                jrb_dl_small_fan_003_mesh_layer_1_vtx_cull
                0x0000000007008220                jrb_dl_small_fan_002_mesh_layer_1_tri_1
                0x0000000007008260                jrb_dl_small_fan_002_mesh_layer_1_vtx_1
                0x00000000070083e0                jrb_dl_small_fan_002_mesh_layer_1_tri_0
                0x0000000007008458                jrb_dl_small_fan_002_mesh_layer_1_vtx_0
                0x0000000007008758                jrb_dl_small_fan_002_mesh_layer_1_vtx_cull
                0x00000000070087d8                jrb_dl_small_fan_001_mesh_layer_1_tri_1
                0x0000000007008818                jrb_dl_small_fan_001_mesh_layer_1_vtx_1
                0x0000000007008998                jrb_dl_small_fan_001_mesh_layer_1_tri_0
                0x0000000007008a10                jrb_dl_small_fan_001_mesh_layer_1_vtx_0
                0x0000000007008d10                jrb_dl_small_fan_001_mesh_layer_1_vtx_cull
                0x0000000007008d90                jrb_dl_SM_Fountain_02_mesh_layer_1_tri_2
                0x00000000070090a8                jrb_dl_SM_Fountain_02_mesh_layer_1_vtx_2
                0x000000000700a618                jrb_dl_SM_Fountain_02_mesh_layer_1_tri_1
                0x000000000700a750                jrb_dl_SM_Fountain_02_mesh_layer_1_vtx_1
                0x000000000700b150                jrb_dl_SM_Fountain_02_mesh_layer_1_tri_0
                0x000000000700c2d8                jrb_dl_SM_Fountain_02_mesh_layer_1_vtx_0
                0x0000000007013df8                jrb_dl_SM_Fountain_02_mesh_layer_1_vtx_cull
                0x0000000007013e78                jrb_dl_rock_012_mesh_layer_1_tri_2
                0x0000000007013ec8                jrb_dl_rock_012_mesh_layer_1_vtx_2
                0x00000000070140c8                jrb_dl_rock_012_mesh_layer_1_tri_1
                0x00000000070140f8                jrb_dl_rock_012_mesh_layer_1_vtx_1
                0x00000000070141b8                jrb_dl_rock_012_mesh_layer_1_tri_0
                0x0000000007014278                jrb_dl_rock_012_mesh_layer_1_vtx_0
                0x0000000007014778                jrb_dl_rock_012_mesh_layer_1_vtx_cull
                0x00000000070147f8                jrb_dl_rock_011_mesh_layer_1_tri_0
                0x00000000070148e0                jrb_dl_rock_011_mesh_layer_1_vtx_0
                0x0000000007014e40                jrb_dl_rock_011_mesh_layer_1_vtx_cull
                0x0000000007014ec0                jrb_dl_rock_010_mesh_layer_1_tri_0
                0x0000000007014fa8                jrb_dl_rock_010_mesh_layer_1_vtx_0
                0x0000000007015508                jrb_dl_rock_010_mesh_layer_1_vtx_cull
                0x0000000007015588                jrb_dl_rock_009_mesh_layer_1_tri_0
                0x0000000007015670                jrb_dl_rock_009_mesh_layer_1_vtx_0
                0x0000000007015bd0                jrb_dl_rock_009_mesh_layer_1_vtx_cull
                0x0000000007015c50                jrb_dl_rock_008_mesh_layer_1_tri_2
                0x0000000007015ca0                jrb_dl_rock_008_mesh_layer_1_vtx_2
                0x0000000007015ea0                jrb_dl_rock_008_mesh_layer_1_tri_1
                0x0000000007015ed0                jrb_dl_rock_008_mesh_layer_1_vtx_1
                0x0000000007015f90                jrb_dl_rock_008_mesh_layer_1_tri_0
                0x0000000007016050                jrb_dl_rock_008_mesh_layer_1_vtx_0
                0x0000000007016550                jrb_dl_rock_008_mesh_layer_1_vtx_cull
                0x00000000070165d0                jrb_dl_rock_007_mesh_layer_1_tri_2
                0x0000000007016620                jrb_dl_rock_007_mesh_layer_1_vtx_2
                0x0000000007016820                jrb_dl_rock_007_mesh_layer_1_tri_1
                0x0000000007016850                jrb_dl_rock_007_mesh_layer_1_vtx_1
                0x0000000007016910                jrb_dl_rock_007_mesh_layer_1_tri_0
                0x00000000070169d0                jrb_dl_rock_007_mesh_layer_1_vtx_0
                0x0000000007016ed0                jrb_dl_rock_007_mesh_layer_1_vtx_cull
                0x0000000007016f50                jrb_dl_rock_006_mesh_layer_1_tri_2
                0x0000000007016fa0                jrb_dl_rock_006_mesh_layer_1_vtx_2
                0x00000000070171a0                jrb_dl_rock_006_mesh_layer_1_tri_1
                0x00000000070171d0                jrb_dl_rock_006_mesh_layer_1_vtx_1
                0x0000000007017290                jrb_dl_rock_006_mesh_layer_1_tri_0
                0x0000000007017350                jrb_dl_rock_006_mesh_layer_1_vtx_0
                0x0000000007017850                jrb_dl_rock_006_mesh_layer_1_vtx_cull
                0x00000000070178d0                jrb_dl_rock_005_mesh_layer_1_tri_0
                0x00000000070179b8                jrb_dl_rock_005_mesh_layer_1_vtx_0
                0x0000000007017f18                jrb_dl_rock_005_mesh_layer_1_vtx_cull
                0x0000000007017f98                jrb_dl_rock_004_mesh_layer_1_tri_0
                0x0000000007018080                jrb_dl_rock_004_mesh_layer_1_vtx_0
                0x00000000070185e0                jrb_dl_rock_004_mesh_layer_1_vtx_cull
                0x0000000007018660                jrb_dl_rock_003_mesh_layer_1_tri_0
                0x0000000007018748                jrb_dl_rock_003_mesh_layer_1_vtx_0
                0x0000000007018ca8                jrb_dl_rock_003_mesh_layer_1_vtx_cull
                0x0000000007018d28                jrb_dl_rock_002_mesh_layer_1_tri_0
                0x0000000007018e10                jrb_dl_rock_002_mesh_layer_1_vtx_0
                0x0000000007019370                jrb_dl_rock_002_mesh_layer_1_vtx_cull
                0x00000000070193f0                jrb_dl_rock_001_mesh_layer_1_tri_0
                0x00000000070194d8                jrb_dl_rock_001_mesh_layer_1_vtx_0
                0x0000000007019a38                jrb_dl_rock_001_mesh_layer_1_vtx_cull
                0x0000000007019ab8                jrb_dl_rock_mesh_layer_1_tri_0
                0x0000000007019ba0                jrb_dl_rock_mesh_layer_1_vtx_0
                0x000000000701a100                jrb_dl_rock_mesh_layer_1_vtx_cull
                0x000000000701a180                jrb_dl_render_048_mesh_layer_1_tri_1
                0x000000000701a2e8                jrb_dl_render_048_mesh_layer_1_vtx_1
                0x000000000701aae8                jrb_dl_render_048_mesh_layer_1_tri_0
                0x000000000701ab10                jrb_dl_render_048_mesh_layer_1_vtx_0
                0x000000000701ab90                jrb_dl_render_048_mesh_layer_1_vtx_cull
                0x000000000701ac10                jrb_dl_Plane_mesh_layer_6_tri_0
                0x000000000701ac48                jrb_dl_Plane_mesh_layer_6_vtx_0
                0x000000000701acc8                jrb_dl_Plane_mesh_layer_6_vtx_cull
                0x000000000701ad48                jrb_dl_pillar_030_mesh_layer_1_tri_0
                0x000000000701ad88                jrb_dl_pillar_030_mesh_layer_1_vtx_0
                0x000000000701af08                jrb_dl_pillar_030_mesh_layer_1_vtx_cull
                0x000000000701af88                jrb_dl_pillar_029_mesh_layer_1_tri_0
                0x000000000701afc8                jrb_dl_pillar_029_mesh_layer_1_vtx_0
                0x000000000701b148                jrb_dl_pillar_029_mesh_layer_1_vtx_cull
                0x000000000701b1c8                jrb_dl_pillar_028_mesh_layer_1_tri_0
                0x000000000701b208                jrb_dl_pillar_028_mesh_layer_1_vtx_0
                0x000000000701b388                jrb_dl_pillar_028_mesh_layer_1_vtx_cull
                0x000000000701b408                jrb_dl_pillar_027_mesh_layer_1_tri_0
                0x000000000701b448                jrb_dl_pillar_027_mesh_layer_1_vtx_0
                0x000000000701b5c8                jrb_dl_pillar_027_mesh_layer_1_vtx_cull
                0x000000000701b648                jrb_dl_pillar_026_mesh_layer_1_tri_0
                0x000000000701b688                jrb_dl_pillar_026_mesh_layer_1_vtx_0
                0x000000000701b808                jrb_dl_pillar_026_mesh_layer_1_vtx_cull
                0x000000000701b888                jrb_dl_pillar_025_mesh_layer_1_tri_0
                0x000000000701b8c8                jrb_dl_pillar_025_mesh_layer_1_vtx_0
                0x000000000701ba48                jrb_dl_pillar_025_mesh_layer_1_vtx_cull
                0x000000000701bac8                jrb_dl_pillar_024_mesh_layer_1_tri_0
                0x000000000701bb08                jrb_dl_pillar_024_mesh_layer_1_vtx_0
                0x000000000701bc88                jrb_dl_pillar_024_mesh_layer_1_vtx_cull
                0x000000000701bd08                jrb_dl_pillar_019_mesh_layer_1_tri_0
                0x000000000701bd48                jrb_dl_pillar_019_mesh_layer_1_vtx_0
                0x000000000701bec8                jrb_dl_pillar_019_mesh_layer_1_vtx_cull
                0x000000000701bf48                jrb_dl_pillar_014_mesh_layer_1_tri_0
                0x000000000701bf88                jrb_dl_pillar_014_mesh_layer_1_vtx_0
                0x000000000701c108                jrb_dl_pillar_014_mesh_layer_1_vtx_cull
                0x000000000701c188                jrb_dl_pillar_013_mesh_layer_1_tri_0
                0x000000000701c1c8                jrb_dl_pillar_013_mesh_layer_1_vtx_0
                0x000000000701c348                jrb_dl_pillar_013_mesh_layer_1_vtx_cull
                0x000000000701c3c8                jrb_dl_pillar_012_mesh_layer_1_tri_0
                0x000000000701c408                jrb_dl_pillar_012_mesh_layer_1_vtx_0
                0x000000000701c588                jrb_dl_pillar_012_mesh_layer_1_vtx_cull
                0x000000000701c608                jrb_dl_pillar_011_mesh_layer_1_tri_0
                0x000000000701c648                jrb_dl_pillar_011_mesh_layer_1_vtx_0
                0x000000000701c7c8                jrb_dl_pillar_011_mesh_layer_1_vtx_cull
                0x000000000701c848                jrb_dl_pillar_010_mesh_layer_1_tri_0
                0x000000000701c888                jrb_dl_pillar_010_mesh_layer_1_vtx_0
                0x000000000701ca08                jrb_dl_pillar_010_mesh_layer_1_vtx_cull
                0x000000000701ca88                jrb_dl_pillar_009_mesh_layer_1_tri_0
                0x000000000701cac8                jrb_dl_pillar_009_mesh_layer_1_vtx_0
                0x000000000701cc48                jrb_dl_pillar_009_mesh_layer_1_vtx_cull
                0x000000000701ccc8                jrb_dl_pillar_008_mesh_layer_1_tri_0
                0x000000000701cd08                jrb_dl_pillar_008_mesh_layer_1_vtx_0
                0x000000000701ce88                jrb_dl_pillar_008_mesh_layer_1_vtx_cull
                0x000000000701cf08                jrb_dl_pillar_007_mesh_layer_1_tri_0
                0x000000000701cf48                jrb_dl_pillar_007_mesh_layer_1_vtx_0
                0x000000000701d0c8                jrb_dl_pillar_007_mesh_layer_1_vtx_cull
                0x000000000701d148                jrb_dl_pillar_006_mesh_layer_1_tri_0
                0x000000000701d188                jrb_dl_pillar_006_mesh_layer_1_vtx_0
                0x000000000701d308                jrb_dl_pillar_006_mesh_layer_1_vtx_cull
                0x000000000701d388                jrb_dl_pillar_005_mesh_layer_1_tri_0
                0x000000000701d3c8                jrb_dl_pillar_005_mesh_layer_1_vtx_0
                0x000000000701d548                jrb_dl_pillar_005_mesh_layer_1_vtx_cull
                0x000000000701d5c8                jrb_dl_pillar_004_mesh_layer_1_tri_0
                0x000000000701d608                jrb_dl_pillar_004_mesh_layer_1_vtx_0
                0x000000000701d788                jrb_dl_pillar_004_mesh_layer_1_vtx_cull
                0x000000000701d808                jrb_dl_pillar_003_mesh_layer_1_tri_0
                0x000000000701d848                jrb_dl_pillar_003_mesh_layer_1_vtx_0
                0x000000000701d9c8                jrb_dl_pillar_003_mesh_layer_1_vtx_cull
                0x000000000701da48                jrb_dl_pillar_002_mesh_layer_1_tri_0
                0x000000000701da88                jrb_dl_pillar_002_mesh_layer_1_vtx_0
                0x000000000701dc08                jrb_dl_pillar_002_mesh_layer_1_vtx_cull
                0x000000000701dc88                jrb_dl_pillar_001_mesh_layer_1_tri_0
                0x000000000701dcc8                jrb_dl_pillar_001_mesh_layer_1_vtx_0
                0x000000000701de48                jrb_dl_pillar_001_mesh_layer_1_vtx_cull
                0x000000000701dec8                jrb_dl_pillar_mesh_layer_1_tri_2
                0x000000000701df08                jrb_dl_pillar_mesh_layer_1_vtx_2
                0x000000000701e088                jrb_dl_pillar_mesh_layer_1_tri_1
                0x000000000701e0c8                jrb_dl_pillar_mesh_layer_1_vtx_1
                0x000000000701e248                jrb_dl_pillar_mesh_layer_1_tri_0
                0x000000000701e2d0                jrb_dl_pillar_mesh_layer_1_vtx_0
                0x000000000701e610                jrb_dl_pillar_mesh_layer_1_vtx_cull
                0x000000000701e690                jrb_dl_path_002_mesh_layer_6_tri_0
                0x000000000701e7f0                jrb_dl_path_002_mesh_layer_6_vtx_0
                0x000000000701ece0                jrb_dl_path_002_mesh_layer_6_vtx_cull
                0x000000000701ed60                jrb_dl_path_001_mesh_layer_6_tri_0
                0x000000000701f028                jrb_dl_path_001_mesh_layer_6_vtx_0
                0x000000000701fb98                jrb_dl_path_001_mesh_layer_6_vtx_cull
                0x000000000701fc18                jrb_dl_path_mesh_layer_6_tri_0
                0x0000000007020018                jrb_dl_path_mesh_layer_6_vtx_0
                0x0000000007021308                jrb_dl_path_mesh_layer_6_vtx_cull
                0x0000000007021388                jrb_dl_mossy_stone_019_mesh_layer_1_tri_0
                0x00000000070213f0                jrb_dl_mossy_stone_019_mesh_layer_1_vtx_0
                0x0000000007021670                jrb_dl_mossy_stone_019_mesh_layer_1_vtx_cull
                0x00000000070216f0                jrb_dl_mossy_stone_018_mesh_layer_1_tri_0
                0x0000000007021758                jrb_dl_mossy_stone_018_mesh_layer_1_vtx_0
                0x00000000070219d8                jrb_dl_mossy_stone_018_mesh_layer_1_vtx_cull
                0x0000000007021a58                jrb_dl_mossy_stone_017_mesh_layer_1_tri_0
                0x0000000007021ac0                jrb_dl_mossy_stone_017_mesh_layer_1_vtx_0
                0x0000000007021d40                jrb_dl_mossy_stone_017_mesh_layer_1_vtx_cull
                0x0000000007021dc0                jrb_dl_mossy_stone_016_mesh_layer_1_tri_0
                0x0000000007021e28                jrb_dl_mossy_stone_016_mesh_layer_1_vtx_0
                0x00000000070220a8                jrb_dl_mossy_stone_016_mesh_layer_1_vtx_cull
                0x0000000007022128                jrb_dl_mossy_stone_015_mesh_layer_1_tri_0
                0x0000000007022190                jrb_dl_mossy_stone_015_mesh_layer_1_vtx_0
                0x0000000007022410                jrb_dl_mossy_stone_015_mesh_layer_1_vtx_cull
                0x0000000007022490                jrb_dl_mossy_stone_014_mesh_layer_1_tri_0
                0x00000000070224f8                jrb_dl_mossy_stone_014_mesh_layer_1_vtx_0
                0x0000000007022778                jrb_dl_mossy_stone_014_mesh_layer_1_vtx_cull
                0x00000000070227f8                jrb_dl_mossy_stone_013_mesh_layer_1_tri_0
                0x0000000007022860                jrb_dl_mossy_stone_013_mesh_layer_1_vtx_0
                0x0000000007022ae0                jrb_dl_mossy_stone_013_mesh_layer_1_vtx_cull
                0x0000000007022b60                jrb_dl_mossy_stone_012_mesh_layer_1_tri_0
                0x0000000007022bc8                jrb_dl_mossy_stone_012_mesh_layer_1_vtx_0
                0x0000000007022e48                jrb_dl_mossy_stone_012_mesh_layer_1_vtx_cull
                0x0000000007022ec8                jrb_dl_mossy_stone_011_mesh_layer_1_tri_0
                0x0000000007022f30                jrb_dl_mossy_stone_011_mesh_layer_1_vtx_0
                0x00000000070231b0                jrb_dl_mossy_stone_011_mesh_layer_1_vtx_cull
                0x0000000007023230                jrb_dl_mossy_stone_010_mesh_layer_1_tri_0
                0x0000000007023298                jrb_dl_mossy_stone_010_mesh_layer_1_vtx_0
                0x0000000007023518                jrb_dl_mossy_stone_010_mesh_layer_1_vtx_cull
                0x0000000007023598                jrb_dl_mossy_stone_009_mesh_layer_1_tri_0
                0x0000000007023600                jrb_dl_mossy_stone_009_mesh_layer_1_vtx_0
                0x0000000007023880                jrb_dl_mossy_stone_009_mesh_layer_1_vtx_cull
                0x0000000007023900                jrb_dl_mossy_stone_008_mesh_layer_1_tri_0
                0x0000000007023968                jrb_dl_mossy_stone_008_mesh_layer_1_vtx_0
                0x0000000007023be8                jrb_dl_mossy_stone_008_mesh_layer_1_vtx_cull
                0x0000000007023c68                jrb_dl_mossy_stone_007_mesh_layer_1_tri_0
                0x0000000007023cd0                jrb_dl_mossy_stone_007_mesh_layer_1_vtx_0
                0x0000000007023f50                jrb_dl_mossy_stone_007_mesh_layer_1_vtx_cull
                0x0000000007023fd0                jrb_dl_mossy_stone_006_mesh_layer_1_tri_0
                0x0000000007024038                jrb_dl_mossy_stone_006_mesh_layer_1_vtx_0
                0x00000000070242b8                jrb_dl_mossy_stone_006_mesh_layer_1_vtx_cull
                0x0000000007024338                jrb_dl_mossy_stone_005_mesh_layer_1_tri_0
                0x00000000070243a0                jrb_dl_mossy_stone_005_mesh_layer_1_vtx_0
                0x0000000007024620                jrb_dl_mossy_stone_005_mesh_layer_1_vtx_cull
                0x00000000070246a0                jrb_dl_mossy_stone_004_mesh_layer_1_tri_0
                0x0000000007024708                jrb_dl_mossy_stone_004_mesh_layer_1_vtx_0
                0x0000000007024988                jrb_dl_mossy_stone_004_mesh_layer_1_vtx_cull
                0x0000000007024a08                jrb_dl_mossy_stone_003_mesh_layer_1_tri_0
                0x0000000007024a70                jrb_dl_mossy_stone_003_mesh_layer_1_vtx_0
                0x0000000007024cf0                jrb_dl_mossy_stone_003_mesh_layer_1_vtx_cull
                0x0000000007024d70                jrb_dl_mossy_stone_002_mesh_layer_1_tri_0
                0x0000000007024dd8                jrb_dl_mossy_stone_002_mesh_layer_1_vtx_0
                0x0000000007025058                jrb_dl_mossy_stone_002_mesh_layer_1_vtx_cull
                0x00000000070250d8                jrb_dl_mossy_stone_001_mesh_layer_1_tri_0
                0x0000000007025140                jrb_dl_mossy_stone_001_mesh_layer_1_vtx_0
                0x00000000070253c0                jrb_dl_mossy_stone_001_mesh_layer_1_vtx_cull
                0x0000000007025440                jrb_dl_mossy_stone_mesh_layer_1_tri_0
                0x00000000070254a8                jrb_dl_mossy_stone_mesh_layer_1_vtx_0
                0x0000000007025728                jrb_dl_mossy_stone_mesh_layer_1_vtx_cull
                0x00000000070257a8                jrb_dl_Mesh_Owl_mesh_layer_1_tri_0
                0x0000000007025f70                jrb_dl_Mesh_Owl_mesh_layer_1_vtx_0
                0x00000000070294b0                jrb_dl_Mesh_Owl_mesh_layer_1_vtx_cull
                0x0000000007029530                jrb_dl_massive_pillar_003_mesh_layer_4_tri_0
                0x0000000007029570                jrb_dl_massive_pillar_003_mesh_layer_4_vtx_0
                0x0000000007029680                jrb_dl_massive_pillar_003_mesh_layer_4_vtx_cull
                0x0000000007029700                jrb_dl_massive_pillar_mesh_layer_1_tri_5
                0x0000000007029718                jrb_dl_massive_pillar_mesh_layer_1_vtx_5
                0x0000000007029758                jrb_dl_massive_pillar_mesh_layer_1_tri_4
                0x00000000070297c0                jrb_dl_massive_pillar_mesh_layer_1_vtx_4
                0x0000000007029a40                jrb_dl_massive_pillar_mesh_layer_1_tri_3
                0x0000000007029b08                jrb_dl_massive_pillar_mesh_layer_1_vtx_3
                0x0000000007029ed8                jrb_dl_massive_pillar_mesh_layer_1_tri_2
                0x0000000007029f60                jrb_dl_massive_pillar_mesh_layer_1_vtx_2
                0x000000000702a2c0                jrb_dl_massive_pillar_mesh_layer_1_tri_1
                0x000000000702a310                jrb_dl_massive_pillar_mesh_layer_1_vtx_1
                0x000000000702a510                jrb_dl_massive_pillar_mesh_layer_1_tri_0
                0x000000000702a810                jrb_dl_massive_pillar_mesh_layer_1_vtx_0
                0x000000000702ba70                jrb_dl_massive_pillar_mesh_layer_1_vtx_cull
                0x000000000702baf0                jrb_dl_Icosphere_015_mesh_layer_1_tri_0
                0x000000000702c0f8                jrb_dl_Icosphere_015_mesh_layer_1_vtx_0
                0x000000000702fcf8                jrb_dl_Icosphere_015_mesh_layer_1_vtx_cull
                0x000000000702fd78                jrb_dl_Icosphere_008_mesh_layer_1_tri_0
                0x0000000007030380                jrb_dl_Icosphere_008_mesh_layer_1_vtx_0
                0x0000000007033f80                jrb_dl_Icosphere_008_mesh_layer_1_vtx_cull
                0x0000000007034000                jrb_dl_Icosphere_007_mesh_layer_1_tri_0
                0x0000000007034608                jrb_dl_Icosphere_007_mesh_layer_1_vtx_0
                0x0000000007038208                jrb_dl_Icosphere_007_mesh_layer_1_vtx_cull
                0x0000000007038288                jrb_dl_Icosphere_006_mesh_layer_1_tri_0
                0x0000000007038890                jrb_dl_Icosphere_006_mesh_layer_1_vtx_0
                0x000000000703c490                jrb_dl_Icosphere_006_mesh_layer_1_vtx_cull
                0x000000000703c510                jrb_dl_Icosphere_005_mesh_layer_1_tri_0
                0x000000000703cb18                jrb_dl_Icosphere_005_mesh_layer_1_vtx_0
                0x0000000007040718                jrb_dl_Icosphere_005_mesh_layer_1_vtx_cull
                0x0000000007040798                jrb_dl_Icosphere_004_mesh_layer_1_tri_0
                0x0000000007040da0                jrb_dl_Icosphere_004_mesh_layer_1_vtx_0
                0x00000000070449a0                jrb_dl_Icosphere_004_mesh_layer_1_vtx_cull
                0x0000000007044a20                jrb_dl_Icosphere_003_mesh_layer_1_tri_0
                0x0000000007045028                jrb_dl_Icosphere_003_mesh_layer_1_vtx_0
                0x0000000007048c28                jrb_dl_Icosphere_003_mesh_layer_1_vtx_cull
                0x0000000007048ca8                jrb_dl_Icosphere_002_mesh_layer_1_tri_0
                0x00000000070492b0                jrb_dl_Icosphere_002_mesh_layer_1_vtx_0
                0x000000000704ceb0                jrb_dl_Icosphere_002_mesh_layer_1_vtx_cull
                0x000000000704cf30                jrb_dl_Icosphere_001_mesh_layer_1_tri_0
                0x000000000704d538                jrb_dl_Icosphere_001_mesh_layer_1_vtx_0
                0x0000000007051138                jrb_dl_Icosphere_001_mesh_layer_1_vtx_cull
                0x00000000070511b8                jrb_dl_Houses_SecondAge_3_Level1_004_mesh_layer_1_tri_4
                0x0000000007051208                jrb_dl_Houses_SecondAge_3_Level1_004_mesh_layer_1_vtx_4
                0x00000000070513d8                jrb_dl_Houses_SecondAge_3_Level1_004_mesh_layer_1_tri_3
                0x00000000070516d8                jrb_dl_Houses_SecondAge_3_Level1_004_mesh_layer_1_vtx_3
                0x0000000007052bd8                jrb_dl_Houses_SecondAge_3_Level1_004_mesh_layer_1_tri_2
                0x0000000007052f20                jrb_dl_Houses_SecondAge_3_Level1_004_mesh_layer_1_vtx_2
                0x0000000007054620                jrb_dl_Houses_SecondAge_3_Level1_004_mesh_layer_1_tri_1
                0x0000000007054640                jrb_dl_Houses_SecondAge_3_Level1_004_mesh_layer_1_vtx_1
                0x00000000070546c0                jrb_dl_Houses_SecondAge_3_Level1_004_mesh_layer_1_tri_0
                0x0000000007054758                jrb_dl_Houses_SecondAge_3_Level1_004_mesh_layer_1_vtx_0
                0x0000000007054b38                jrb_dl_Houses_SecondAge_3_Level1_004_mesh_layer_1_vtx_cull
                0x0000000007054bb8                jrb_dl_Houses_SecondAge_3_Level1_003_mesh_layer_1_tri_4
                0x0000000007054c08                jrb_dl_Houses_SecondAge_3_Level1_003_mesh_layer_1_vtx_4
                0x0000000007054dd8                jrb_dl_Houses_SecondAge_3_Level1_003_mesh_layer_1_tri_3
                0x00000000070550e0                jrb_dl_Houses_SecondAge_3_Level1_003_mesh_layer_1_vtx_3
                0x0000000007056620                jrb_dl_Houses_SecondAge_3_Level1_003_mesh_layer_1_tri_2
                0x0000000007056960                jrb_dl_Houses_SecondAge_3_Level1_003_mesh_layer_1_vtx_2
                0x0000000007058020                jrb_dl_Houses_SecondAge_3_Level1_003_mesh_layer_1_tri_1
                0x0000000007058040                jrb_dl_Houses_SecondAge_3_Level1_003_mesh_layer_1_vtx_1
                0x00000000070580c0                jrb_dl_Houses_SecondAge_3_Level1_003_mesh_layer_1_tri_0
                0x0000000007058158                jrb_dl_Houses_SecondAge_3_Level1_003_mesh_layer_1_vtx_0
                0x0000000007058538                jrb_dl_Houses_SecondAge_3_Level1_003_mesh_layer_1_vtx_cull
                0x00000000070585b8                jrb_dl_Houses_SecondAge_3_Level1_002_mesh_layer_1_tri_4
                0x0000000007058608                jrb_dl_Houses_SecondAge_3_Level1_002_mesh_layer_1_vtx_4
                0x00000000070587d8                jrb_dl_Houses_SecondAge_3_Level1_002_mesh_layer_1_tri_3
                0x0000000007058ad8                jrb_dl_Houses_SecondAge_3_Level1_002_mesh_layer_1_vtx_3
                0x0000000007059fd8                jrb_dl_Houses_SecondAge_3_Level1_002_mesh_layer_1_tri_2
                0x000000000705a320                jrb_dl_Houses_SecondAge_3_Level1_002_mesh_layer_1_vtx_2
                0x000000000705ba20                jrb_dl_Houses_SecondAge_3_Level1_002_mesh_layer_1_tri_1
                0x000000000705ba40                jrb_dl_Houses_SecondAge_3_Level1_002_mesh_layer_1_vtx_1
                0x000000000705bac0                jrb_dl_Houses_SecondAge_3_Level1_002_mesh_layer_1_tri_0
                0x000000000705bb58                jrb_dl_Houses_SecondAge_3_Level1_002_mesh_layer_1_vtx_0
                0x000000000705bf38                jrb_dl_Houses_SecondAge_3_Level1_002_mesh_layer_1_vtx_cull
                0x000000000705bfb8                jrb_dl_Houses_SecondAge_3_Level1_001_mesh_layer_1_tri_4
                0x000000000705c008                jrb_dl_Houses_SecondAge_3_Level1_001_mesh_layer_1_vtx_4
                0x000000000705c1d8                jrb_dl_Houses_SecondAge_3_Level1_001_mesh_layer_1_tri_3
                0x000000000705c4e0                jrb_dl_Houses_SecondAge_3_Level1_001_mesh_layer_1_vtx_3
                0x000000000705da20                jrb_dl_Houses_SecondAge_3_Level1_001_mesh_layer_1_tri_2
                0x000000000705dd60                jrb_dl_Houses_SecondAge_3_Level1_001_mesh_layer_1_vtx_2
                0x000000000705f420                jrb_dl_Houses_SecondAge_3_Level1_001_mesh_layer_1_tri_1
                0x000000000705f440                jrb_dl_Houses_SecondAge_3_Level1_001_mesh_layer_1_vtx_1
                0x000000000705f4c0                jrb_dl_Houses_SecondAge_3_Level1_001_mesh_layer_1_tri_0
                0x000000000705f558                jrb_dl_Houses_SecondAge_3_Level1_001_mesh_layer_1_vtx_0
                0x000000000705f938                jrb_dl_Houses_SecondAge_3_Level1_001_mesh_layer_1_vtx_cull
                0x000000000705f9b8                jrb_dl_Houses_SecondAge_3_Level1_mesh_layer_1_tri_4
                0x000000000705fa08                jrb_dl_Houses_SecondAge_3_Level1_mesh_layer_1_vtx_4
                0x000000000705fbd8                jrb_dl_Houses_SecondAge_3_Level1_mesh_layer_1_tri_3
                0x000000000705fed8                jrb_dl_Houses_SecondAge_3_Level1_mesh_layer_1_vtx_3
                0x00000000070613d8                jrb_dl_Houses_SecondAge_3_Level1_mesh_layer_1_tri_2
                0x0000000007061720                jrb_dl_Houses_SecondAge_3_Level1_mesh_layer_1_vtx_2
                0x0000000007062e20                jrb_dl_Houses_SecondAge_3_Level1_mesh_layer_1_tri_1
                0x0000000007062e40                jrb_dl_Houses_SecondAge_3_Level1_mesh_layer_1_vtx_1
                0x0000000007062ec0                jrb_dl_Houses_SecondAge_3_Level1_mesh_layer_1_tri_0
                0x0000000007062f58                jrb_dl_Houses_SecondAge_3_Level1_mesh_layer_1_vtx_0
                0x0000000007063338                jrb_dl_Houses_SecondAge_3_Level1_mesh_layer_1_vtx_cull
                0x00000000070633b8                jrb_dl_Houses_SecondAge_1_Level1_001_mesh_layer_1_tri_4
                0x0000000007063478                jrb_dl_Houses_SecondAge_1_Level1_001_mesh_layer_1_vtx_4
                0x0000000007063978                jrb_dl_Houses_SecondAge_1_Level1_001_mesh_layer_1_tri_3
                0x00000000070639c8                jrb_dl_Houses_SecondAge_1_Level1_001_mesh_layer_1_vtx_3
                0x0000000007063ba8                jrb_dl_Houses_SecondAge_1_Level1_001_mesh_layer_1_tri_2
                0x0000000007064310                jrb_dl_Houses_SecondAge_1_Level1_001_mesh_layer_1_vtx_2
                0x0000000007067730                jrb_dl_Houses_SecondAge_1_Level1_001_mesh_layer_1_tri_1
                0x0000000007067770                jrb_dl_Houses_SecondAge_1_Level1_001_mesh_layer_1_vtx_1
                0x00000000070678e0                jrb_dl_Houses_SecondAge_1_Level1_001_mesh_layer_1_tri_0
                0x0000000007067900                jrb_dl_Houses_SecondAge_1_Level1_001_mesh_layer_1_vtx_0
                0x0000000007067980                jrb_dl_Houses_SecondAge_1_Level1_001_mesh_layer_1_vtx_cull
                0x0000000007067a00                jrb_dl_flowers_002_mesh_layer_5_tri_0
                0x0000000007067ab0                jrb_dl_flowers_002_mesh_layer_5_vtx_0
                0x0000000007067df0                jrb_dl_flowers_002_mesh_layer_5_vtx_cull
                0x0000000007067e70                jrb_dl_flowers_002_mesh_layer_4_tri_0
                0x0000000007067ec0                jrb_dl_flowers_002_mesh_layer_4_vtx_0
                0x0000000007068060                jrb_dl_flowers_002_mesh_layer_4_vtx_cull
                0x00000000070680e0                jrb_dl_flowers_001_mesh_layer_5_tri_0
                0x0000000007068178                jrb_dl_flowers_001_mesh_layer_5_vtx_0
                0x0000000007068478                jrb_dl_flowers_001_mesh_layer_5_vtx_cull
                0x00000000070684f8                jrb_dl_flowers_001_mesh_layer_4_tri_0
                0x0000000007068548                jrb_dl_flowers_001_mesh_layer_4_vtx_0
                0x00000000070686a8                jrb_dl_flowers_001_mesh_layer_4_vtx_cull
                0x0000000007068728                jrb_dl_flowers_mesh_layer_5_tri_0
                0x00000000070687c0                jrb_dl_flowers_mesh_layer_5_vtx_0
                0x0000000007068ac0                jrb_dl_flowers_mesh_layer_5_vtx_cull
                0x0000000007068b40                jrb_dl_flowers_mesh_layer_4_tri_0
                0x0000000007068b90                jrb_dl_flowers_mesh_layer_4_vtx_0
                0x0000000007068cf0                jrb_dl_flowers_mesh_layer_4_vtx_cull
                0x0000000007068d70                jrb_dl_death_plane_mesh_layer_1_tri_0
                0x0000000007068d88                jrb_dl_death_plane_mesh_layer_1_vtx_0
                0x0000000007068dc8                jrb_dl_death_plane_mesh_layer_1_vtx_cull
                0x0000000007068e48                jrb_dl_Cylinder_006_mesh_layer_1_tri_2
                0x0000000007068ed8                jrb_dl_Cylinder_006_mesh_layer_1_vtx_2
                0x00000000070691c8                jrb_dl_Cylinder_006_mesh_layer_1_tri_1
                0x0000000007069380                jrb_dl_Cylinder_006_mesh_layer_1_vtx_1
                0x0000000007069d10                jrb_dl_Cylinder_006_mesh_layer_1_tri_0
                0x0000000007069e48                jrb_dl_Cylinder_006_mesh_layer_1_vtx_0
                0x000000000706a478                jrb_dl_Cylinder_006_mesh_layer_1_vtx_cull
                0x000000000706a4f8                jrb_dl_Cylinder_005_mesh_layer_1_tri_1
                0x000000000706a8c0                jrb_dl_Cylinder_005_mesh_layer_1_vtx_1
                0x000000000706bbe0                jrb_dl_Cylinder_005_mesh_layer_1_tri_0
                0x000000000706bf78                jrb_dl_Cylinder_005_mesh_layer_1_vtx_0
                0x000000000706d208                jrb_dl_Cylinder_005_mesh_layer_1_vtx_cull
                0x000000000706d288                jrb_dl_Cylinder_004_mesh_layer_1_tri_1
                0x000000000706d630                jrb_dl_Cylinder_004_mesh_layer_1_vtx_1
                0x000000000706e8a0                jrb_dl_Cylinder_004_mesh_layer_1_tri_0
                0x000000000706ec10                jrb_dl_Cylinder_004_mesh_layer_1_vtx_0
                0x000000000706fde0                jrb_dl_Cylinder_004_mesh_layer_1_vtx_cull
                0x000000000706fe60                jrb_dl_Cylinder_003_mesh_layer_1_tri_1
                0x000000000706fee8                jrb_dl_Cylinder_003_mesh_layer_1_vtx_1
                0x00000000070700e8                jrb_dl_Cylinder_003_mesh_layer_1_tri_0
                0x0000000007070290                jrb_dl_Cylinder_003_mesh_layer_1_vtx_0
                0x0000000007070c90                jrb_dl_Cylinder_003_mesh_layer_1_vtx_cull
                0x0000000007070d10                jrb_dl_Cylinder_002_mesh_layer_1_tri_1
                0x0000000007070d98                jrb_dl_Cylinder_002_mesh_layer_1_vtx_1
                0x0000000007070f98                jrb_dl_Cylinder_002_mesh_layer_1_tri_0
                0x0000000007071140                jrb_dl_Cylinder_002_mesh_layer_1_vtx_0
                0x0000000007071b40                jrb_dl_Cylinder_002_mesh_layer_1_vtx_cull
                0x0000000007071bc0                jrb_dl_Cylinder_001_mesh_layer_6_tri_0
                0x0000000007071c18                jrb_dl_Cylinder_001_mesh_layer_6_vtx_0
                0x0000000007071d08                jrb_dl_Cylinder_001_mesh_layer_6_vtx_cull
                0x0000000007071d88                jrb_dl_Cylinder_mesh_layer_1_tri_2
                0x0000000007071e18                jrb_dl_Cylinder_mesh_layer_1_vtx_2
                0x00000000070721d8                jrb_dl_Cylinder_mesh_layer_1_tri_1
                0x0000000007072360                jrb_dl_Cylinder_mesh_layer_1_vtx_1
                0x0000000007072c90                jrb_dl_Cylinder_mesh_layer_1_tri_0
                0x0000000007072d58                jrb_dl_Cylinder_mesh_layer_1_vtx_0
                0x0000000007073068                jrb_dl_Cylinder_mesh_layer_1_vtx_cull
                0x00000000070730e8                jrb_dl_Cube_064_mesh_layer_1_tri_5
                0x0000000007073140                jrb_dl_Cube_064_mesh_layer_1_vtx_5
                0x0000000007073440                jrb_dl_Cube_064_mesh_layer_1_tri_4
                0x0000000007073480                jrb_dl_Cube_064_mesh_layer_1_vtx_4
                0x0000000007073600                jrb_dl_Cube_064_mesh_layer_1_tri_3
                0x0000000007073640                jrb_dl_Cube_064_mesh_layer_1_vtx_3
                0x00000000070737c0                jrb_dl_Cube_064_mesh_layer_1_tri_2
                0x0000000007073828                jrb_dl_Cube_064_mesh_layer_1_vtx_2
                0x0000000007073aa8                jrb_dl_Cube_064_mesh_layer_1_tri_1
                0x0000000007073c88                jrb_dl_Cube_064_mesh_layer_1_vtx_1
                0x0000000007074908                jrb_dl_Cube_064_mesh_layer_1_tri_0
                0x0000000007074d80                jrb_dl_Cube_064_mesh_layer_1_vtx_0
                0x0000000007077000                jrb_dl_Cube_064_mesh_layer_1_vtx_cull
                0x0000000007077080                jrb_dl_Cube_058_mesh_layer_1_tri_0
                0x0000000007077248                jrb_dl_Cube_058_mesh_layer_1_vtx_0
                0x0000000007077e08                jrb_dl_Cube_058_mesh_layer_1_vtx_cull
                0x0000000007077e88                jrb_dl_Cube_056_mesh_layer_1_tri_1
                0x0000000007077ea0                jrb_dl_Cube_056_mesh_layer_1_vtx_1
                0x0000000007077ee0                jrb_dl_Cube_056_mesh_layer_1_tri_0
                0x0000000007077f18                jrb_dl_Cube_056_mesh_layer_1_vtx_0
                0x0000000007078058                jrb_dl_Cube_056_mesh_layer_1_vtx_cull
                0x00000000070780d8                jrb_dl_Cube_055_mesh_layer_1_tri_0
                0x0000000007078118                jrb_dl_Cube_055_mesh_layer_1_vtx_0
                0x0000000007078298                jrb_dl_Cube_055_mesh_layer_1_vtx_cull
                0x0000000007078318                jrb_dl_Cube_054_mesh_layer_6_tri_0
                0x00000000070783e0                jrb_dl_Cube_054_mesh_layer_6_vtx_0
                0x00000000070785e0                jrb_dl_Cube_054_mesh_layer_6_vtx_cull
                0x0000000007078660                jrb_dl_Cube_053_mesh_layer_6_tri_0
                0x0000000007078728                jrb_dl_Cube_053_mesh_layer_6_vtx_0
                0x0000000007078928                jrb_dl_Cube_053_mesh_layer_6_vtx_cull
                0x00000000070789a8                jrb_dl_Cube_051_mesh_layer_1_tri_0
                0x0000000007078b70                jrb_dl_Cube_051_mesh_layer_1_vtx_0
                0x0000000007079730                jrb_dl_Cube_051_mesh_layer_1_vtx_cull
                0x00000000070797b0                jrb_dl_Cube_050_mesh_layer_1_tri_1
                0x0000000007079828                jrb_dl_Cube_050_mesh_layer_1_vtx_1
                0x0000000007079af8                jrb_dl_Cube_050_mesh_layer_1_tri_0
                0x0000000007079b70                jrb_dl_Cube_050_mesh_layer_1_vtx_0
                0x0000000007079e40                jrb_dl_Cube_050_mesh_layer_1_vtx_cull
                0x0000000007079ec0                jrb_dl_Cube_049_mesh_layer_1_tri_1
                0x0000000007079fc8                jrb_dl_Cube_049_mesh_layer_1_vtx_1
                0x000000000707a658                jrb_dl_Cube_049_mesh_layer_1_tri_0
                0x000000000707a718                jrb_dl_Cube_049_mesh_layer_1_vtx_0
                0x000000000707abb8                jrb_dl_Cube_049_mesh_layer_1_vtx_cull
                0x000000000707ac38                jrb_dl_Cube_048_mesh_layer_1_tri_0
                0x000000000707ac78                jrb_dl_Cube_048_mesh_layer_1_vtx_0
                0x000000000707adf8                jrb_dl_Cube_048_mesh_layer_1_vtx_cull
                0x000000000707ae78                jrb_dl_Cube_047_mesh_layer_1_tri_0
                0x000000000707aeb8                jrb_dl_Cube_047_mesh_layer_1_vtx_0
                0x000000000707b038                jrb_dl_Cube_047_mesh_layer_1_vtx_cull
                0x000000000707b0b8                jrb_dl_Cube_046_mesh_layer_6_tri_0
                0x000000000707b180                jrb_dl_Cube_046_mesh_layer_6_vtx_0
                0x000000000707b380                jrb_dl_Cube_046_mesh_layer_6_vtx_cull
                0x000000000707b400                jrb_dl_Cube_045_mesh_layer_1_tri_1
                0x000000000707b430                jrb_dl_Cube_045_mesh_layer_1_vtx_1
                0x000000000707b530                jrb_dl_Cube_045_mesh_layer_1_tri_0
                0x000000000707b550                jrb_dl_Cube_045_mesh_layer_1_vtx_0
                0x000000000707b5d0                jrb_dl_Cube_045_mesh_layer_1_vtx_cull
                0x000000000707b650                jrb_dl_Cube_044_mesh_layer_1_tri_1
                0x000000000707b6f0                jrb_dl_Cube_044_mesh_layer_1_vtx_1
                0x000000000707b9c0                jrb_dl_Cube_044_mesh_layer_1_tri_0
                0x000000000707bae0                jrb_dl_Cube_044_mesh_layer_1_vtx_0
                0x000000000707bfc0                jrb_dl_Cube_044_mesh_layer_1_vtx_cull
                0x000000000707c040                jrb_dl_Cube_043_mesh_layer_1_tri_0
                0x000000000707c070                jrb_dl_Cube_043_mesh_layer_1_vtx_0
                0x000000000707c190                jrb_dl_Cube_043_mesh_layer_1_vtx_cull
                0x000000000707c210                jrb_dl_Cube_042_mesh_layer_1_tri_1
                0x000000000707c308                jrb_dl_Cube_042_mesh_layer_1_vtx_1
                0x000000000707c828                jrb_dl_Cube_042_mesh_layer_1_tri_0
                0x000000000707c9c8                jrb_dl_Cube_042_mesh_layer_1_vtx_0
                0x000000000707d1f8                jrb_dl_Cube_042_mesh_layer_1_vtx_cull
                0x000000000707d278                jrb_dl_Cube_041_mesh_layer_1_tri_0
                0x000000000707d2b8                jrb_dl_Cube_041_mesh_layer_1_vtx_0
                0x000000000707d438                jrb_dl_Cube_041_mesh_layer_1_vtx_cull
                0x000000000707d4b8                jrb_dl_Cube_040_mesh_layer_1_tri_0
                0x000000000707d4f8                jrb_dl_Cube_040_mesh_layer_1_vtx_0
                0x000000000707d678                jrb_dl_Cube_040_mesh_layer_1_vtx_cull
                0x000000000707d6f8                jrb_dl_Cube_039_mesh_layer_1_tri_0
                0x000000000707d728                jrb_dl_Cube_039_mesh_layer_1_vtx_0
                0x000000000707d848                jrb_dl_Cube_039_mesh_layer_1_vtx_cull
                0x000000000707d8c8                jrb_dl_Cube_038_mesh_layer_5_tri_0
                0x000000000707d8e8                jrb_dl_Cube_038_mesh_layer_5_vtx_0
                0x000000000707d948                jrb_dl_Cube_038_mesh_layer_5_vtx_cull
                0x000000000707d9c8                jrb_dl_Cube_037_mesh_layer_1_tri_0
                0x000000000707da08                jrb_dl_Cube_037_mesh_layer_1_vtx_0
                0x000000000707db88                jrb_dl_Cube_037_mesh_layer_1_vtx_cull
                0x000000000707dc08                jrb_dl_Cube_036_mesh_layer_1_tri_1
                0x000000000707dc38                jrb_dl_Cube_036_mesh_layer_1_vtx_1
                0x000000000707dd38                jrb_dl_Cube_036_mesh_layer_1_tri_0
                0x000000000707dd58                jrb_dl_Cube_036_mesh_layer_1_vtx_0
                0x000000000707ddd8                jrb_dl_Cube_036_mesh_layer_1_vtx_cull
                0x000000000707de58                jrb_dl_Cube_035_mesh_layer_5_tri_0
                0x000000000707de98                jrb_dl_Cube_035_mesh_layer_5_vtx_0
                0x000000000707e018                jrb_dl_Cube_035_mesh_layer_5_vtx_cull
                0x000000000707e098                jrb_dl_Cube_035_mesh_layer_4_tri_0
                0x000000000707e0d8                jrb_dl_Cube_035_mesh_layer_4_vtx_0
                0x000000000707e258                jrb_dl_Cube_035_mesh_layer_4_vtx_cull
                0x000000000707e2d8                jrb_dl_Cube_035_mesh_layer_1_tri_9
                0x000000000707f240                jrb_dl_Cube_035_mesh_layer_1_vtx_9
                0x0000000007085d30                jrb_dl_Cube_035_mesh_layer_1_tri_8
                0x0000000007085f00                jrb_dl_Cube_035_mesh_layer_1_vtx_8
                0x00000000070869c0                jrb_dl_Cube_035_mesh_layer_1_tri_7
                0x00000000070869f0                jrb_dl_Cube_035_mesh_layer_1_vtx_7
                0x0000000007086ae0                jrb_dl_Cube_035_mesh_layer_1_tri_6
                0x0000000007086c70                jrb_dl_Cube_035_mesh_layer_1_vtx_6
                0x0000000007087550                jrb_dl_Cube_035_mesh_layer_1_tri_5
                0x0000000007087600                jrb_dl_Cube_035_mesh_layer_1_vtx_5
                0x0000000007087a80                jrb_dl_Cube_035_mesh_layer_1_tri_4
                0x0000000007087db8                jrb_dl_Cube_035_mesh_layer_1_vtx_4
                0x0000000007089438                jrb_dl_Cube_035_mesh_layer_1_tri_3
                0x0000000007089470                jrb_dl_Cube_035_mesh_layer_1_vtx_3
                0x0000000007089580                jrb_dl_Cube_035_mesh_layer_1_tri_2
                0x00000000070895c0                jrb_dl_Cube_035_mesh_layer_1_vtx_2
                0x0000000007089740                jrb_dl_Cube_035_mesh_layer_1_tri_1
                0x0000000007089920                jrb_dl_Cube_035_mesh_layer_1_vtx_1
                0x000000000708a3b0                jrb_dl_Cube_035_mesh_layer_1_tri_0
                0x000000000708a410                jrb_dl_Cube_035_mesh_layer_1_vtx_0
                0x000000000708a5d0                jrb_dl_Cube_035_mesh_layer_1_vtx_cull
                0x000000000708a650                jrb_dl_Cube_034_mesh_layer_1_tri_1
                0x000000000708a668                jrb_dl_Cube_034_mesh_layer_1_vtx_1
                0x000000000708a6a8                jrb_dl_Cube_034_mesh_layer_1_tri_0
                0x000000000708a6e0                jrb_dl_Cube_034_mesh_layer_1_vtx_0
                0x000000000708a820                jrb_dl_Cube_034_mesh_layer_1_vtx_cull
                0x000000000708a8a0                jrb_dl_Cube_033_mesh_layer_6_tri_0
                0x000000000708a968                jrb_dl_Cube_033_mesh_layer_6_vtx_0
                0x000000000708ab68                jrb_dl_Cube_033_mesh_layer_6_vtx_cull
                0x000000000708abe8                jrb_dl_Cube_032_mesh_layer_1_tri_0
                0x000000000708ac60                jrb_dl_Cube_032_mesh_layer_1_vtx_0
                0x000000000708af60                jrb_dl_Cube_032_mesh_layer_1_vtx_cull
                0x000000000708afe0                jrb_dl_Cube_031_mesh_layer_1_tri_1
                0x000000000708b010                jrb_dl_Cube_031_mesh_layer_1_vtx_1
                0x000000000708b110                jrb_dl_Cube_031_mesh_layer_1_tri_0
                0x000000000708b130                jrb_dl_Cube_031_mesh_layer_1_vtx_0
                0x000000000708b1b0                jrb_dl_Cube_031_mesh_layer_1_vtx_cull
                0x000000000708b230                jrb_dl_Cube_030_mesh_layer_1_tri_0
                0x000000000708b3f8                jrb_dl_Cube_030_mesh_layer_1_vtx_0
                0x000000000708bfb8                jrb_dl_Cube_030_mesh_layer_1_vtx_cull
                0x000000000708c038                jrb_dl_Cube_029_mesh_layer_1_tri_0
                0x000000000708c200                jrb_dl_Cube_029_mesh_layer_1_vtx_0
                0x000000000708cdc0                jrb_dl_Cube_029_mesh_layer_1_vtx_cull
                0x000000000708ce40                jrb_dl_Cube_028_mesh_layer_1_tri_0
                0x000000000708d008                jrb_dl_Cube_028_mesh_layer_1_vtx_0
                0x000000000708dbc8                jrb_dl_Cube_028_mesh_layer_1_vtx_cull
                0x000000000708dc48                jrb_dl_Cube_027_mesh_layer_6_tri_0
                0x000000000708dd10                jrb_dl_Cube_027_mesh_layer_6_vtx_0
                0x000000000708df10                jrb_dl_Cube_027_mesh_layer_6_vtx_cull
                0x000000000708df90                jrb_dl_Cube_026_mesh_layer_1_tri_1
                0x000000000708dfc0                jrb_dl_Cube_026_mesh_layer_1_vtx_1
                0x000000000708e0c0                jrb_dl_Cube_026_mesh_layer_1_tri_0
                0x000000000708e0e0                jrb_dl_Cube_026_mesh_layer_1_vtx_0
                0x000000000708e160                jrb_dl_Cube_026_mesh_layer_1_vtx_cull
                0x000000000708e1e0                jrb_dl_Cube_024_mesh_layer_1_tri_1
                0x000000000708e210                jrb_dl_Cube_024_mesh_layer_1_vtx_1
                0x000000000708e310                jrb_dl_Cube_024_mesh_layer_1_tri_0
                0x000000000708e330                jrb_dl_Cube_024_mesh_layer_1_vtx_0
                0x000000000708e3b0                jrb_dl_Cube_024_mesh_layer_1_vtx_cull
                0x000000000708e430                jrb_dl_Cube_023_mesh_layer_5_tri_0
                0x000000000708e4b8                jrb_dl_Cube_023_mesh_layer_5_vtx_0
                0x000000000708e838                jrb_dl_Cube_023_mesh_layer_5_vtx_cull
                0x000000000708e8b8                jrb_dl_Cube_022_mesh_layer_6_tri_0
                0x000000000708e8f0                jrb_dl_Cube_022_mesh_layer_6_vtx_0
                0x000000000708e980                jrb_dl_Cube_022_mesh_layer_6_vtx_cull
                0x000000000708ea00                jrb_dl_Cube_021_mesh_layer_1_tri_1
                0x000000000708ea30                jrb_dl_Cube_021_mesh_layer_1_vtx_1
                0x000000000708eb30                jrb_dl_Cube_021_mesh_layer_1_tri_0
                0x000000000708eb50                jrb_dl_Cube_021_mesh_layer_1_vtx_0
                0x000000000708ebd0                jrb_dl_Cube_021_mesh_layer_1_vtx_cull
                0x000000000708ec50                jrb_dl_Cube_020_mesh_layer_5_tri_0
                0x000000000708ecd8                jrb_dl_Cube_020_mesh_layer_5_vtx_0
                0x000000000708efd8                jrb_dl_Cube_020_mesh_layer_5_vtx_cull
                0x000000000708f058                jrb_dl_Cube_019_mesh_layer_1_tri_3
                0x000000000708f090                jrb_dl_Cube_019_mesh_layer_1_vtx_3
                0x000000000708f1d0                jrb_dl_Cube_019_mesh_layer_1_tri_2
                0x000000000708f208                jrb_dl_Cube_019_mesh_layer_1_vtx_2
                0x000000000708f2c8                jrb_dl_Cube_019_mesh_layer_1_tri_1
                0x000000000708f310                jrb_dl_Cube_019_mesh_layer_1_vtx_1
                0x000000000708f470                jrb_dl_Cube_019_mesh_layer_1_tri_0
                0x000000000708f4a8                jrb_dl_Cube_019_mesh_layer_1_vtx_0
                0x000000000708f5a8                jrb_dl_Cube_019_mesh_layer_1_vtx_cull
                0x000000000708f628                jrb_dl_Cube_018_mesh_layer_5_tri_1
                0x000000000708f648                jrb_dl_Cube_018_mesh_layer_5_vtx_1
                0x000000000708f6c8                jrb_dl_Cube_018_mesh_layer_5_tri_0
                0x000000000708f740                jrb_dl_Cube_018_mesh_layer_5_vtx_0
                0x000000000708fa40                jrb_dl_Cube_018_mesh_layer_5_vtx_cull
                0x000000000708fac0                jrb_dl_Cube_017_mesh_layer_1_tri_0
                0x000000000708fc88                jrb_dl_Cube_017_mesh_layer_1_vtx_0
                0x0000000007090848                jrb_dl_Cube_017_mesh_layer_1_vtx_cull
                0x00000000070908c8                jrb_dl_Cube_016_mesh_layer_1_tri_0
                0x0000000007090908                jrb_dl_Cube_016_mesh_layer_1_vtx_0
                0x0000000007090a88                jrb_dl_Cube_016_mesh_layer_1_vtx_cull
                0x0000000007090b08                jrb_dl_Cube_015_mesh_layer_1_tri_1
                0x0000000007090b20                jrb_dl_Cube_015_mesh_layer_1_vtx_1
                0x0000000007090b60                jrb_dl_Cube_015_mesh_layer_1_tri_0
                0x0000000007090b98                jrb_dl_Cube_015_mesh_layer_1_vtx_0
                0x0000000007090cd8                jrb_dl_Cube_015_mesh_layer_1_vtx_cull
                0x0000000007090d58                jrb_dl_Cube_014_mesh_layer_1_tri_0
                0x0000000007090dc0                jrb_dl_Cube_014_mesh_layer_1_vtx_0
                0x0000000007091040                jrb_dl_Cube_014_mesh_layer_1_vtx_cull
                0x00000000070910c0                jrb_dl_Cube_013_mesh_layer_1_tri_4
                0x0000000007091110                jrb_dl_Cube_013_mesh_layer_1_vtx_4
                0x0000000007091230                jrb_dl_Cube_013_mesh_layer_1_tri_3
                0x00000000070913b0                jrb_dl_Cube_013_mesh_layer_1_vtx_3
                0x0000000007091ca0                jrb_dl_Cube_013_mesh_layer_1_tri_2
                0x0000000007091ce8                jrb_dl_Cube_013_mesh_layer_1_vtx_2
                0x0000000007091e28                jrb_dl_Cube_013_mesh_layer_1_tri_1
                0x0000000007091ff8                jrb_dl_Cube_013_mesh_layer_1_vtx_1
                0x0000000007092ba8                jrb_dl_Cube_013_mesh_layer_1_tri_0
                0x00000000070930d8                jrb_dl_Cube_013_mesh_layer_1_vtx_0
                0x0000000007094778                jrb_dl_Cube_013_mesh_layer_1_vtx_cull
                0x00000000070947f8                jrb_dl_Cube_012_mesh_layer_1_tri_1
                0x0000000007094810                jrb_dl_Cube_012_mesh_layer_1_vtx_1
                0x0000000007094850                jrb_dl_Cube_012_mesh_layer_1_tri_0
                0x00000000070948a8                jrb_dl_Cube_012_mesh_layer_1_vtx_0
                0x0000000007094a68                jrb_dl_Cube_012_mesh_layer_1_vtx_cull
                0x0000000007094ae8                jrb_dl_Cube_011_mesh_layer_1_tri_0
                0x0000000007094b28                jrb_dl_Cube_011_mesh_layer_1_vtx_0
                0x0000000007094ca8                jrb_dl_Cube_011_mesh_layer_1_vtx_cull
                0x0000000007094d28                jrb_dl_Cube_010_mesh_layer_5_tri_0
                0x0000000007094d78                jrb_dl_Cube_010_mesh_layer_5_vtx_0
                0x0000000007094e98                jrb_dl_Cube_010_mesh_layer_5_vtx_cull
                0x0000000007094f18                jrb_dl_Cube_009_mesh_layer_1_tri_0
                0x0000000007094f58                jrb_dl_Cube_009_mesh_layer_1_vtx_0
                0x00000000070950d8                jrb_dl_Cube_009_mesh_layer_1_vtx_cull
                0x0000000007095158                jrb_dl_Cube_008_mesh_layer_5_tri_0
                0x00000000070951a0                jrb_dl_Cube_008_mesh_layer_5_vtx_0
                0x00000000070952c0                jrb_dl_Cube_008_mesh_layer_5_vtx_cull
                0x0000000007095340                jrb_dl_Cube_007_mesh_layer_1_tri_0
                0x0000000007095508                jrb_dl_Cube_007_mesh_layer_1_vtx_0
                0x00000000070960c8                jrb_dl_Cube_007_mesh_layer_1_vtx_cull
                0x0000000007096148                jrb_dl_Cube_006_mesh_layer_1_tri_0
                0x0000000007096310                jrb_dl_Cube_006_mesh_layer_1_vtx_0
                0x0000000007096ed0                jrb_dl_Cube_006_mesh_layer_1_vtx_cull
                0x0000000007096f50                jrb_dl_Cube_005_mesh_layer_1_tri_0
                0x0000000007097118                jrb_dl_Cube_005_mesh_layer_1_vtx_0
                0x0000000007097cd8                jrb_dl_Cube_005_mesh_layer_1_vtx_cull
                0x0000000007097d58                jrb_dl_Cube_004_mesh_layer_1_tri_0
                0x0000000007097d98                jrb_dl_Cube_004_mesh_layer_1_vtx_0
                0x0000000007097f18                jrb_dl_Cube_004_mesh_layer_1_vtx_cull
                0x0000000007097f98                jrb_dl_Cube_003_mesh_layer_1_tri_0
                0x00000000070980e8                jrb_dl_Cube_003_mesh_layer_1_vtx_0
                0x0000000007098878                jrb_dl_Cube_003_mesh_layer_1_vtx_cull
                0x00000000070988f8                jrb_dl_Cube_002_mesh_layer_1_tri_0
                0x0000000007098a10                jrb_dl_Cube_002_mesh_layer_1_vtx_0
                0x0000000007099190                jrb_dl_Cube_002_mesh_layer_1_vtx_cull
                0x0000000007099210                jrb_dl_Cube_001_mesh_layer_5_tri_0
                0x0000000007099250                jrb_dl_Cube_001_mesh_layer_5_vtx_0
                0x00000000070993d0                jrb_dl_Cube_001_mesh_layer_5_vtx_cull
                0x0000000007099450                jrb_dl_Cube_mesh_layer_1_tri_4
                0x00000000070994a0                jrb_dl_Cube_mesh_layer_1_vtx_4
                0x0000000007099600                jrb_dl_Cube_mesh_layer_1_tri_3
                0x0000000007099648                jrb_dl_Cube_mesh_layer_1_vtx_3
                0x00000000070997c8                jrb_dl_Cube_mesh_layer_1_tri_2
                0x00000000070997e8                jrb_dl_Cube_mesh_layer_1_vtx_2
                0x0000000007099838                jrb_dl_Cube_mesh_layer_1_tri_1
                0x0000000007099958                jrb_dl_Cube_mesh_layer_1_vtx_1
                0x000000000709a088                jrb_dl_Cube_mesh_layer_1_tri_0
                0x000000000709a1d0                jrb_dl_Cube_mesh_layer_1_vtx_0
                0x000000000709a860                jrb_dl_Cube_mesh_layer_1_vtx_cull
                0x000000000709a8e0                jrb_dl_bridge_mesh_layer_1_tri_0
                0x000000000709aa18                jrb_dl_bridge_mesh_layer_1_vtx_0
                0x000000000709af88                jrb_dl_bridge_mesh_layer_1_vtx_cull
                0x000000000709b008                jrb_dl_Alpha_002_mesh_layer_6_tri_0
                0x000000000709b050                jrb_dl_Alpha_002_mesh_layer_6_vtx_0
                0x000000000709b1e0                jrb_dl_Alpha_002_mesh_layer_6_vtx_cull
                0x000000000709b260                jrb_dl_Alpha_001_mesh_layer_6_tri_0
                0x000000000709b418                jrb_dl_Alpha_001_mesh_layer_6_vtx_0
                0x000000000709bec8                jrb_dl_Alpha_001_mesh_layer_6_vtx_cull
                0x000000000709bf48                jrb_dl_Alpha_mesh_layer_1_tri_2
                0x000000000709bfc0                jrb_dl_Alpha_mesh_layer_1_vtx_2
                0x000000000709c2c0                jrb_dl_Alpha_mesh_layer_1_tri_1
                0x000000000709c3a8                jrb_dl_Alpha_mesh_layer_1_vtx_1
                0x000000000709c968                jrb_dl_Alpha_mesh_layer_1_tri_0
                0x000000000709ccf8                jrb_dl_Alpha_mesh_layer_1_vtx_0
                0x000000000709e178                jrb_dl_Alpha_mesh_layer_1_vtx_cull
                0x000000000709e1f8                jrb_dl_grate_pal_rgba16
                0x000000000709e2e0                jrb_dl_grate_pal_rgba16_aligner
                0x000000000709e2e8                jrb_dl_grate_ci8
                0x000000000709e6e8                jrb_dl_grate_ci8_aligner
                0x000000000709e6f0                jrb_dl_rgba16_anonmoose_GreenishSquare_pal_rgba16
                0x000000000709e718                jrb_dl_rgba16_anonmoose_GreenishSquare_pal_rgba16_aligner
                0x000000000709e720                jrb_dl_rgba16_anonmoose_GreenishSquare_ci8
                0x000000000709eb20                jrb_dl_rgba16_anonmoose_GreenishSquare_ci8_aligner
                0x000000000709eb28                jrb_dl_flower_pal_rgba16_copy
                0x000000000709eb88                jrb_dl_flower_pal_rgba16_copy_aligner
                0x000000000709eb90                jrb_dl_flower_ci8_copy
                0x000000000709ef90                jrb_dl_flower_ci8_copy_aligner
                0x000000000709ef98                jrb_dl__7_pal_rgba16
                0x000000000709f058                jrb_dl__7_pal_rgba16_aligner
                0x000000000709f060                jrb_dl__7_ci8
                0x000000000709f460                jrb_dl__7_ci8_aligner
                0x000000000709f468                jrb_dl_flower_pal_rgba16
                0x000000000709f4c8                jrb_dl_flower_pal_rgba16_aligner
                0x000000000709f4d0                jrb_dl_flower_ci8
                0x000000000709f8d0                jrb_dl_flower_ci8_aligner
                0x000000000709f8d8                jrb_dl_i4_sophie_static_i8
                0x00000000070a08d8                jrb_dl_i4_sophie_static_i8_aligner
                0x00000000070a08e0                jrb_dl_ci4_sophie_hay_pal_rgba16
                0x00000000070a0900                jrb_dl_ci4_sophie_hay_pal_rgba16_aligner
                0x00000000070a0908                jrb_dl_ci4_sophie_hay_ci4
                0x00000000070a1108                jrb_dl_ci4_sophie_hay_ci4_aligner
                0x00000000070a1110                jrb_dl_rgba16_anonmoose_swirl1_pal_rgba16
                0x00000000070a1160                jrb_dl_rgba16_anonmoose_swirl1_pal_rgba16_aligner
                0x00000000070a1168                jrb_dl_rgba16_anonmoose_swirl1_ci8
                0x00000000070a1568                jrb_dl_rgba16_anonmoose_swirl1_ci8_aligner
                0x00000000070a1570                jrb_dl_ci4_sophie_tablecloth_pal_rgba16
                0x00000000070a1590                jrb_dl_ci4_sophie_tablecloth_pal_rgba16_aligner
                0x00000000070a1598                jrb_dl_ci4_sophie_tablecloth_ci4
                0x00000000070a1d98                jrb_dl_ci4_sophie_tablecloth_ci4_aligner
                0x00000000070a1da0                jrb_dl_rings_pal_rgba16
                0x00000000070a1e80                jrb_dl_rings_pal_rgba16_aligner
                0x00000000070a1e88                jrb_dl_rings_ci8
                0x00000000070a2288                jrb_dl_rings_ci8_aligner
                0x00000000070a2290                jrb_dl_yucky_pal_rgba16
                0x00000000070a22f0                jrb_dl_yucky_pal_rgba16_aligner
                0x00000000070a22f8                jrb_dl_yucky_ci8
                0x00000000070a26f8                jrb_dl_yucky_ci8_aligner
                0x00000000070a2700                jrb_dl_KKIIDDZZ_DAT_964__p00_pal_rgba16_copy
                0x00000000070a27e0                jrb_dl_KKIIDDZZ_DAT_964__p00_pal_rgba16_copy_aligner
                0x00000000070a27e8                jrb_dl_KKIIDDZZ_DAT_964__p00_ci8_copy
                0x00000000070a2be8                jrb_dl_KKIIDDZZ_DAT_964__p00_ci8_copy_aligner
                0x00000000070a2bf0                jrb_dl_GM4E01_3b9bd952_14_pal_rgba16
                0x00000000070a2c18                jrb_dl_GM4E01_3b9bd952_14_pal_rgba16_aligner
                0x00000000070a2c20                jrb_dl_GM4E01_3b9bd952_14_ci8
                0x00000000070a3020                jrb_dl_GM4E01_3b9bd952_14_ci8_aligner
                0x00000000070a3028                jrb_dl_light_pal_rgba16
                0x00000000070a3030                jrb_dl_light_pal_rgba16_aligner
                0x00000000070a3038                jrb_dl_light_ci4
                0x00000000070a3238                jrb_dl_light_ci4_aligner
                0x00000000070a3240                jrb_dl_KKIIDDZZ_DAT_1060__p00_pal_rgba16
                0x00000000070a32e0                jrb_dl_KKIIDDZZ_DAT_1060__p00_pal_rgba16_aligner
                0x00000000070a32e8                jrb_dl_KKIIDDZZ_DAT_1060__p00_ci8
                0x00000000070a36e8                jrb_dl_KKIIDDZZ_DAT_1060__p00_ci8_aligner
                0x00000000070a36f0                jrb_dl_ci4_sophie_wall_pal_rgba16
                0x00000000070a3710                jrb_dl_ci4_sophie_wall_pal_rgba16_aligner
                0x00000000070a3718                jrb_dl_ci4_sophie_wall_ci4
                0x00000000070a3f18                jrb_dl_ci4_sophie_wall_ci4_aligner
                0x00000000070a3f20                jrb_dl_ci4_sophie_metal2_pal_rgba16
                0x00000000070a3f40                jrb_dl_ci4_sophie_metal2_pal_rgba16_aligner
                0x00000000070a3f48                jrb_dl_ci4_sophie_metal2_ci4
                0x00000000070a4748                jrb_dl_ci4_sophie_metal2_ci4_aligner
                0x00000000070a4750                jrb_dl_rgba16_anonmoose_envmap_gold1_pal_rgba16
                0x00000000070a48c0                jrb_dl_rgba16_anonmoose_envmap_gold1_pal_rgba16_aligner
                0x00000000070a48c8                jrb_dl_rgba16_anonmoose_envmap_gold1_ci8
                0x00000000070a4cc8                jrb_dl_rgba16_anonmoose_envmap_gold1_ci8_aligner
                0x00000000070a4cd0                jrb_dl_ci4_anonmoose_whiteblock_pal_rgba16
                0x00000000070a4cf0                jrb_dl_ci4_anonmoose_whiteblock_pal_rgba16_aligner
                0x00000000070a4cf8                jrb_dl_ci4_anonmoose_whiteblock_ci4
                0x00000000070a54f8                jrb_dl_ci4_anonmoose_whiteblock_ci4_aligner
                0x00000000070a5500                jrb_dl_tempImgEd032C_pal_rgba16
                0x00000000070a5680                jrb_dl_tempImgEd032C_pal_rgba16_aligner
                0x00000000070a5688                jrb_dl_tempImgEd032C_ci8
                0x00000000070a5a88                jrb_dl_tempImgEd032C_ci8_aligner
                0x00000000070a5a90                jrb_dl_KKIIDDZZ_DAT_972__p00_pal_rgba16
                0x00000000070a5bc0                jrb_dl_KKIIDDZZ_DAT_972__p00_pal_rgba16_aligner
                0x00000000070a5bc8                jrb_dl_KKIIDDZZ_DAT_972__p00_ci8
                0x00000000070a5fc8                jrb_dl_KKIIDDZZ_DAT_972__p00_ci8_aligner
                0x00000000070a5fd0                jrb_dl_invisible_ia8
                0x00000000070a63d0                jrb_dl_invisible_ia8_aligner
                0x00000000070a63d8                jrb_dl_KKIIDDZZ_DAT_1061__p00_pal_rgba16
                0x00000000070a64a0                jrb_dl_KKIIDDZZ_DAT_1061__p00_pal_rgba16_aligner
                0x00000000070a64a8                jrb_dl_KKIIDDZZ_DAT_1061__p00_ci8
                0x00000000070a68a8                jrb_dl_KKIIDDZZ_DAT_1061__p00_ci8_aligner
                0x00000000070a68b0                jrb_dl_KKIIDDZZ_DAT_971__p00_pal_rgba16
                0x00000000070a69d8                jrb_dl_KKIIDDZZ_DAT_971__p00_pal_rgba16_aligner
                0x00000000070a69e0                jrb_dl_KKIIDDZZ_DAT_971__p00_ci8
                0x00000000070a6de0                jrb_dl_KKIIDDZZ_DAT_971__p00_ci8_aligner
                0x00000000070a6de8                jrb_dl_KKIIDDZZ_DAT_1059__p00_pal_rgba16
                0x00000000070a6e70                jrb_dl_KKIIDDZZ_DAT_1059__p00_pal_rgba16_aligner
                0x00000000070a6e78                jrb_dl_KKIIDDZZ_DAT_1059__p00_ci8
                0x00000000070a7278                jrb_dl_KKIIDDZZ_DAT_1059__p00_ci8_aligner
                0x00000000070a7280                jrb_dl_ci4_anonmoose_treebark1_pal_rgba16
                0x00000000070a72a0                jrb_dl_ci4_anonmoose_treebark1_pal_rgba16_aligner
                0x00000000070a72a8                jrb_dl_ci4_anonmoose_treebark1_ci4
                0x00000000070a7aa8                jrb_dl_ci4_anonmoose_treebark1_ci4_aligner
                0x00000000070a7ab0                jrb_dl__25_pal_rgba16
                0x00000000070a7b20                jrb_dl__25_pal_rgba16_aligner
                0x00000000070a7b28                jrb_dl__25_ci8
                0x00000000070a7f28                jrb_dl__25_ci8_aligner
                0x00000000070a7f30                jrb_dl_KKIIDDZZ_DAT_964__p00_pal_rgba16
                0x00000000070a8010                jrb_dl_KKIIDDZZ_DAT_964__p00_pal_rgba16_aligner
                0x00000000070a8018                jrb_dl_KKIIDDZZ_DAT_964__p00_ci8
                0x00000000070a8418                jrb_dl_KKIIDDZZ_DAT_964__p00_ci8_aligner
                0x00000000070a8420                jrb_dl_ci4_zeina_water_1_pal_rgba16
                0x00000000070a8440                jrb_dl_ci4_zeina_water_1_pal_rgba16_aligner
                0x00000000070a8448                jrb_dl_ci4_zeina_water_1_ci4
                0x00000000070a8c48                jrb_dl_ci4_zeina_water_1_ci4_aligner
                0x00000000070a8c50                jrb_dl_ci4_sophie_rooftile_pal_rgba16
                0x00000000070a8c70                jrb_dl_ci4_sophie_rooftile_pal_rgba16_aligner
                0x00000000070a8c78                jrb_dl_ci4_sophie_rooftile_ci4
                0x00000000070a9478                jrb_dl_ci4_sophie_rooftile_ci4_aligner
                0x00000000070a9480                jrb_dl_ci4_sophie_broom_pal_rgba16
                0x00000000070a94a0                jrb_dl_ci4_sophie_broom_pal_rgba16_aligner
                0x00000000070a94a8                jrb_dl_ci4_sophie_broom_ci4
                0x00000000070a9ca8                jrb_dl_ci4_sophie_broom_ci4_aligner
                0x00000000070a9cb0                jrb_dl_ci4_sophie_wood2_pal_rgba16
                0x00000000070a9cd0                jrb_dl_ci4_sophie_wood2_pal_rgba16_aligner
                0x00000000070a9cd8                jrb_dl_ci4_sophie_wood2_ci4
                0x00000000070aa4d8                jrb_dl_ci4_sophie_wood2_ci4_aligner
                0x00000000070aa4e0                jrb_dl_ci4_sophie_interiorwall_pal_rgba16
                0x00000000070aa4f8                jrb_dl_ci4_sophie_interiorwall_pal_rgba16_aligner
                0x00000000070aa500                jrb_dl_ci4_sophie_interiorwall_ci4
                0x00000000070aad00                jrb_dl_ci4_sophie_interiorwall_ci4_aligner
                0x00000000070aad08                jrb_dl_KKIIDDZZ_DAT_1818__p00_pal_rgba16
                0x00000000070aade0                jrb_dl_KKIIDDZZ_DAT_1818__p00_pal_rgba16_aligner
                0x00000000070aade8                jrb_dl_KKIIDDZZ_DAT_1818__p00_ci8
                0x00000000070ab1e8                jrb_dl_KKIIDDZZ_DAT_1818__p00_ci8_aligner
                0x00000000070ab1f0                jrb_dl_ci4_anonmoose_Dirt1_pal_rgba16
                0x00000000070ab228                jrb_dl_ci4_anonmoose_Dirt1_pal_rgba16_aligner
                0x00000000070ab230                jrb_dl_ci4_anonmoose_Dirt1_ci8
                0x00000000070ab630                jrb_dl_ci4_anonmoose_Dirt1_ci8_aligner
                0x00000000070ab638                jrb_dl_YOSHIS_ISLAND_6467B7C8B140_all_ia8
                0x00000000070ac638                jrb_dl_YOSHIS_ISLAND_6467B7C8B140_all_ia8_aligner
                0x00000000070ac640                jrb_dl_KKIIDDZZ_DAT_2237__p00_pal_rgba16
                0x00000000070ac660                jrb_dl_KKIIDDZZ_DAT_2237__p00_pal_rgba16_aligner
                0x00000000070ac668                jrb_dl_KKIIDDZZ_DAT_2237__p00_ci4
                0x00000000070ace68                jrb_dl_KKIIDDZZ_DAT_2237__p00_ci4_aligner
                0x00000000070ace70                jrb_dl_KKIIDDZZ_DAT_2238__p00_pal_rgba16
                0x00000000070ace90                jrb_dl_KKIIDDZZ_DAT_2238__p00_pal_rgba16_aligner
                0x00000000070ace98                jrb_dl_KKIIDDZZ_DAT_2238__p00_ci4
                0x00000000070ad698                jrb_dl_KKIIDDZZ_DAT_2238__p00_ci4_aligner
                0x00000000070ad6a0                jrb_dl_KKIIDDZZ_DAT_684__p00_pal_rgba16
                0x00000000070ad6b8                jrb_dl_KKIIDDZZ_DAT_684__p00_pal_rgba16_aligner
                0x00000000070ad6c0                jrb_dl_KKIIDDZZ_DAT_684__p00_ci4
                0x00000000070adec0                jrb_dl_KKIIDDZZ_DAT_684__p00_ci4_aligner
                0x00000000070adec8                jrb_area_1_macro_objs
                0x00000000070adecc                jrb_area_1_collision
                0x00000000070db45c                jrb_movtex_sunken_ship_water
                0x00000000070db48c                jrb_seg7_area_2_macro_objs
                0x00000000070db498                jrb_seg7_area_2_collision
                0x00000000070dc548                jrb_seg7_dl_07010548
                0x00000000070dcb98                jrb_seg7_dl_0700FE48
                0x00000000070dd978                jrb_seg7_dl_0700EF00
                0x00000000070df340                jrb_movtex_initial_mist
                0x00000000070df370                jrb_movtex_water
                0x00000000070df3c8                jrb_seg7_trajectory_unagi_2
                0x00000000070df414                jrb_seg7_trajectory_unagi_1
                0x00000000070df448                jrb_seg7_collision_0700D1DC
                0x00000000070df47c                jrb_seg7_collision_pillar_base
                0x00000000070df4c8                jrb_seg7_collision_in_sunken_ship_2
                0x00000000070df74c                jrb_seg7_collision_0700CEF0
                0x00000000070df7f4                jrb_seg7_collision_in_sunken_ship
                0x00000000070df8a0                jrb_seg7_collision_in_sunken_ship_3
                0x00000000070dfee8                jrb_seg7_collision_floating_box
                0x00000000070dff84                jrb_seg7_collision_floating_platform
                0x00000000070e0020                jrb_seg7_collision_rock_solid
                0x00000000070e0114                jrb_seg7_area_1_macro_objs
                0x00000000070e0384                jrb_seg7_area_1_collision
                0x00000000070e1c48                jrb_seg7_dl_0700AFB0
                0x00000000070e1d98                jrb_seg7_dl_0700AE48
                0x00000000070e1f28                jrb_seg7_dl_0700AC68
                0x00000000070e24e8                jrb_seg7_dl_0700A608
                0x00000000070e2ea0                jrb_seg7_dl_07009B30
                0x00000000070e2f80                jrb_seg7_dl_07009A58
                0x00000000070e3830                jrb_seg7_dl_070090B0
                0x00000000070e3910                jrb_seg7_dl_07008FD8
                0x00000000070e4678                jrb_seg7_dl_070080F8
                0x00000000070e4948                jrb_seg7_dl_07007DC8
                0x00000000070e4c40                jrb_seg7_dl_07007AC8
                0x00000000070e4f68                jrb_seg7_dl_07007718
                0x00000000070e5120                jrb_seg7_dl_07007570
                0x00000000070e5bb0                jrb_seg7_dl_070069B0
                0x00000000070e6b08                jrb_seg7_dl_070058C8
                0x00000000070e75f0                jrb_seg7_dl_07004C78
                0x00000000070e78c8                jrb_seg7_dl_07004940
                0x00000000070e8f68                jrb_seg7_dl_07002FD0

.data1
 *(.data1)

.got.plt
 *(.got.plt)
                0x00000000070ebf40                . = .
                0x00000000070ebf40                . = .
                0x00000000070f3f30                _gp = (ALIGN (0x10) + 0x7ff0)

.got
 *(.got)

.sdata
 *(.sdata .sdata.* .gnu.linkonce.s.*)

.lit8
 *(.lit8)

.lit4
 *(.lit4)
                0x00000000070ebf40                _edata = .
                [!provide]                        PROVIDE (edata = .)
                0x00000000070ebf40                . = .
                0x00000000070ebf40                __bss_start = .
                0x00000000070ebf40                _fbss = .

.sbss
 *(.dynsbss)
 *(.sbss .sbss.* .gnu.linkonce.sb.*)
 *(.scommon)

.bss            0x00000000070ebf40        0x0 load address 0x00000000070ebf58
 *(.dynbss)
 *(.bss .bss.* .gnu.linkonce.b.*)
 .bss           0x00000000070ebf40        0x0 build/us_n64/levels/jrb/leveldata.o
 *(COMMON)
                0x00000000070ebf40                . = ALIGN ((. != 0x0)?0x4:0x1)
                0x00000000070ebf40                . = ALIGN (0x4)
                0x00000000070ebf40                . = SEGMENT_START ("ldata-segment", .)
                0x00000000070ebf40                . = ALIGN (0x4)
                0x00000000070ebf40                _end = .
                [!provide]                        PROVIDE (end = .)
                0x00000000070ebf40                . = DATA_SEGMENT_END (.)

.stab
 *(.stab)

.stabstr
 *(.stabstr)

.stab.excl
 *(.stab.excl)

.stab.exclstr
 *(.stab.exclstr)

.stab.index
 *(.stab.index)

.stab.indexstr
 *(.stab.indexstr)

.comment        0x0000000000000000       0x12
 *(.comment)
 .comment       0x0000000000000000       0x12 build/us_n64/levels/jrb/leveldata.o
                                         0x13 (size before relaxing)

.pdr            0x0000000000000000        0x0
 .pdr           0x0000000000000000        0x0 build/us_n64/levels/jrb/leveldata.o

.debug
 *(.debug)

.line
 *(.line)

.debug_srcinfo
 *(.debug_srcinfo)

.debug_sfnames
 *(.debug_sfnames)

.debug_aranges
 *(.debug_aranges)

.debug_pubnames
 *(.debug_pubnames)

.debug_info
 *(.debug_info .gnu.linkonce.wi.*)

.debug_abbrev
 *(.debug_abbrev)

.debug_line
 *(.debug_line .debug_line.* .debug_line_end)

.debug_frame
 *(.debug_frame)

.debug_str
 *(.debug_str)

.debug_loc
 *(.debug_loc)

.debug_macinfo
 *(.debug_macinfo)

.debug_weaknames
 *(.debug_weaknames)

.debug_funcnames
 *(.debug_funcnames)

.debug_typenames
 *(.debug_typenames)

.debug_varnames
 *(.debug_varnames)

.debug_pubtypes
 *(.debug_pubtypes)

.debug_ranges
 *(.debug_ranges)

.debug_macro
 *(.debug_macro)

.debug_addr
 *(.debug_addr)

.gnu.attributes
                0x0000000000000000       0x10
 *(.gnu.attributes)
 .gnu.attributes
                0x0000000000000000       0x10 build/us_n64/levels/jrb/leveldata.o

.gptab.sdata
 *(.gptab.data)
 *(.gptab.sdata)

.gptab.sbss
 *(.gptab.bss)
 *(.gptab.sbss)

.mdebug.abi32   0x0000000000000000        0x0
 *(.mdebug.abi32)
 .mdebug.abi32  0x0000000000000000        0x0 build/us_n64/levels/jrb/leveldata.o

.mdebug.abiN32
 *(.mdebug.abiN32)

.mdebug.abi64
 *(.mdebug.abi64)

.mdebug.abiO64
 *(.mdebug.abiO64)

.mdebug.eabi32
 *(.mdebug.eabi32)

.mdebug.eabi64
 *(.mdebug.eabi64)

.gcc_compiled_long32
 *(.gcc_compiled_long32)

.gcc_compiled_long64
 *(.gcc_compiled_long64)

/DISCARD/
 *(.note.GNU-stack)
 *(.gnu_debuglink)
 *(.gnu.lto_*)
OUTPUT(build/us_n64/levels/jrb/leveldata.elf elf32-bigmips)
