
Memory Configuration

Name             Origin             Length             Attributes
*default*        0x0000000000000000 0xffffffffffffffff

Linker script and memory map

Address of section .text set to 0x7000000
LOAD build/us_n64/bin/water.elf
LOAD build/us_n64/levels/jrb/leveldata.o
                [!provide]                        PROVIDE (__executable_start = SEGMENT_START ("text-segment", 0x400000))
                0x0000000000400000                . = SEGMENT_START ("text-segment", 0x400000)

.interp
 *(.interp)

.MIPS.abiflags  0x0000000000400000       0x18
 *(.MIPS.abiflags)
 .MIPS.abiflags
                0x0000000000400000       0x18 build/us_n64/levels/jrb/leveldata.o

.reginfo        0x0000000000400018       0x18
 *(.reginfo)
 .reginfo       0x0000000000400018       0x18 build/us_n64/levels/jrb/leveldata.o

.note.gnu.build-id
 *(.note.gnu.build-id)

.dynamic
 *(.dynamic)

.hash
 *(.hash)

.gnu.hash
 *(.gnu.hash)

.dynsym
 *(.dynsym)

.dynstr
 *(.dynstr)

.gnu.version
 *(.gnu.version)

.gnu.version_d
 *(.gnu.version_d)

.gnu.version_r
 *(.gnu.version_r)

.rel.dyn        0x0000000000400018        0x0 load address 0x0000000000400030
 *(.rel.init)
 *(.rel.text .rel.text.* .rel.gnu.linkonce.t.*)
 *(.rel.fini)
 *(.rel.rodata .rel.rodata.* .rel.gnu.linkonce.r.*)
 *(.rel.data.rel.ro .rel.data.rel.ro.* .rel.gnu.linkonce.d.rel.ro.*)
 *(.rel.data .rel.data.* .rel.gnu.linkonce.d.*)
 *(.rel.tdata .rel.tdata.* .rel.gnu.linkonce.td.*)
 *(.rel.tbss .rel.tbss.* .rel.gnu.linkonce.tb.*)
 *(.rel.ctors)
 *(.rel.dtors)
 *(.rel.got)
 *(.rel.dyn)
 .rel.dyn       0x0000000000400018        0x0 build/us_n64/levels/jrb/leveldata.o
 *(.rel.sdata .rel.sdata.* .rel.gnu.linkonce.s.*)
 *(.rel.sbss .rel.sbss.* .rel.gnu.linkonce.sb.*)
 *(.rel.sdata2 .rel.sdata2.* .rel.gnu.linkonce.s2.*)
 *(.rel.sbss2 .rel.sbss2.* .rel.gnu.linkonce.sb2.*)
 *(.rel.bss .rel.bss.* .rel.gnu.linkonce.b.*)
                [!provide]                        PROVIDE (__rel_iplt_start = .)
 *(.rel.iplt)
                [!provide]                        PROVIDE (__rel_iplt_end = .)

.rela.dyn       0x0000000000400018        0x0
 *(.rela.init)
 *(.rela.text .rela.text.* .rela.gnu.linkonce.t.*)
 *(.rela.fini)
 *(.rela.rodata .rela.rodata.* .rela.gnu.linkonce.r.*)
 *(.rela.data .rela.data.* .rela.gnu.linkonce.d.*)
 *(.rela.tdata .rela.tdata.* .rela.gnu.linkonce.td.*)
 *(.rela.tbss .rela.tbss.* .rela.gnu.linkonce.tb.*)
 *(.rela.ctors)
 *(.rela.dtors)
 *(.rela.got)
 *(.rela.sdata .rela.sdata.* .rela.gnu.linkonce.s.*)
 *(.rela.sbss .rela.sbss.* .rela.gnu.linkonce.sb.*)
 *(.rela.sdata2 .rela.sdata2.* .rela.gnu.linkonce.s2.*)
 *(.rela.sbss2 .rela.sbss2.* .rela.gnu.linkonce.sb2.*)
 *(.rela.bss .rela.bss.* .rela.gnu.linkonce.b.*)
                [!provide]                        PROVIDE (__rela_iplt_start = .)
 *(.rela.iplt)
                [!provide]                        PROVIDE (__rela_iplt_end = .)

.rel.plt
 *(.rel.plt)

.rela.plt
 *(.rela.plt)

.init
 *(SORT_NONE(.init))

.plt
 *(.plt)

.iplt
 *(.iplt)

.text           0x0000000007000000        0x0 load address 0x0000000007000018
                0x0000000007000000                _ftext = .
 *(.text.unlikely .text.*_unlikely .text.unlikely.*)
 *(.text.exit .text.exit.*)
 *(.text.startup .text.startup.*)
 *(.text.hot .text.hot.*)
 *(.text .stub .text.* .gnu.linkonce.t.*)
 .text          0x0000000007000000        0x0 build/us_n64/levels/jrb/leveldata.o
 *(.gnu.warning)
 *(.mips16.fn.*)
 *(.mips16.call.*)

.fini
 *(SORT_NONE(.fini))
                [!provide]                        PROVIDE (__etext = .)
                [!provide]                        PROVIDE (_etext = .)
                [!provide]                        PROVIDE (etext = .)

.rodata
 *(.rodata .rodata.* .gnu.linkonce.r.*)

.rodata1
 *(.rodata1)

.sdata2
 *(.sdata2 .sdata2.* .gnu.linkonce.s2.*)

.sbss2
 *(.sbss2 .sbss2.* .gnu.linkonce.sb2.*)

.eh_frame_hdr
 *(.eh_frame_hdr)
 *(.eh_frame_entry .eh_frame_entry.*)

.eh_frame
 *(.eh_frame)
 *(.eh_frame.*)

.gcc_except_table
 *(.gcc_except_table .gcc_except_table.*)

.gnu_extab
 *(.gnu_extab*)

.exception_ranges
 *(.exception_ranges .exception_ranges*)
                0x0000000007000000                . = DATA_SEGMENT_ALIGN (CONSTANT (MAXPAGESIZE), CONSTANT (COMMONPAGESIZE))

.eh_frame
 *(.eh_frame)
 *(.eh_frame.*)

.gnu_extab
 *(.gnu_extab)

.gcc_except_table
 *(.gcc_except_table .gcc_except_table.*)

.exception_ranges
 *(.exception_ranges .exception_ranges*)

.tdata
 *(.tdata .tdata.* .gnu.linkonce.td.*)

.tbss
 *(.tbss .tbss.* .gnu.linkonce.tb.*)
 *(.tcommon)

.preinit_array  0x0000000007000000        0x0
                [!provide]                        PROVIDE (__preinit_array_start = .)
 *(.preinit_array)
                [!provide]                        PROVIDE (__preinit_array_end = .)

.init_array     0x0000000007000000        0x0
                [!provide]                        PROVIDE (__init_array_start = .)
 *(SORT_BY_INIT_PRIORITY(.init_array.*) SORT_BY_INIT_PRIORITY(.ctors.*))
 *(.init_array EXCLUDE_FILE(*crtend?.o *crtend.o *crtbegin?.o *crtbegin.o) .ctors)
                [!provide]                        PROVIDE (__init_array_end = .)

.fini_array     0x0000000007000000        0x0
                [!provide]                        PROVIDE (__fini_array_start = .)
 *(SORT_BY_INIT_PRIORITY(.fini_array.*) SORT_BY_INIT_PRIORITY(.dtors.*))
 *(.fini_array EXCLUDE_FILE(*crtend?.o *crtend.o *crtbegin?.o *crtbegin.o) .dtors)
                [!provide]                        PROVIDE (__fini_array_end = .)

.ctors
 *crtbegin.o(.ctors)
 *crtbegin?.o(.ctors)
 *(EXCLUDE_FILE(*crtend?.o *crtend.o) .ctors)
 *(SORT_BY_NAME(.ctors.*))
 *(.ctors)

.dtors
 *crtbegin.o(.dtors)
 *crtbegin?.o(.dtors)
 *(EXCLUDE_FILE(*crtend?.o *crtend.o) .dtors)
 *(SORT_BY_NAME(.dtors.*))
 *(.dtors)

.jcr
 *(.jcr)

.data.rel.ro
 *(.data.rel.ro.local* .gnu.linkonce.d.rel.ro.local.*)
 *(.data.rel.ro .data.rel.ro.* .gnu.linkonce.d.rel.ro.*)
                0x0000000007000000                . = DATA_SEGMENT_RELRO_END (., 0x0)

.data           0x0000000007000000    0xe72c8 load address 0x0000000007000018
                0x0000000007000000                _fdata = .
 *(.data .data.* .gnu.linkonce.d.*)
 .data          0x0000000007000000    0xe72c8 build/us_n64/levels/jrb/leveldata.o
                0x0000000007000000                jrb_dl_final_revert_mesh_layer_5
                0x0000000007000040                jrb_dl_final_revert_mesh_layer_4
                0x0000000007000080                jrb_dl_final_revert_mesh_layer_1
                0x00000000070000c0                jrb_dl_wind_platform_002_mesh_layer_4
                0x0000000007000100                jrb_dl_wind_platform_001_mesh_layer_4
                0x0000000007000140                jrb_dl_wind_platform_mesh_layer_4
                0x0000000007000180                jrb_dl_tree_mesh_layer_1
                0x00000000070001d8                jrb_dl_small_fan_001_mesh_layer_1
                0x0000000007000230                jrb_dl_SM_Fountain_02_mesh_layer_1
                0x00000000070002a0                jrb_dl_render_004_mesh_layer_1
                0x00000000070002e0                jrb_dl_render_003_mesh_layer_1
                0x0000000007000320                jrb_dl_render_002_mesh_layer_1
                0x0000000007000360                jrb_dl_render_001_mesh_layer_1
                0x00000000070003a0                jrb_dl_pillar_027_mesh_layer_1
                0x00000000070003e0                jrb_dl_pillar_025_mesh_layer_1
                0x0000000007000420                jrb_dl_pillar_024_mesh_layer_4
                0x0000000007000460                jrb_dl_pillar_023_mesh_layer_4
                0x00000000070004a0                jrb_dl_pillar_022_mesh_layer_4
                0x00000000070004e0                jrb_dl_pillar_021_mesh_layer_4
                0x0000000007000520                jrb_dl_pillar_020_mesh_layer_4
                0x0000000007000560                jrb_dl_pillar_019_mesh_layer_1
                0x00000000070005a0                jrb_dl_pillar_018_mesh_layer_1
                0x00000000070005e0                jrb_dl_pillar_017_mesh_layer_4
                0x0000000007000620                jrb_dl_pillar_016_mesh_layer_4
                0x0000000007000660                jrb_dl_pillar_015_mesh_layer_4
                0x00000000070006a0                jrb_dl_pillar_014_mesh_layer_4
                0x00000000070006e0                jrb_dl_pillar_013_mesh_layer_4
                0x0000000007000720                jrb_dl_pillar_012_mesh_layer_4
                0x0000000007000760                jrb_dl_pillar_011_mesh_layer_4
                0x00000000070007a0                jrb_dl_pillar_010_mesh_layer_4
                0x00000000070007e0                jrb_dl_pillar_009_mesh_layer_4
                0x0000000007000820                jrb_dl_pillar_008_mesh_layer_4
                0x0000000007000860                jrb_dl_pillar_007_mesh_layer_4
                0x00000000070008a0                jrb_dl_pillar_006_mesh_layer_4
                0x00000000070008e0                jrb_dl_pillar_005_mesh_layer_4
                0x0000000007000920                jrb_dl_pillar_004_mesh_layer_4
                0x0000000007000960                jrb_dl_pillar_003_mesh_layer_4
                0x00000000070009a0                jrb_dl_pillar_002_mesh_layer_4
                0x00000000070009e0                jrb_dl_pillar_001_mesh_layer_1
                0x0000000007000a20                jrb_dl_pillar_mesh_layer_1
                0x0000000007000a60                jrb_dl_picnic_mesh_layer_1
                0x0000000007000aa0                jrb_dl_owl_crest_mesh_layer_4
                0x0000000007000ae0                jrb_dl_owl_crest_mesh_layer_1
                0x0000000007000b38                jrb_dl_Icosphere_015_mesh_layer_1
                0x0000000007000b78                jrb_dl_Icosphere_014_mesh_layer_1
                0x0000000007000bb8                jrb_dl_Icosphere_013_mesh_layer_1
                0x0000000007000c40                jrb_dl_Icosphere_003_mesh_layer_1
                0x0000000007000c80                jrb_dl_Icosphere_002_mesh_layer_1
                0x0000000007000cc0                jrb_dl_Icosphere_001_mesh_layer_1
                0x0000000007000d00                jrb_dl_Houses_SecondAge_3_Level1_004_mesh_layer_1
                0x0000000007000da0                jrb_dl_Houses_SecondAge_3_Level1_003_mesh_layer_1
                0x0000000007000e40                jrb_dl_Houses_SecondAge_3_Level1_002_mesh_layer_1
                0x0000000007000ee0                jrb_dl_Houses_SecondAge_3_Level1_001_mesh_layer_1
                0x0000000007000f80                jrb_dl_Houses_SecondAge_3_Level1_mesh_layer_1
                0x0000000007001020                jrb_dl_Houses_SecondAge_1_Level1_001_mesh_layer_1
                0x00000000070010c0                jrb_dl_flowers_mesh_layer_5
                0x0000000007001100                jrb_dl_flowers_mesh_layer_4
                0x0000000007001140                jrb_dl_Cylinder_001_mesh_layer_1
                0x00000000070011b0                jrb_dl_Cylinder_mesh_layer_1
                0x0000000007001220                jrb_dl_Cube_066_mesh_layer_1
                0x0000000007001260                jrb_dl_Cube_065_mesh_layer_1
                0x00000000070012a0                jrb_dl_Cube_064_mesh_layer_1
                0x00000000070012e0                jrb_dl_Cube_063_mesh_layer_1
                0x0000000007001320                jrb_dl_Cube_060_mesh_layer_1
                0x0000000007001360                jrb_dl_Cube_058_mesh_layer_1
                0x00000000070013a0                jrb_dl_Cube_057_mesh_layer_1
                0x00000000070013e0                jrb_dl_Cube_056_mesh_layer_1
                0x0000000007001420                jrb_dl_Cube_055_mesh_layer_1
                0x0000000007001460                jrb_dl_Cube_054_mesh_layer_1
                0x00000000070014a0                jrb_dl_Cube_053_mesh_layer_1
                0x00000000070014e0                jrb_dl_Cube_052_mesh_layer_1
                0x0000000007001520                jrb_dl_Cube_051_mesh_layer_1
                0x0000000007001560                jrb_dl_Cube_050_mesh_layer_1
                0x00000000070015a0                jrb_dl_Cube_049_mesh_layer_1
                0x00000000070015e0                jrb_dl_Cube_048_mesh_layer_1
                0x0000000007001620                jrb_dl_Cube_047_mesh_layer_1
                0x0000000007001660                jrb_dl_Cube_046_mesh_layer_1
                0x00000000070016a0                jrb_dl_Cube_045_mesh_layer_1
                0x00000000070016e0                jrb_dl_Cube_044_mesh_layer_1
                0x0000000007001720                jrb_dl_Cube_043_mesh_layer_1
                0x0000000007001760                jrb_dl_Cube_042_mesh_layer_1
                0x00000000070017a0                jrb_dl_Cube_041_mesh_layer_1
                0x00000000070017e0                jrb_dl_Cube_040_mesh_layer_1
                0x0000000007001820                jrb_dl_Cube_039_mesh_layer_5
                0x0000000007001860                jrb_dl_Cube_037_mesh_layer_1
                0x00000000070018a0                jrb_dl_Cube_036_mesh_layer_1
                0x00000000070018e0                jrb_dl_Cube_035_mesh_layer_1
                0x0000000007001950                jrb_dl_Cube_034_mesh_layer_1
                0x0000000007001990                jrb_dl_Cube_032_mesh_layer_1
                0x00000000070019d0                jrb_dl_Cube_031_mesh_layer_1
                0x0000000007001a10                jrb_dl_Cube_030_mesh_layer_1
                0x0000000007001a50                jrb_dl_Cube_029_mesh_layer_4
                0x0000000007001a90                jrb_dl_Cube_017_mesh_layer_1
                0x0000000007001ad0                jrb_dl_Cube_015_mesh_layer_1
                0x0000000007001b28                jrb_dl_Cube_014_mesh_layer_1
                0x0000000007001b80                jrb_dl_Cube_013_mesh_layer_1
                0x0000000007001bd8                jrb_dl_Cube_012_mesh_layer_1
                0x0000000007001c30                jrb_dl_Cube_011_mesh_layer_1
                0x0000000007001c70                jrb_dl_Cube_010_mesh_layer_1
                0x0000000007001cb0                jrb_dl_Cube_009_mesh_layer_1
                0x0000000007001cf0                jrb_dl_Cube_008_mesh_layer_1
                0x0000000007001d30                jrb_dl_Cube_007_mesh_layer_1
                0x0000000007001d70                jrb_dl_Cube_006_mesh_layer_1
                0x0000000007001db0                jrb_dl_Cube_005_mesh_layer_1
                0x0000000007001df0                jrb_dl_Cube_004_mesh_layer_1
                0x0000000007001e30                jrb_dl_Cube_003_mesh_layer_1
                0x0000000007001e70                jrb_dl_Cube_002_mesh_layer_1
                0x0000000007001eb0                jrb_dl_Cube_001_mesh_layer_1
                0x0000000007001f20                jrb_dl_Cube_mesh_layer_1
                0x0000000007001fc0                jrb_dl_bell_mesh_layer_1
                0x0000000007002000                jrb_dl_Beach_Chairs_and_Umbrella_mesh_layer_1
                0x0000000007002058                mat_revert_jrb_dl_tree_rings
                0x0000000007002078                mat_jrb_dl_tree_rings
                0x0000000007002108                mat_revert_jrb_dl_bark
                0x0000000007002128                mat_jrb_dl_bark
                0x00000000070021b8                mat_revert_jrb_dl_metal_2
                0x00000000070021d8                mat_jrb_dl_metal_2
                0x0000000007002268                mat_revert_jrb_dl_slab
                0x0000000007002288                mat_jrb_dl_slab
                0x0000000007002318                mat_revert_jrb_dl_grey_diamond
                0x0000000007002338                mat_jrb_dl_grey_diamond
                0x00000000070023c8                mat_revert_jrb_dl_picnic
                0x00000000070023e8                mat_jrb_dl_picnic
                0x0000000007002478                mat_revert_jrb_dl_white_bevel
                0x00000000070024a0                mat_jrb_dl_white_bevel
                0x0000000007002538                mat_revert_jrb_dl_metal_1
                0x0000000007002558                mat_jrb_dl_metal_1
                0x00000000070025e8                mat_revert_jrb_dl_gold
                0x0000000007002608                mat_jrb_dl_gold
                0x0000000007002698                mat_revert_jrb_dl_dirt2
                0x00000000070026b8                mat_jrb_dl_dirt2
                0x0000000007002748                mat_revert_jrb_dl_invisible
                0x0000000007002768                mat_jrb_dl_invisible
                0x00000000070027e8                mat_revert_jrb_dl_flowers
                0x0000000007002810                mat_jrb_dl_flowers
                0x00000000070028a8                mat_revert_jrb_dl_light
                0x00000000070028d0                mat_jrb_dl_light
                0x0000000007002970                mat_revert_jrb_dl_swirl
                0x0000000007002990                mat_jrb_dl_swirl
                0x0000000007002a20                mat_revert_jrb_dl_grate
                0x0000000007002a48                mat_jrb_dl_grate
                0x0000000007002ae0                mat_revert_jrb_dl_bricks_001
                0x0000000007002b00                mat_jrb_dl_bricks_001
                0x0000000007002b90                mat_revert_jrb_dl_glyph_stone
                0x0000000007002bb0                mat_jrb_dl_glyph_stone
                0x0000000007002c40                mat_revert_jrb_dl_stone_star
                0x0000000007002c60                mat_jrb_dl_stone_star
                0x0000000007002cf0                mat_revert_jrb_dl_dirt
                0x0000000007002d10                mat_jrb_dl_dirt
                0x0000000007002da0                mat_revert_jrb_dl_black
                0x0000000007002db8                mat_jrb_dl_black
                0x0000000007002e00                mat_revert_jrb_dl_rock
                0x0000000007002e20                mat_jrb_dl_rock
                0x0000000007002eb0                mat_revert_jrb_dl_grey_checker
                0x0000000007002ed0                mat_jrb_dl_grey_checker
                0x0000000007002f60                mat_revert_jrb_dl_stone_path
                0x0000000007002f80                mat_jrb_dl_stone_path
                0x0000000007003010                mat_revert_jrb_dl_grass
                0x0000000007003030                mat_jrb_dl_grass
                0x00000000070030c0                mat_revert_jrb_dl_dirt_with_grass
                0x00000000070030e0                mat_jrb_dl_dirt_with_grass
                0x0000000007003170                mat_revert_jrb_dl_shingles
                0x0000000007003190                mat_jrb_dl_shingles
                0x0000000007003220                mat_revert_jrb_dl_bricks
                0x0000000007003240                mat_jrb_dl_bricks
                0x00000000070032d0                mat_revert_jrb_dl_wood
                0x00000000070032f0                mat_jrb_dl_wood
                0x0000000007003380                mat_revert_jrb_dl_interior
                0x00000000070033a0                mat_jrb_dl_interior
                0x0000000007003430                mat_revert_jrb_dl_caution
                0x0000000007003450                mat_jrb_dl_caution
                0x00000000070034e0                mat_revert_jrb_dl_hay
                0x0000000007003500                mat_jrb_dl_hay
                0x0000000007003590                mat_revert_jrb_dl_wood2
                0x00000000070035b0                mat_jrb_dl_wood2
                0x0000000007003640                jrb_dl_wind_platform_002_mesh_layer_4_tri_0
                0x0000000007003658                jrb_dl_wind_platform_002_mesh_layer_4_vtx_0
                0x0000000007003698                jrb_dl_wind_platform_002_mesh_layer_4_vtx_cull
                0x0000000007003718                jrb_dl_wind_platform_001_mesh_layer_4_tri_0
                0x0000000007003730                jrb_dl_wind_platform_001_mesh_layer_4_vtx_0
                0x0000000007003770                jrb_dl_wind_platform_001_mesh_layer_4_vtx_cull
                0x00000000070037f0                jrb_dl_wind_platform_mesh_layer_4_tri_0
                0x0000000007003808                jrb_dl_wind_platform_mesh_layer_4_vtx_0
                0x0000000007003848                jrb_dl_wind_platform_mesh_layer_4_vtx_cull
                0x00000000070038c8                jrb_dl_tree_mesh_layer_1_tri_1
                0x0000000007003930                jrb_dl_tree_mesh_layer_1_vtx_1
                0x0000000007003bb0                jrb_dl_tree_mesh_layer_1_tri_0
                0x0000000007003d90                jrb_dl_tree_mesh_layer_1_vtx_0
                0x0000000007004a10                jrb_dl_tree_mesh_layer_1_vtx_cull
                0x0000000007004a90                jrb_dl_small_fan_001_mesh_layer_1_tri_1
                0x0000000007004ad0                jrb_dl_small_fan_001_mesh_layer_1_vtx_1
                0x0000000007004c50                jrb_dl_small_fan_001_mesh_layer_1_tri_0
                0x0000000007004cc8                jrb_dl_small_fan_001_mesh_layer_1_vtx_0
                0x0000000007004fc8                jrb_dl_small_fan_001_mesh_layer_1_vtx_cull
                0x0000000007005048                jrb_dl_SM_Fountain_02_mesh_layer_1_tri_2
                0x0000000007005360                jrb_dl_SM_Fountain_02_mesh_layer_1_vtx_2
                0x00000000070068d0                jrb_dl_SM_Fountain_02_mesh_layer_1_tri_1
                0x0000000007006a08                jrb_dl_SM_Fountain_02_mesh_layer_1_vtx_1
                0x0000000007007408                jrb_dl_SM_Fountain_02_mesh_layer_1_tri_0
                0x0000000007008590                jrb_dl_SM_Fountain_02_mesh_layer_1_vtx_0
                0x00000000070100c0                jrb_dl_SM_Fountain_02_mesh_layer_1_vtx_cull
                0x0000000007010140                jrb_dl_render_004_mesh_layer_1_tri_0
                0x0000000007011a30                jrb_dl_render_004_mesh_layer_1_vtx_0
                0x0000000007021230                jrb_dl_render_004_mesh_layer_1_vtx_cull
                0x00000000070212b0                jrb_dl_render_003_mesh_layer_1_tri_0
                0x0000000007022ba0                jrb_dl_render_003_mesh_layer_1_vtx_0
                0x00000000070323a0                jrb_dl_render_003_mesh_layer_1_vtx_cull
                0x0000000007032420                jrb_dl_render_002_mesh_layer_1_tri_0
                0x0000000007033d10                jrb_dl_render_002_mesh_layer_1_vtx_0
                0x0000000007043510                jrb_dl_render_002_mesh_layer_1_vtx_cull
                0x0000000007043590                jrb_dl_render_001_mesh_layer_1_tri_0
                0x0000000007044e80                jrb_dl_render_001_mesh_layer_1_vtx_0
                0x0000000007054680                jrb_dl_render_001_mesh_layer_1_vtx_cull
                0x0000000007054700                jrb_dl_pillar_027_mesh_layer_1_tri_0
                0x0000000007054798                jrb_dl_pillar_027_mesh_layer_1_vtx_0
                0x0000000007054a98                jrb_dl_pillar_027_mesh_layer_1_vtx_cull
                0x0000000007054b18                jrb_dl_pillar_025_mesh_layer_1_tri_0
                0x0000000007054bb0                jrb_dl_pillar_025_mesh_layer_1_vtx_0
                0x0000000007054eb0                jrb_dl_pillar_025_mesh_layer_1_vtx_cull
                0x0000000007054f30                jrb_dl_pillar_024_mesh_layer_4_tri_0
                0x0000000007054f70                jrb_dl_pillar_024_mesh_layer_4_vtx_0
                0x00000000070550f0                jrb_dl_pillar_024_mesh_layer_4_vtx_cull
                0x0000000007055170                jrb_dl_pillar_023_mesh_layer_4_tri_0
                0x00000000070551b0                jrb_dl_pillar_023_mesh_layer_4_vtx_0
                0x0000000007055330                jrb_dl_pillar_023_mesh_layer_4_vtx_cull
                0x00000000070553b0                jrb_dl_pillar_022_mesh_layer_4_tri_0
                0x00000000070553f0                jrb_dl_pillar_022_mesh_layer_4_vtx_0
                0x0000000007055570                jrb_dl_pillar_022_mesh_layer_4_vtx_cull
                0x00000000070555f0                jrb_dl_pillar_021_mesh_layer_4_tri_0
                0x0000000007055630                jrb_dl_pillar_021_mesh_layer_4_vtx_0
                0x00000000070557b0                jrb_dl_pillar_021_mesh_layer_4_vtx_cull
                0x0000000007055830                jrb_dl_pillar_020_mesh_layer_4_tri_0
                0x0000000007055870                jrb_dl_pillar_020_mesh_layer_4_vtx_0
                0x00000000070559f0                jrb_dl_pillar_020_mesh_layer_4_vtx_cull
                0x0000000007055a70                jrb_dl_pillar_019_mesh_layer_1_tri_0
                0x0000000007055ab0                jrb_dl_pillar_019_mesh_layer_1_vtx_0
                0x0000000007055c30                jrb_dl_pillar_019_mesh_layer_1_vtx_cull
                0x0000000007055cb0                jrb_dl_pillar_018_mesh_layer_1_tri_0
                0x0000000007055cf0                jrb_dl_pillar_018_mesh_layer_1_vtx_0
                0x0000000007055e70                jrb_dl_pillar_018_mesh_layer_1_vtx_cull
                0x0000000007055ef0                jrb_dl_pillar_017_mesh_layer_4_tri_0
                0x0000000007055f30                jrb_dl_pillar_017_mesh_layer_4_vtx_0
                0x00000000070560b0                jrb_dl_pillar_017_mesh_layer_4_vtx_cull
                0x0000000007056130                jrb_dl_pillar_016_mesh_layer_4_tri_0
                0x0000000007056170                jrb_dl_pillar_016_mesh_layer_4_vtx_0
                0x00000000070562f0                jrb_dl_pillar_016_mesh_layer_4_vtx_cull
                0x0000000007056370                jrb_dl_pillar_015_mesh_layer_4_tri_0
                0x00000000070563b0                jrb_dl_pillar_015_mesh_layer_4_vtx_0
                0x0000000007056530                jrb_dl_pillar_015_mesh_layer_4_vtx_cull
                0x00000000070565b0                jrb_dl_pillar_014_mesh_layer_4_tri_0
                0x00000000070565f0                jrb_dl_pillar_014_mesh_layer_4_vtx_0
                0x0000000007056770                jrb_dl_pillar_014_mesh_layer_4_vtx_cull
                0x00000000070567f0                jrb_dl_pillar_013_mesh_layer_4_tri_0
                0x0000000007056830                jrb_dl_pillar_013_mesh_layer_4_vtx_0
                0x00000000070569b0                jrb_dl_pillar_013_mesh_layer_4_vtx_cull
                0x0000000007056a30                jrb_dl_pillar_012_mesh_layer_4_tri_0
                0x0000000007056a70                jrb_dl_pillar_012_mesh_layer_4_vtx_0
                0x0000000007056bf0                jrb_dl_pillar_012_mesh_layer_4_vtx_cull
                0x0000000007056c70                jrb_dl_pillar_011_mesh_layer_4_tri_0
                0x0000000007056cb0                jrb_dl_pillar_011_mesh_layer_4_vtx_0
                0x0000000007056e30                jrb_dl_pillar_011_mesh_layer_4_vtx_cull
                0x0000000007056eb0                jrb_dl_pillar_010_mesh_layer_4_tri_0
                0x0000000007056ef0                jrb_dl_pillar_010_mesh_layer_4_vtx_0
                0x0000000007057070                jrb_dl_pillar_010_mesh_layer_4_vtx_cull
                0x00000000070570f0                jrb_dl_pillar_009_mesh_layer_4_tri_0
                0x0000000007057130                jrb_dl_pillar_009_mesh_layer_4_vtx_0
                0x00000000070572b0                jrb_dl_pillar_009_mesh_layer_4_vtx_cull
                0x0000000007057330                jrb_dl_pillar_008_mesh_layer_4_tri_0
                0x0000000007057370                jrb_dl_pillar_008_mesh_layer_4_vtx_0
                0x00000000070574f0                jrb_dl_pillar_008_mesh_layer_4_vtx_cull
                0x0000000007057570                jrb_dl_pillar_007_mesh_layer_4_tri_0
                0x00000000070575b0                jrb_dl_pillar_007_mesh_layer_4_vtx_0
                0x0000000007057730                jrb_dl_pillar_007_mesh_layer_4_vtx_cull
                0x00000000070577b0                jrb_dl_pillar_006_mesh_layer_4_tri_0
                0x00000000070577f0                jrb_dl_pillar_006_mesh_layer_4_vtx_0
                0x0000000007057970                jrb_dl_pillar_006_mesh_layer_4_vtx_cull
                0x00000000070579f0                jrb_dl_pillar_005_mesh_layer_4_tri_0
                0x0000000007057a30                jrb_dl_pillar_005_mesh_layer_4_vtx_0
                0x0000000007057bb0                jrb_dl_pillar_005_mesh_layer_4_vtx_cull
                0x0000000007057c30                jrb_dl_pillar_004_mesh_layer_4_tri_0
                0x0000000007057c70                jrb_dl_pillar_004_mesh_layer_4_vtx_0
                0x0000000007057df0                jrb_dl_pillar_004_mesh_layer_4_vtx_cull
                0x0000000007057e70                jrb_dl_pillar_003_mesh_layer_4_tri_0
                0x0000000007057eb0                jrb_dl_pillar_003_mesh_layer_4_vtx_0
                0x0000000007058030                jrb_dl_pillar_003_mesh_layer_4_vtx_cull
                0x00000000070580b0                jrb_dl_pillar_002_mesh_layer_4_tri_0
                0x00000000070580f0                jrb_dl_pillar_002_mesh_layer_4_vtx_0
                0x0000000007058270                jrb_dl_pillar_002_mesh_layer_4_vtx_cull
                0x00000000070582f0                jrb_dl_pillar_001_mesh_layer_1_tri_0
                0x0000000007058330                jrb_dl_pillar_001_mesh_layer_1_vtx_0
                0x00000000070584b0                jrb_dl_pillar_001_mesh_layer_1_vtx_cull
                0x0000000007058530                jrb_dl_pillar_mesh_layer_1_tri_0
                0x00000000070585c8                jrb_dl_pillar_mesh_layer_1_vtx_0
                0x00000000070588c8                jrb_dl_pillar_mesh_layer_1_vtx_cull
                0x0000000007058948                jrb_dl_picnic_mesh_layer_1_tri_0
                0x0000000007058988                jrb_dl_picnic_mesh_layer_1_vtx_0
                0x0000000007058b08                jrb_dl_picnic_mesh_layer_1_vtx_cull
                0x0000000007058b88                jrb_dl_owl_crest_mesh_layer_4_tri_0
                0x0000000007058c68                jrb_dl_owl_crest_mesh_layer_4_vtx_0
                0x00000000070590c8                jrb_dl_owl_crest_mesh_layer_4_vtx_cull
                0x0000000007059148                jrb_dl_owl_crest_mesh_layer_1_tri_1
                0x0000000007059228                jrb_dl_owl_crest_mesh_layer_1_vtx_1
                0x0000000007059648                jrb_dl_owl_crest_mesh_layer_1_tri_0
                0x00000000070596f8                jrb_dl_owl_crest_mesh_layer_1_vtx_0
                0x0000000007059b78                jrb_dl_owl_crest_mesh_layer_1_vtx_cull
                0x0000000007059bf8                jrb_dl_Icosphere_015_mesh_layer_1_tri_0
                0x000000000705a200                jrb_dl_Icosphere_015_mesh_layer_1_vtx_0
                0x000000000705de00                jrb_dl_Icosphere_015_mesh_layer_1_vtx_cull
                0x000000000705de80                jrb_dl_Icosphere_014_mesh_layer_1_tri_0
                0x000000000705e488                jrb_dl_Icosphere_014_mesh_layer_1_vtx_0
                0x0000000007062088                jrb_dl_Icosphere_014_mesh_layer_1_vtx_cull
                0x0000000007062108                jrb_dl_Icosphere_013_mesh_layer_1_tri_3
                0x00000000070621c0                jrb_dl_Icosphere_013_mesh_layer_1_vtx_3
                0x0000000007062580                jrb_dl_Icosphere_013_mesh_layer_1_tri_2
                0x0000000007062608                jrb_dl_Icosphere_013_mesh_layer_1_vtx_2
                0x0000000007062898                jrb_dl_Icosphere_013_mesh_layer_1_tri_1
                0x0000000007062908                jrb_dl_Icosphere_013_mesh_layer_1_vtx_1
                0x0000000007062b68                jrb_dl_Icosphere_013_mesh_layer_1_tri_0
                0x0000000007062c88                jrb_dl_Icosphere_013_mesh_layer_1_vtx_0
                0x0000000007063258                jrb_dl_Icosphere_013_mesh_layer_1_vtx_cull
                0x00000000070632d8                jrb_dl_Icosphere_003_mesh_layer_1_tri_0
                0x00000000070638e0                jrb_dl_Icosphere_003_mesh_layer_1_vtx_0
                0x00000000070674e0                jrb_dl_Icosphere_003_mesh_layer_1_vtx_cull
                0x0000000007067560                jrb_dl_Icosphere_002_mesh_layer_1_tri_0
                0x0000000007067b68                jrb_dl_Icosphere_002_mesh_layer_1_vtx_0
                0x000000000706b768                jrb_dl_Icosphere_002_mesh_layer_1_vtx_cull
                0x000000000706b7e8                jrb_dl_Icosphere_001_mesh_layer_1_tri_0
                0x000000000706bdf0                jrb_dl_Icosphere_001_mesh_layer_1_vtx_0
                0x000000000706f9f0                jrb_dl_Icosphere_001_mesh_layer_1_vtx_cull
                0x000000000706fa70                jrb_dl_Houses_SecondAge_3_Level1_004_mesh_layer_1_tri_4
                0x000000000706fac0                jrb_dl_Houses_SecondAge_3_Level1_004_mesh_layer_1_vtx_4
                0x000000000706fc90                jrb_dl_Houses_SecondAge_3_Level1_004_mesh_layer_1_tri_3
                0x000000000706ff90                jrb_dl_Houses_SecondAge_3_Level1_004_mesh_layer_1_vtx_3
                0x0000000007071490                jrb_dl_Houses_SecondAge_3_Level1_004_mesh_layer_1_tri_2
                0x00000000070717d8                jrb_dl_Houses_SecondAge_3_Level1_004_mesh_layer_1_vtx_2
                0x0000000007072ed8                jrb_dl_Houses_SecondAge_3_Level1_004_mesh_layer_1_tri_1
                0x0000000007072ef8                jrb_dl_Houses_SecondAge_3_Level1_004_mesh_layer_1_vtx_1
                0x0000000007072f78                jrb_dl_Houses_SecondAge_3_Level1_004_mesh_layer_1_tri_0
                0x0000000007073010                jrb_dl_Houses_SecondAge_3_Level1_004_mesh_layer_1_vtx_0
                0x00000000070733f0                jrb_dl_Houses_SecondAge_3_Level1_004_mesh_layer_1_vtx_cull
                0x0000000007073470                jrb_dl_Houses_SecondAge_3_Level1_003_mesh_layer_1_tri_4
                0x00000000070734c0                jrb_dl_Houses_SecondAge_3_Level1_003_mesh_layer_1_vtx_4
                0x0000000007073690                jrb_dl_Houses_SecondAge_3_Level1_003_mesh_layer_1_tri_3
                0x0000000007073990                jrb_dl_Houses_SecondAge_3_Level1_003_mesh_layer_1_vtx_3
                0x0000000007074e90                jrb_dl_Houses_SecondAge_3_Level1_003_mesh_layer_1_tri_2
                0x00000000070751d8                jrb_dl_Houses_SecondAge_3_Level1_003_mesh_layer_1_vtx_2
                0x00000000070768d8                jrb_dl_Houses_SecondAge_3_Level1_003_mesh_layer_1_tri_1
                0x00000000070768f8                jrb_dl_Houses_SecondAge_3_Level1_003_mesh_layer_1_vtx_1
                0x0000000007076978                jrb_dl_Houses_SecondAge_3_Level1_003_mesh_layer_1_tri_0
                0x0000000007076a10                jrb_dl_Houses_SecondAge_3_Level1_003_mesh_layer_1_vtx_0
                0x0000000007076df0                jrb_dl_Houses_SecondAge_3_Level1_003_mesh_layer_1_vtx_cull
                0x0000000007076e70                jrb_dl_Houses_SecondAge_3_Level1_002_mesh_layer_1_tri_4
                0x0000000007076ec0                jrb_dl_Houses_SecondAge_3_Level1_002_mesh_layer_1_vtx_4
                0x0000000007077090                jrb_dl_Houses_SecondAge_3_Level1_002_mesh_layer_1_tri_3
                0x0000000007077390                jrb_dl_Houses_SecondAge_3_Level1_002_mesh_layer_1_vtx_3
                0x0000000007078890                jrb_dl_Houses_SecondAge_3_Level1_002_mesh_layer_1_tri_2
                0x0000000007078bd8                jrb_dl_Houses_SecondAge_3_Level1_002_mesh_layer_1_vtx_2
                0x000000000707a2d8                jrb_dl_Houses_SecondAge_3_Level1_002_mesh_layer_1_tri_1
                0x000000000707a2f8                jrb_dl_Houses_SecondAge_3_Level1_002_mesh_layer_1_vtx_1
                0x000000000707a378                jrb_dl_Houses_SecondAge_3_Level1_002_mesh_layer_1_tri_0
                0x000000000707a410                jrb_dl_Houses_SecondAge_3_Level1_002_mesh_layer_1_vtx_0
                0x000000000707a7f0                jrb_dl_Houses_SecondAge_3_Level1_002_mesh_layer_1_vtx_cull
                0x000000000707a870                jrb_dl_Houses_SecondAge_3_Level1_001_mesh_layer_1_tri_4
                0x000000000707a8c0                jrb_dl_Houses_SecondAge_3_Level1_001_mesh_layer_1_vtx_4
                0x000000000707aa90                jrb_dl_Houses_SecondAge_3_Level1_001_mesh_layer_1_tri_3
                0x000000000707ad90                jrb_dl_Houses_SecondAge_3_Level1_001_mesh_layer_1_vtx_3
                0x000000000707c290                jrb_dl_Houses_SecondAge_3_Level1_001_mesh_layer_1_tri_2
                0x000000000707c5d8                jrb_dl_Houses_SecondAge_3_Level1_001_mesh_layer_1_vtx_2
                0x000000000707dcd8                jrb_dl_Houses_SecondAge_3_Level1_001_mesh_layer_1_tri_1
                0x000000000707dcf8                jrb_dl_Houses_SecondAge_3_Level1_001_mesh_layer_1_vtx_1
                0x000000000707dd78                jrb_dl_Houses_SecondAge_3_Level1_001_mesh_layer_1_tri_0
                0x000000000707de10                jrb_dl_Houses_SecondAge_3_Level1_001_mesh_layer_1_vtx_0
                0x000000000707e1f0                jrb_dl_Houses_SecondAge_3_Level1_001_mesh_layer_1_vtx_cull
                0x000000000707e270                jrb_dl_Houses_SecondAge_3_Level1_mesh_layer_1_tri_4
                0x000000000707e2c0                jrb_dl_Houses_SecondAge_3_Level1_mesh_layer_1_vtx_4
                0x000000000707e490                jrb_dl_Houses_SecondAge_3_Level1_mesh_layer_1_tri_3
                0x000000000707e790                jrb_dl_Houses_SecondAge_3_Level1_mesh_layer_1_vtx_3
                0x000000000707fc90                jrb_dl_Houses_SecondAge_3_Level1_mesh_layer_1_tri_2
                0x000000000707ffd8                jrb_dl_Houses_SecondAge_3_Level1_mesh_layer_1_vtx_2
                0x00000000070816d8                jrb_dl_Houses_SecondAge_3_Level1_mesh_layer_1_tri_1
                0x00000000070816f8                jrb_dl_Houses_SecondAge_3_Level1_mesh_layer_1_vtx_1
                0x0000000007081778                jrb_dl_Houses_SecondAge_3_Level1_mesh_layer_1_tri_0
                0x0000000007081810                jrb_dl_Houses_SecondAge_3_Level1_mesh_layer_1_vtx_0
                0x0000000007081bf0                jrb_dl_Houses_SecondAge_3_Level1_mesh_layer_1_vtx_cull
                0x0000000007081c70                jrb_dl_Houses_SecondAge_1_Level1_001_mesh_layer_1_tri_4
                0x0000000007081d30                jrb_dl_Houses_SecondAge_1_Level1_001_mesh_layer_1_vtx_4
                0x0000000007082230                jrb_dl_Houses_SecondAge_1_Level1_001_mesh_layer_1_tri_3
                0x0000000007082280                jrb_dl_Houses_SecondAge_1_Level1_001_mesh_layer_1_vtx_3
                0x0000000007082460                jrb_dl_Houses_SecondAge_1_Level1_001_mesh_layer_1_tri_2
                0x0000000007082bc8                jrb_dl_Houses_SecondAge_1_Level1_001_mesh_layer_1_vtx_2
                0x0000000007085fe8                jrb_dl_Houses_SecondAge_1_Level1_001_mesh_layer_1_tri_1
                0x0000000007086028                jrb_dl_Houses_SecondAge_1_Level1_001_mesh_layer_1_vtx_1
                0x0000000007086198                jrb_dl_Houses_SecondAge_1_Level1_001_mesh_layer_1_tri_0
                0x00000000070861b8                jrb_dl_Houses_SecondAge_1_Level1_001_mesh_layer_1_vtx_0
                0x0000000007086238                jrb_dl_Houses_SecondAge_1_Level1_001_mesh_layer_1_vtx_cull
                0x00000000070862b8                jrb_dl_flowers_mesh_layer_5_tri_0
                0x0000000007086350                jrb_dl_flowers_mesh_layer_5_vtx_0
                0x0000000007086650                jrb_dl_flowers_mesh_layer_5_vtx_cull
                0x00000000070866d0                jrb_dl_flowers_mesh_layer_4_tri_0
                0x0000000007086720                jrb_dl_flowers_mesh_layer_4_vtx_0
                0x0000000007086880                jrb_dl_flowers_mesh_layer_4_vtx_cull
                0x0000000007086900                jrb_dl_Cylinder_001_mesh_layer_1_tri_2
                0x0000000007086990                jrb_dl_Cylinder_001_mesh_layer_1_vtx_2
                0x0000000007086c30                jrb_dl_Cylinder_001_mesh_layer_1_tri_1
                0x0000000007086d68                jrb_dl_Cylinder_001_mesh_layer_1_vtx_1
                0x0000000007087598                jrb_dl_Cylinder_001_mesh_layer_1_tri_0
                0x0000000007087750                jrb_dl_Cylinder_001_mesh_layer_1_vtx_0
                0x0000000007087f00                jrb_dl_Cylinder_001_mesh_layer_1_vtx_cull
                0x0000000007087f80                jrb_dl_Cylinder_mesh_layer_1_tri_2
                0x0000000007087fa8                jrb_dl_Cylinder_mesh_layer_1_vtx_2
                0x0000000007088018                jrb_dl_Cylinder_mesh_layer_1_tri_1
                0x00000000070881e8                jrb_dl_Cylinder_mesh_layer_1_vtx_1
                0x0000000007088ca8                jrb_dl_Cylinder_mesh_layer_1_tri_0
                0x0000000007088d38                jrb_dl_Cylinder_mesh_layer_1_vtx_0
                0x0000000007088f58                jrb_dl_Cylinder_mesh_layer_1_vtx_cull
                0x0000000007088fd8                jrb_dl_Cube_066_mesh_layer_1_tri_0
                0x0000000007089018                jrb_dl_Cube_066_mesh_layer_1_vtx_0
                0x0000000007089198                jrb_dl_Cube_066_mesh_layer_1_vtx_cull
                0x0000000007089218                jrb_dl_Cube_065_mesh_layer_1_tri_0
                0x0000000007089258                jrb_dl_Cube_065_mesh_layer_1_vtx_0
                0x00000000070893d8                jrb_dl_Cube_065_mesh_layer_1_vtx_cull
                0x0000000007089458                jrb_dl_Cube_064_mesh_layer_1_tri_0
                0x0000000007089498                jrb_dl_Cube_064_mesh_layer_1_vtx_0
                0x0000000007089618                jrb_dl_Cube_064_mesh_layer_1_vtx_cull
                0x0000000007089698                jrb_dl_Cube_063_mesh_layer_1_tri_0
                0x00000000070896d8                jrb_dl_Cube_063_mesh_layer_1_vtx_0
                0x0000000007089858                jrb_dl_Cube_063_mesh_layer_1_vtx_cull
                0x00000000070898d8                jrb_dl_Cube_060_mesh_layer_1_tri_0
                0x0000000007089918                jrb_dl_Cube_060_mesh_layer_1_vtx_0
                0x0000000007089a98                jrb_dl_Cube_060_mesh_layer_1_vtx_cull
                0x0000000007089b18                jrb_dl_Cube_058_mesh_layer_1_tri_0
                0x0000000007089ce0                jrb_dl_Cube_058_mesh_layer_1_vtx_0
                0x000000000708a8a0                jrb_dl_Cube_058_mesh_layer_1_vtx_cull
                0x000000000708a920                jrb_dl_Cube_057_mesh_layer_1_tri_0
                0x000000000708a960                jrb_dl_Cube_057_mesh_layer_1_vtx_0
                0x000000000708aae0                jrb_dl_Cube_057_mesh_layer_1_vtx_cull
                0x000000000708ab60                jrb_dl_Cube_056_mesh_layer_1_tri_0
                0x000000000708aba0                jrb_dl_Cube_056_mesh_layer_1_vtx_0
                0x000000000708ad20                jrb_dl_Cube_056_mesh_layer_1_vtx_cull
                0x000000000708ada0                jrb_dl_Cube_055_mesh_layer_1_tri_0
                0x000000000708ade0                jrb_dl_Cube_055_mesh_layer_1_vtx_0
                0x000000000708af60                jrb_dl_Cube_055_mesh_layer_1_vtx_cull
                0x000000000708afe0                jrb_dl_Cube_054_mesh_layer_1_tri_0
                0x000000000708b020                jrb_dl_Cube_054_mesh_layer_1_vtx_0
                0x000000000708b1a0                jrb_dl_Cube_054_mesh_layer_1_vtx_cull
                0x000000000708b220                jrb_dl_Cube_053_mesh_layer_1_tri_0
                0x000000000708b260                jrb_dl_Cube_053_mesh_layer_1_vtx_0
                0x000000000708b3e0                jrb_dl_Cube_053_mesh_layer_1_vtx_cull
                0x000000000708b460                jrb_dl_Cube_052_mesh_layer_1_tri_0
                0x000000000708b4a0                jrb_dl_Cube_052_mesh_layer_1_vtx_0
                0x000000000708b620                jrb_dl_Cube_052_mesh_layer_1_vtx_cull
                0x000000000708b6a0                jrb_dl_Cube_051_mesh_layer_1_tri_0
                0x000000000708b6e0                jrb_dl_Cube_051_mesh_layer_1_vtx_0
                0x000000000708b860                jrb_dl_Cube_051_mesh_layer_1_vtx_cull
                0x000000000708b8e0                jrb_dl_Cube_050_mesh_layer_1_tri_0
                0x000000000708b920                jrb_dl_Cube_050_mesh_layer_1_vtx_0
                0x000000000708baa0                jrb_dl_Cube_050_mesh_layer_1_vtx_cull
                0x000000000708bb20                jrb_dl_Cube_049_mesh_layer_1_tri_0
                0x000000000708bb60                jrb_dl_Cube_049_mesh_layer_1_vtx_0
                0x000000000708bce0                jrb_dl_Cube_049_mesh_layer_1_vtx_cull
                0x000000000708bd60                jrb_dl_Cube_048_mesh_layer_1_tri_0
                0x000000000708bda0                jrb_dl_Cube_048_mesh_layer_1_vtx_0
                0x000000000708bf20                jrb_dl_Cube_048_mesh_layer_1_vtx_cull
                0x000000000708bfa0                jrb_dl_Cube_047_mesh_layer_1_tri_0
                0x000000000708bfe0                jrb_dl_Cube_047_mesh_layer_1_vtx_0
                0x000000000708c160                jrb_dl_Cube_047_mesh_layer_1_vtx_cull
                0x000000000708c1e0                jrb_dl_Cube_046_mesh_layer_1_tri_0
                0x000000000708c248                jrb_dl_Cube_046_mesh_layer_1_vtx_0
                0x000000000708c4b8                jrb_dl_Cube_046_mesh_layer_1_vtx_cull
                0x000000000708c538                jrb_dl_Cube_045_mesh_layer_1_tri_0
                0x000000000708c578                jrb_dl_Cube_045_mesh_layer_1_vtx_0
                0x000000000708c6f8                jrb_dl_Cube_045_mesh_layer_1_vtx_cull
                0x000000000708c778                jrb_dl_Cube_044_mesh_layer_1_tri_0
                0x000000000708c7b8                jrb_dl_Cube_044_mesh_layer_1_vtx_0
                0x000000000708c938                jrb_dl_Cube_044_mesh_layer_1_vtx_cull
                0x000000000708c9b8                jrb_dl_Cube_043_mesh_layer_1_tri_0
                0x000000000708c9f8                jrb_dl_Cube_043_mesh_layer_1_vtx_0
                0x000000000708cb78                jrb_dl_Cube_043_mesh_layer_1_vtx_cull
                0x000000000708cbf8                jrb_dl_Cube_042_mesh_layer_1_tri_0
                0x000000000708cc38                jrb_dl_Cube_042_mesh_layer_1_vtx_0
                0x000000000708cdb8                jrb_dl_Cube_042_mesh_layer_1_vtx_cull
                0x000000000708ce38                jrb_dl_Cube_041_mesh_layer_1_tri_0
                0x000000000708ce78                jrb_dl_Cube_041_mesh_layer_1_vtx_0
                0x000000000708cff8                jrb_dl_Cube_041_mesh_layer_1_vtx_cull
                0x000000000708d078                jrb_dl_Cube_040_mesh_layer_1_tri_0
                0x000000000708d0b8                jrb_dl_Cube_040_mesh_layer_1_vtx_0
                0x000000000708d238                jrb_dl_Cube_040_mesh_layer_1_vtx_cull
                0x000000000708d2b8                jrb_dl_Cube_039_mesh_layer_5_tri_0
                0x000000000708d2f8                jrb_dl_Cube_039_mesh_layer_5_vtx_0
                0x000000000708d478                jrb_dl_Cube_039_mesh_layer_5_vtx_cull
                0x000000000708d4f8                jrb_dl_Cube_037_mesh_layer_1_tri_0
                0x000000000708d560                jrb_dl_Cube_037_mesh_layer_1_vtx_0
                0x000000000708d7a0                jrb_dl_Cube_037_mesh_layer_1_vtx_cull
                0x000000000708d820                jrb_dl_Cube_036_mesh_layer_1_tri_0
                0x000000000708d888                jrb_dl_Cube_036_mesh_layer_1_vtx_0
                0x000000000708dac8                jrb_dl_Cube_036_mesh_layer_1_vtx_cull
                0x000000000708db48                jrb_dl_Cube_035_mesh_layer_1_tri_2
                0x000000000708db80                jrb_dl_Cube_035_mesh_layer_1_vtx_2
                0x000000000708dc90                jrb_dl_Cube_035_mesh_layer_1_tri_1
                0x000000000708dd30                jrb_dl_Cube_035_mesh_layer_1_vtx_1
                0x000000000708e040                jrb_dl_Cube_035_mesh_layer_1_tri_0
                0x000000000708e0a0                jrb_dl_Cube_035_mesh_layer_1_vtx_0
                0x000000000708e260                jrb_dl_Cube_035_mesh_layer_1_vtx_cull
                0x000000000708e2e0                jrb_dl_Cube_034_mesh_layer_1_tri_0
                0x000000000708e348                jrb_dl_Cube_034_mesh_layer_1_vtx_0
                0x000000000708e588                jrb_dl_Cube_034_mesh_layer_1_vtx_cull
                0x000000000708e608                jrb_dl_Cube_032_mesh_layer_1_tri_0
                0x000000000708e648                jrb_dl_Cube_032_mesh_layer_1_vtx_0
                0x000000000708e7c8                jrb_dl_Cube_032_mesh_layer_1_vtx_cull
                0x000000000708e848                jrb_dl_Cube_031_mesh_layer_1_tri_0
                0x000000000708e8b0                jrb_dl_Cube_031_mesh_layer_1_vtx_0
                0x000000000708eaf0                jrb_dl_Cube_031_mesh_layer_1_vtx_cull
                0x000000000708eb70                jrb_dl_Cube_030_mesh_layer_1_tri_0
                0x000000000708ec08                jrb_dl_Cube_030_mesh_layer_1_vtx_0
                0x000000000708ef08                jrb_dl_Cube_030_mesh_layer_1_vtx_cull
                0x000000000708ef88                jrb_dl_Cube_029_mesh_layer_4_tri_0
                0x000000000708f068                jrb_dl_Cube_029_mesh_layer_4_vtx_0
                0x000000000708f488                jrb_dl_Cube_029_mesh_layer_4_vtx_cull
                0x000000000708f508                jrb_dl_Cube_017_mesh_layer_1_tri_0
                0x000000000708f6d0                jrb_dl_Cube_017_mesh_layer_1_vtx_0
                0x0000000007090290                jrb_dl_Cube_017_mesh_layer_1_vtx_cull
                0x0000000007090310                jrb_dl_Cube_015_mesh_layer_1_tri_1
                0x0000000007090328                jrb_dl_Cube_015_mesh_layer_1_vtx_1
                0x0000000007090368                jrb_dl_Cube_015_mesh_layer_1_tri_0
                0x00000000070903c0                jrb_dl_Cube_015_mesh_layer_1_vtx_0
                0x0000000007090580                jrb_dl_Cube_015_mesh_layer_1_vtx_cull
                0x0000000007090600                jrb_dl_Cube_014_mesh_layer_1_tri_1
                0x0000000007090618                jrb_dl_Cube_014_mesh_layer_1_vtx_1
                0x0000000007090658                jrb_dl_Cube_014_mesh_layer_1_tri_0
                0x00000000070906b0                jrb_dl_Cube_014_mesh_layer_1_vtx_0
                0x0000000007090870                jrb_dl_Cube_014_mesh_layer_1_vtx_cull
                0x00000000070908f0                jrb_dl_Cube_013_mesh_layer_1_tri_1
                0x0000000007090908                jrb_dl_Cube_013_mesh_layer_1_vtx_1
                0x0000000007090948                jrb_dl_Cube_013_mesh_layer_1_tri_0
                0x00000000070909c8                jrb_dl_Cube_013_mesh_layer_1_vtx_0
                0x0000000007090c48                jrb_dl_Cube_013_mesh_layer_1_vtx_cull
                0x0000000007090cc8                jrb_dl_Cube_012_mesh_layer_1_tri_1
                0x0000000007090ce0                jrb_dl_Cube_012_mesh_layer_1_vtx_1
                0x0000000007090d20                jrb_dl_Cube_012_mesh_layer_1_tri_0
                0x0000000007090d78                jrb_dl_Cube_012_mesh_layer_1_vtx_0
                0x0000000007090f38                jrb_dl_Cube_012_mesh_layer_1_vtx_cull
                0x0000000007090fb8                jrb_dl_Cube_011_mesh_layer_1_tri_0
                0x0000000007091020                jrb_dl_Cube_011_mesh_layer_1_vtx_0
                0x00000000070912a0                jrb_dl_Cube_011_mesh_layer_1_vtx_cull
                0x0000000007091320                jrb_dl_Cube_010_mesh_layer_1_tri_0
                0x0000000007091360                jrb_dl_Cube_010_mesh_layer_1_vtx_0
                0x00000000070914e0                jrb_dl_Cube_010_mesh_layer_1_vtx_cull
                0x0000000007091560                jrb_dl_Cube_009_mesh_layer_1_tri_0
                0x00000000070915a0                jrb_dl_Cube_009_mesh_layer_1_vtx_0
                0x0000000007091720                jrb_dl_Cube_009_mesh_layer_1_vtx_cull
                0x00000000070917a0                jrb_dl_Cube_008_mesh_layer_1_tri_0
                0x0000000007091808                jrb_dl_Cube_008_mesh_layer_1_vtx_0
                0x0000000007091a88                jrb_dl_Cube_008_mesh_layer_1_vtx_cull
                0x0000000007091b08                jrb_dl_Cube_007_mesh_layer_1_tri_0
                0x0000000007091cd0                jrb_dl_Cube_007_mesh_layer_1_vtx_0
                0x0000000007092890                jrb_dl_Cube_007_mesh_layer_1_vtx_cull
                0x0000000007092910                jrb_dl_Cube_006_mesh_layer_1_tri_0
                0x0000000007092ad8                jrb_dl_Cube_006_mesh_layer_1_vtx_0
                0x0000000007093698                jrb_dl_Cube_006_mesh_layer_1_vtx_cull
                0x0000000007093718                jrb_dl_Cube_005_mesh_layer_1_tri_0
                0x00000000070938e0                jrb_dl_Cube_005_mesh_layer_1_vtx_0
                0x00000000070944a0                jrb_dl_Cube_005_mesh_layer_1_vtx_cull
                0x0000000007094520                jrb_dl_Cube_004_mesh_layer_1_tri_0
                0x0000000007094560                jrb_dl_Cube_004_mesh_layer_1_vtx_0
                0x00000000070946e0                jrb_dl_Cube_004_mesh_layer_1_vtx_cull
                0x0000000007094760                jrb_dl_Cube_003_mesh_layer_1_tri_0
                0x00000000070948f8                jrb_dl_Cube_003_mesh_layer_1_vtx_0
                0x0000000007095258                jrb_dl_Cube_003_mesh_layer_1_vtx_cull
                0x00000000070952d8                jrb_dl_Cube_002_mesh_layer_1_tri_0
                0x00000000070953c0                jrb_dl_Cube_002_mesh_layer_1_vtx_0
                0x0000000007095880                jrb_dl_Cube_002_mesh_layer_1_vtx_cull
                0x0000000007095900                jrb_dl_Cube_001_mesh_layer_1_tri_2
                0x0000000007095920                jrb_dl_Cube_001_mesh_layer_1_vtx_2
                0x0000000007095980                jrb_dl_Cube_001_mesh_layer_1_tri_1
                0x00000000070959a8                jrb_dl_Cube_001_mesh_layer_1_vtx_1
                0x0000000007095a48                jrb_dl_Cube_001_mesh_layer_1_tri_0
                0x0000000007095a90                jrb_dl_Cube_001_mesh_layer_1_vtx_0
                0x0000000007095c10                jrb_dl_Cube_001_mesh_layer_1_vtx_cull
                0x0000000007095c90                jrb_dl_Cube_mesh_layer_1_tri_4
                0x0000000007095ce0                jrb_dl_Cube_mesh_layer_1_vtx_4
                0x0000000007095e40                jrb_dl_Cube_mesh_layer_1_tri_3
                0x0000000007095e88                jrb_dl_Cube_mesh_layer_1_vtx_3
                0x0000000007096008                jrb_dl_Cube_mesh_layer_1_tri_2
                0x0000000007096028                jrb_dl_Cube_mesh_layer_1_vtx_2
                0x0000000007096078                jrb_dl_Cube_mesh_layer_1_tri_1
                0x0000000007096198                jrb_dl_Cube_mesh_layer_1_vtx_1
                0x00000000070968c8                jrb_dl_Cube_mesh_layer_1_tri_0
                0x0000000007096a10                jrb_dl_Cube_mesh_layer_1_vtx_0
                0x00000000070970a0                jrb_dl_Cube_mesh_layer_1_vtx_cull
                0x0000000007097120                jrb_dl_bell_mesh_layer_1_tri_0
                0x0000000007098078                jrb_dl_bell_mesh_layer_1_vtx_0
                0x000000000709e778                jrb_dl_bell_mesh_layer_1_vtx_cull
                0x000000000709e7f8                jrb_dl_Beach_Chairs_and_Umbrella_mesh_layer_1_tri_1
                0x000000000709e848                jrb_dl_Beach_Chairs_and_Umbrella_mesh_layer_1_vtx_1
                0x000000000709e958                jrb_dl_Beach_Chairs_and_Umbrella_mesh_layer_1_tri_0
                0x000000000709f370                jrb_dl_Beach_Chairs_and_Umbrella_mesh_layer_1_vtx_0
                0x00000000070a27d0                jrb_dl_Beach_Chairs_and_Umbrella_mesh_layer_1_vtx_cull
                0x00000000070a2850                jrb_dl_rings_pal_rgba16
                0x00000000070a2930                jrb_dl_rings_pal_rgba16_aligner
                0x00000000070a2938                jrb_dl_rings_ci8
                0x00000000070a2d38                jrb_dl_rings_ci8_aligner
                0x00000000070a2d40                jrb_dl_ci4_anonmoose_treebark1_pal_rgba16
                0x00000000070a2d60                jrb_dl_ci4_anonmoose_treebark1_pal_rgba16_aligner
                0x00000000070a2d68                jrb_dl_ci4_anonmoose_treebark1_ci4
                0x00000000070a3568                jrb_dl_ci4_anonmoose_treebark1_ci4_aligner
                0x00000000070a3570                jrb_dl_rgba16_anonmoose_GreenishSquare_pal_rgba16
                0x00000000070a3598                jrb_dl_rgba16_anonmoose_GreenishSquare_pal_rgba16_aligner
                0x00000000070a35a0                jrb_dl_rgba16_anonmoose_GreenishSquare_ci8
                0x00000000070a39a0                jrb_dl_rgba16_anonmoose_GreenishSquare_ci8_aligner
                0x00000000070a39a8                jrb_dl_slab_pal_rgba16
                0x00000000070a39e0                jrb_dl_slab_pal_rgba16_aligner
                0x00000000070a39e8                jrb_dl_slab_ci8
                0x00000000070a3de8                jrb_dl_slab_ci8_aligner
                0x00000000070a3df0                jrb_dl__1_pal_rgba16
                0x00000000070a3e58                jrb_dl__1_pal_rgba16_aligner
                0x00000000070a3e60                jrb_dl__1_ci8
                0x00000000070a4260                _::jrb_dl(char, int, _aligner)
                0x00000000070a4268                jrb_dl_ci4_sophie_tablecloth_pal_rgba16
                0x00000000070a4288                jrb_dl_ci4_sophie_tablecloth_pal_rgba16_aligner
                0x00000000070a4290                jrb_dl_ci4_sophie_tablecloth_ci4
                0x00000000070a4a90                jrb_dl_ci4_sophie_tablecloth_ci4_aligner
                0x00000000070a4a98                jrb_dl_ci4_anonmoose_whiteblock_pal_rgba16
                0x00000000070a4ab8                jrb_dl_ci4_anonmoose_whiteblock_pal_rgba16_aligner
                0x00000000070a4ac0                jrb_dl_ci4_anonmoose_whiteblock_ci4
                0x00000000070a52c0                jrb_dl_ci4_anonmoose_whiteblock_ci4_aligner
                0x00000000070a52c8                jrb_dl_ci4_sophie_metal2_pal_rgba16
                0x00000000070a52e8                jrb_dl_ci4_sophie_metal2_pal_rgba16_aligner
                0x00000000070a52f0                jrb_dl_ci4_sophie_metal2_ci4
                0x00000000070a5af0                jrb_dl_ci4_sophie_metal2_ci4_aligner
                0x00000000070a5af8                jrb_dl_rgba16_anonmoose_envmap_gold1_pal_rgba16
                0x00000000070a5c68                jrb_dl_rgba16_anonmoose_envmap_gold1_pal_rgba16_aligner
                0x00000000070a5c70                jrb_dl_rgba16_anonmoose_envmap_gold1_ci8
                0x00000000070a6070                jrb_dl_rgba16_anonmoose_envmap_gold1_ci8_aligner
                0x00000000070a6078                jrb_dl__0_pal_rgba16
                0x00000000070a61a8                jrb_dl__0_pal_rgba16_aligner
                0x00000000070a61b0                jrb_dl__0_ci8
                0x00000000070a65b0                jrb_dl__0_ci8_aligner
                0x00000000070a65b8                jrb_dl_invisible_ia8
                0x00000000070a69b8                jrb_dl_invisible_ia8_aligner
                0x00000000070a69c0                jrb_dl_flower_pal_rgba16
                0x00000000070a6a20                jrb_dl_flower_pal_rgba16_aligner
                0x00000000070a6a28                jrb_dl_flower_ci8
                0x00000000070a6e28                jrb_dl_flower_ci8_aligner
                0x00000000070a6e30                jrb_dl_light_pal_rgba16
                0x00000000070a6e38                jrb_dl_light_pal_rgba16_aligner
                0x00000000070a6e40                jrb_dl_light_ci4
                0x00000000070a7040                jrb_dl_light_ci4_aligner
                0x00000000070a7048                jrb_dl_rgba16_anonmoose_swirl1_pal_rgba16
                0x00000000070a7098                jrb_dl_rgba16_anonmoose_swirl1_pal_rgba16_aligner
                0x00000000070a70a0                jrb_dl_rgba16_anonmoose_swirl1_ci8
                0x00000000070a74a0                jrb_dl_rgba16_anonmoose_swirl1_ci8_aligner
                0x00000000070a74a8                jrb_dl_grate_pal_rgba16
                0x00000000070a7590                jrb_dl_grate_pal_rgba16_aligner
                0x00000000070a7598                jrb_dl_grate_ci8
                0x00000000070a7998                jrb_dl_grate_ci8_aligner
                0x00000000070a79a0                jrb_dl__7_pal_rgba16_copy
                0x00000000070a7a60                jrb_dl__7_pal_rgba16_copy_aligner
                0x00000000070a7a68                jrb_dl__7_ci8_copy
                0x00000000070a7e68                jrb_dl__7_ci8_copy_aligner
                0x00000000070a7e70                jrb_dl_KKIIDDZZ_DAT_964__p00_pal_rgba16_copy
                0x00000000070a7f50                jrb_dl_KKIIDDZZ_DAT_964__p00_pal_rgba16_copy_aligner
                0x00000000070a7f58                jrb_dl_KKIIDDZZ_DAT_964__p00_ci8_copy
                0x00000000070a8358                jrb_dl_KKIIDDZZ_DAT_964__p00_ci8_copy_aligner
                0x00000000070a8360                jrb_dl_KKIIDDZZ_DAT_964__p00_pal_rgba16
                0x00000000070a8440                jrb_dl_KKIIDDZZ_DAT_964__p00_pal_rgba16_aligner
                0x00000000070a8448                jrb_dl_KKIIDDZZ_DAT_964__p00_ci8
                0x00000000070a8848                jrb_dl_KKIIDDZZ_DAT_964__p00_ci8_aligner
                0x00000000070a8850                jrb_dl_ci4_anonmoose_Dirt1_pal_rgba16
                0x00000000070a8888                jrb_dl_ci4_anonmoose_Dirt1_pal_rgba16_aligner
                0x00000000070a8890                jrb_dl_ci4_anonmoose_Dirt1_ci8
                0x00000000070a8c90                jrb_dl_ci4_anonmoose_Dirt1_ci8_aligner
                0x00000000070a8c98                jrb_dl__25_pal_rgba16
                0x00000000070a8d08                jrb_dl__25_pal_rgba16_aligner
                0x00000000070a8d10                jrb_dl__25_ci8
                0x00000000070a9110                jrb_dl__25_ci8_aligner
                0x00000000070a9118                jrb_dl_ci4_anonmoose_Tiles1_pal_rgba16
                0x00000000070a9138                jrb_dl_ci4_anonmoose_Tiles1_pal_rgba16_aligner
                0x00000000070a9140                jrb_dl_ci4_anonmoose_Tiles1_ci4
                0x00000000070a9940                jrb_dl_ci4_anonmoose_Tiles1_ci4_aligner
                0x00000000070a9948                jrb_dl__3563512_pal_rgba16
                0x00000000070a9968                jrb_dl__3563512_pal_rgba16_aligner
                0x00000000070a9970                jrb_dl__3563512_ci4
                0x00000000070aa170                jrb_dl__3563512_ci4_aligner
                0x00000000070aa178                jrb_dl__12_pal_rgba16
                0x00000000070aa1e0                jrb_dl__12_pal_rgba16_aligner
                0x00000000070aa1e8                jrb_dl__12_ci8
                0x00000000070aa5e8                _ci8_aligner::jrb_dl(void)
                0x00000000070aa5f0                jrb_dl__6_pal_rgba16
                0x00000000070aa7d8                jrb_dl__6_pal_rgba16_aligner
                0x00000000070aa7e0                jrb_dl__6_ci8
                0x00000000070aabe0                jrb_dl__6_ci8_aligner
                0x00000000070aabe8                jrb_dl_ci4_sophie_rooftile_pal_rgba16
                0x00000000070aac08                jrb_dl_ci4_sophie_rooftile_pal_rgba16_aligner
                0x00000000070aac10                jrb_dl_ci4_sophie_rooftile_ci4
                0x00000000070ab410                jrb_dl_ci4_sophie_rooftile_ci4_aligner
                0x00000000070ab418                jrb_dl__7_pal_rgba16
                0x00000000070ab4d8                jrb_dl__7_pal_rgba16_aligner
                0x00000000070ab4e0                jrb_dl__7_ci8
                0x00000000070ab8e0                jrb_dl__7_ci8_aligner
                0x00000000070ab8e8                jrb_dl_ci4_sophie_broom_pal_rgba16
                0x00000000070ab908                jrb_dl_ci4_sophie_broom_pal_rgba16_aligner
                0x00000000070ab910                jrb_dl_ci4_sophie_broom_ci4
                0x00000000070ac110                jrb_dl_ci4_sophie_broom_ci4_aligner
                0x00000000070ac118                jrb_dl_ci4_sophie_interiorwall_pal_rgba16
                0x00000000070ac130                jrb_dl_ci4_sophie_interiorwall_pal_rgba16_aligner
                0x00000000070ac138                jrb_dl_ci4_sophie_interiorwall_ci4
                0x00000000070ac938                jrb_dl_ci4_sophie_interiorwall_ci4_aligner
                0x00000000070ac940                jrb_dl_rgba16_sophie_caution_pal_rgba16
                0x00000000070ac9b8                jrb_dl_rgba16_sophie_caution_pal_rgba16_aligner
                0x00000000070ac9c0                jrb_dl_rgba16_sophie_caution_ci8
                0x00000000070ad1c0                jrb_dl_rgba16_sophie_caution_ci8_aligner
                0x00000000070ad1c8                jrb_dl_ci4_sophie_hay_pal_rgba16
                0x00000000070ad1e8                jrb_dl_ci4_sophie_hay_pal_rgba16_aligner
                0x00000000070ad1f0                jrb_dl_ci4_sophie_hay_ci4
                0x00000000070ad9f0                jrb_dl_ci4_sophie_hay_ci4_aligner
                0x00000000070ad9f8                jrb_dl_ci4_sophie_wood2_pal_rgba16
                0x00000000070ada18                jrb_dl_ci4_sophie_wood2_pal_rgba16_aligner
                0x00000000070ada20                jrb_dl_ci4_sophie_wood2_ci4
                0x00000000070ae220                jrb_dl_ci4_sophie_wood2_ci4_aligner
                0x00000000070ae228                jrb_area_1_macro_objs
                0x00000000070ae22c                jrb_area_1_collision
                0x00000000070d67e0                jrb_movtex_sunken_ship_water
                0x00000000070d6810                jrb_seg7_area_2_macro_objs
                0x00000000070d681c                jrb_seg7_area_2_collision
                0x00000000070d78d0                jrb_seg7_dl_07010548
                0x00000000070d7f20                jrb_seg7_dl_0700FE48
                0x00000000070d8d00                jrb_seg7_dl_0700EF00
                0x00000000070da6c8                jrb_movtex_initial_mist
                0x00000000070da6f8                jrb_movtex_water
                0x00000000070da750                jrb_seg7_trajectory_unagi_2
                0x00000000070da79c                jrb_seg7_trajectory_unagi_1
                0x00000000070da7d0                jrb_seg7_collision_0700D1DC
                0x00000000070da804                jrb_seg7_collision_pillar_base
                0x00000000070da850                jrb_seg7_collision_in_sunken_ship_2
                0x00000000070daad4                jrb_seg7_collision_0700CEF0
                0x00000000070dab7c                jrb_seg7_collision_in_sunken_ship
                0x00000000070dac28                jrb_seg7_collision_in_sunken_ship_3
                0x00000000070db270                jrb_seg7_collision_floating_box
                0x00000000070db30c                jrb_seg7_collision_floating_platform
                0x00000000070db3a8                jrb_seg7_collision_rock_solid
                0x00000000070db49c                jrb_seg7_area_1_macro_objs
                0x00000000070db70c                jrb_seg7_area_1_collision
                0x00000000070dcfd0                jrb_seg7_dl_0700AFB0
                0x00000000070dd120                jrb_seg7_dl_0700AE48
                0x00000000070dd2b0                jrb_seg7_dl_0700AC68
                0x00000000070dd870                jrb_seg7_dl_0700A608
                0x00000000070de228                jrb_seg7_dl_07009B30
                0x00000000070de308                jrb_seg7_dl_07009A58
                0x00000000070debb8                jrb_seg7_dl_070090B0
                0x00000000070dec98                jrb_seg7_dl_07008FD8
                0x00000000070dfa00                jrb_seg7_dl_070080F8
                0x00000000070dfcd0                jrb_seg7_dl_07007DC8
                0x00000000070dffc8                jrb_seg7_dl_07007AC8
                0x00000000070e02f0                jrb_seg7_dl_07007718
                0x00000000070e04a8                jrb_seg7_dl_07007570
                0x00000000070e0f38                jrb_seg7_dl_070069B0
                0x00000000070e1e90                jrb_seg7_dl_070058C8
                0x00000000070e2978                jrb_seg7_dl_07004C78
                0x00000000070e2c50                jrb_seg7_dl_07004940
                0x00000000070e42f0                jrb_seg7_dl_07002FD0

.data1
 *(.data1)

.got.plt
 *(.got.plt)
                0x00000000070e72c8                . = .
                0x00000000070e72c8                . = .
                0x00000000070ef2c0                _gp = (ALIGN (0x10) + 0x7ff0)

.got
 *(.got)

.sdata
 *(.sdata .sdata.* .gnu.linkonce.s.*)

.lit8
 *(.lit8)

.lit4
 *(.lit4)
                0x00000000070e72c8                _edata = .
                [!provide]                        PROVIDE (edata = .)
                0x00000000070e72c8                . = .
                0x00000000070e72c8                __bss_start = .
                0x00000000070e72c8                _fbss = .

.sbss
 *(.dynsbss)
 *(.sbss .sbss.* .gnu.linkonce.sb.*)
 *(.scommon)

.bss            0x00000000070e72c8        0x0 load address 0x00000000070e72e0
 *(.dynbss)
 *(.bss .bss.* .gnu.linkonce.b.*)
 .bss           0x00000000070e72c8        0x0 build/us_n64/levels/jrb/leveldata.o
 *(COMMON)
                0x00000000070e72c8                . = ALIGN ((. != 0x0)?0x4:0x1)
                0x00000000070e72c8                . = ALIGN (0x4)
                0x00000000070e72c8                . = SEGMENT_START ("ldata-segment", .)
                0x00000000070e72c8                . = ALIGN (0x4)
                0x00000000070e72c8                _end = .
                [!provide]                        PROVIDE (end = .)
                0x00000000070e72c8                . = DATA_SEGMENT_END (.)

.stab
 *(.stab)

.stabstr
 *(.stabstr)

.stab.excl
 *(.stab.excl)

.stab.exclstr
 *(.stab.exclstr)

.stab.index
 *(.stab.index)

.stab.indexstr
 *(.stab.indexstr)

.comment        0x0000000000000000       0x12
 *(.comment)
 .comment       0x0000000000000000       0x12 build/us_n64/levels/jrb/leveldata.o
                                         0x13 (size before relaxing)

.pdr            0x0000000000000000        0x0
 .pdr           0x0000000000000000        0x0 build/us_n64/levels/jrb/leveldata.o

.debug
 *(.debug)

.line
 *(.line)

.debug_srcinfo
 *(.debug_srcinfo)

.debug_sfnames
 *(.debug_sfnames)

.debug_aranges
 *(.debug_aranges)

.debug_pubnames
 *(.debug_pubnames)

.debug_info
 *(.debug_info .gnu.linkonce.wi.*)

.debug_abbrev
 *(.debug_abbrev)

.debug_line
 *(.debug_line .debug_line.* .debug_line_end)

.debug_frame
 *(.debug_frame)

.debug_str
 *(.debug_str)

.debug_loc
 *(.debug_loc)

.debug_macinfo
 *(.debug_macinfo)

.debug_weaknames
 *(.debug_weaknames)

.debug_funcnames
 *(.debug_funcnames)

.debug_typenames
 *(.debug_typenames)

.debug_varnames
 *(.debug_varnames)

.debug_pubtypes
 *(.debug_pubtypes)

.debug_ranges
 *(.debug_ranges)

.debug_macro
 *(.debug_macro)

.debug_addr
 *(.debug_addr)

.gnu.attributes
                0x0000000000000000       0x10
 *(.gnu.attributes)
 .gnu.attributes
                0x0000000000000000       0x10 build/us_n64/levels/jrb/leveldata.o

.gptab.sdata
 *(.gptab.data)
 *(.gptab.sdata)

.gptab.sbss
 *(.gptab.bss)
 *(.gptab.sbss)

.mdebug.abi32   0x0000000000000000        0x0
 *(.mdebug.abi32)
 .mdebug.abi32  0x0000000000000000        0x0 build/us_n64/levels/jrb/leveldata.o

.mdebug.abiN32
 *(.mdebug.abiN32)

.mdebug.abi64
 *(.mdebug.abi64)

.mdebug.abiO64
 *(.mdebug.abiO64)

.mdebug.eabi32
 *(.mdebug.eabi32)

.mdebug.eabi64
 *(.mdebug.eabi64)

.gcc_compiled_long32
 *(.gcc_compiled_long32)

.gcc_compiled_long64
 *(.gcc_compiled_long64)

/DISCARD/
 *(.note.GNU-stack)
 *(.gnu_debuglink)
 *(.gnu.lto_*)
OUTPUT(build/us_n64/levels/jrb/leveldata.elf elf32-bigmips)
