
Memory Configuration

Name             Origin             Length             Attributes
*default*        0x0000000000000000 0xffffffffffffffff

Linker script and memory map

Address of section .text set to 0x7000000
LOAD build/us_n64/bin/water.elf
LOAD build/us_n64/levels/jrb/leveldata.o
                [!provide]                        PROVIDE (__executable_start = SEGMENT_START ("text-segment", 0x400000))
                0x0000000000400000                . = SEGMENT_START ("text-segment", 0x400000)

.interp
 *(.interp)

.MIPS.abiflags  0x0000000000400000       0x18
 *(.MIPS.abiflags)
 .MIPS.abiflags
                0x0000000000400000       0x18 build/us_n64/levels/jrb/leveldata.o

.reginfo        0x0000000000400018       0x18
 *(.reginfo)
 .reginfo       0x0000000000400018       0x18 build/us_n64/levels/jrb/leveldata.o

.note.gnu.build-id
 *(.note.gnu.build-id)

.dynamic
 *(.dynamic)

.hash
 *(.hash)

.gnu.hash
 *(.gnu.hash)

.dynsym
 *(.dynsym)

.dynstr
 *(.dynstr)

.gnu.version
 *(.gnu.version)

.gnu.version_d
 *(.gnu.version_d)

.gnu.version_r
 *(.gnu.version_r)

.rel.dyn        0x0000000000400018        0x0 load address 0x0000000000400030
 *(.rel.init)
 *(.rel.text .rel.text.* .rel.gnu.linkonce.t.*)
 *(.rel.fini)
 *(.rel.rodata .rel.rodata.* .rel.gnu.linkonce.r.*)
 *(.rel.data.rel.ro .rel.data.rel.ro.* .rel.gnu.linkonce.d.rel.ro.*)
 *(.rel.data .rel.data.* .rel.gnu.linkonce.d.*)
 *(.rel.tdata .rel.tdata.* .rel.gnu.linkonce.td.*)
 *(.rel.tbss .rel.tbss.* .rel.gnu.linkonce.tb.*)
 *(.rel.ctors)
 *(.rel.dtors)
 *(.rel.got)
 *(.rel.dyn)
 .rel.dyn       0x0000000000400018        0x0 build/us_n64/levels/jrb/leveldata.o
 *(.rel.sdata .rel.sdata.* .rel.gnu.linkonce.s.*)
 *(.rel.sbss .rel.sbss.* .rel.gnu.linkonce.sb.*)
 *(.rel.sdata2 .rel.sdata2.* .rel.gnu.linkonce.s2.*)
 *(.rel.sbss2 .rel.sbss2.* .rel.gnu.linkonce.sb2.*)
 *(.rel.bss .rel.bss.* .rel.gnu.linkonce.b.*)
                [!provide]                        PROVIDE (__rel_iplt_start = .)
 *(.rel.iplt)
                [!provide]                        PROVIDE (__rel_iplt_end = .)

.rela.dyn       0x0000000000400018        0x0
 *(.rela.init)
 *(.rela.text .rela.text.* .rela.gnu.linkonce.t.*)
 *(.rela.fini)
 *(.rela.rodata .rela.rodata.* .rela.gnu.linkonce.r.*)
 *(.rela.data .rela.data.* .rela.gnu.linkonce.d.*)
 *(.rela.tdata .rela.tdata.* .rela.gnu.linkonce.td.*)
 *(.rela.tbss .rela.tbss.* .rela.gnu.linkonce.tb.*)
 *(.rela.ctors)
 *(.rela.dtors)
 *(.rela.got)
 *(.rela.sdata .rela.sdata.* .rela.gnu.linkonce.s.*)
 *(.rela.sbss .rela.sbss.* .rela.gnu.linkonce.sb.*)
 *(.rela.sdata2 .rela.sdata2.* .rela.gnu.linkonce.s2.*)
 *(.rela.sbss2 .rela.sbss2.* .rela.gnu.linkonce.sb2.*)
 *(.rela.bss .rela.bss.* .rela.gnu.linkonce.b.*)
                [!provide]                        PROVIDE (__rela_iplt_start = .)
 *(.rela.iplt)
                [!provide]                        PROVIDE (__rela_iplt_end = .)

.rel.plt
 *(.rel.plt)

.rela.plt
 *(.rela.plt)

.init
 *(SORT_NONE(.init))

.plt
 *(.plt)

.iplt
 *(.iplt)

.text           0x0000000007000000        0x0 load address 0x0000000007000018
                0x0000000007000000                _ftext = .
 *(.text.unlikely .text.*_unlikely .text.unlikely.*)
 *(.text.exit .text.exit.*)
 *(.text.startup .text.startup.*)
 *(.text.hot .text.hot.*)
 *(.text .stub .text.* .gnu.linkonce.t.*)
 .text          0x0000000007000000        0x0 build/us_n64/levels/jrb/leveldata.o
 *(.gnu.warning)
 *(.mips16.fn.*)
 *(.mips16.call.*)

.fini
 *(SORT_NONE(.fini))
                [!provide]                        PROVIDE (__etext = .)
                [!provide]                        PROVIDE (_etext = .)
                [!provide]                        PROVIDE (etext = .)

.rodata
 *(.rodata .rodata.* .gnu.linkonce.r.*)

.rodata1
 *(.rodata1)

.sdata2
 *(.sdata2 .sdata2.* .gnu.linkonce.s2.*)

.sbss2
 *(.sbss2 .sbss2.* .gnu.linkonce.sb2.*)

.eh_frame_hdr
 *(.eh_frame_hdr)
 *(.eh_frame_entry .eh_frame_entry.*)

.eh_frame
 *(.eh_frame)
 *(.eh_frame.*)

.gcc_except_table
 *(.gcc_except_table .gcc_except_table.*)

.gnu_extab
 *(.gnu_extab*)

.exception_ranges
 *(.exception_ranges .exception_ranges*)
                0x0000000007000000                . = DATA_SEGMENT_ALIGN (CONSTANT (MAXPAGESIZE), CONSTANT (COMMONPAGESIZE))

.eh_frame
 *(.eh_frame)
 *(.eh_frame.*)

.gnu_extab
 *(.gnu_extab)

.gcc_except_table
 *(.gcc_except_table .gcc_except_table.*)

.exception_ranges
 *(.exception_ranges .exception_ranges*)

.tdata
 *(.tdata .tdata.* .gnu.linkonce.td.*)

.tbss
 *(.tbss .tbss.* .gnu.linkonce.tb.*)
 *(.tcommon)

.preinit_array  0x0000000007000000        0x0
                [!provide]                        PROVIDE (__preinit_array_start = .)
 *(.preinit_array)
                [!provide]                        PROVIDE (__preinit_array_end = .)

.init_array     0x0000000007000000        0x0
                [!provide]                        PROVIDE (__init_array_start = .)
 *(SORT_BY_INIT_PRIORITY(.init_array.*) SORT_BY_INIT_PRIORITY(.ctors.*))
 *(.init_array EXCLUDE_FILE(*crtend?.o *crtend.o *crtbegin?.o *crtbegin.o) .ctors)
                [!provide]                        PROVIDE (__init_array_end = .)

.fini_array     0x0000000007000000        0x0
                [!provide]                        PROVIDE (__fini_array_start = .)
 *(SORT_BY_INIT_PRIORITY(.fini_array.*) SORT_BY_INIT_PRIORITY(.dtors.*))
 *(.fini_array EXCLUDE_FILE(*crtend?.o *crtend.o *crtbegin?.o *crtbegin.o) .dtors)
                [!provide]                        PROVIDE (__fini_array_end = .)

.ctors
 *crtbegin.o(.ctors)
 *crtbegin?.o(.ctors)
 *(EXCLUDE_FILE(*crtend?.o *crtend.o) .ctors)
 *(SORT_BY_NAME(.ctors.*))
 *(.ctors)

.dtors
 *crtbegin.o(.dtors)
 *crtbegin?.o(.dtors)
 *(EXCLUDE_FILE(*crtend?.o *crtend.o) .dtors)
 *(SORT_BY_NAME(.dtors.*))
 *(.dtors)

.jcr
 *(.jcr)

.data.rel.ro
 *(.data.rel.ro.local* .gnu.linkonce.d.rel.ro.local.*)
 *(.data.rel.ro .data.rel.ro.* .gnu.linkonce.d.rel.ro.*)
                0x0000000007000000                . = DATA_SEGMENT_RELRO_END (., 0x0)

.data           0x0000000007000000    0xf8b58 load address 0x0000000007000018
                0x0000000007000000                _fdata = .
 *(.data .data.* .gnu.linkonce.d.*)
 .data          0x0000000007000000    0xf8b58 build/us_n64/levels/jrb/leveldata.o
                0x0000000007000000                jrb_dl_final_revert_mesh_layer_4
                0x0000000007000040                jrb_dl_final_revert_mesh_layer_5
                0x0000000007000080                jrb_dl_final_revert_mesh_layer_6
                0x00000000070000c0                jrb_dl_final_revert_mesh_layer_1
                0x0000000007000100                jrb_dl_wind_grate_010_mesh_layer_4
                0x0000000007000140                jrb_dl_wind_grate_009_mesh_layer_4
                0x0000000007000180                jrb_dl_wind_grate_008_mesh_layer_4
                0x00000000070001c0                jrb_dl_wind_grate_007_mesh_layer_4
                0x0000000007000200                jrb_dl_wind_grate_006_mesh_layer_4
                0x0000000007000240                jrb_dl_wind_grate_005_mesh_layer_4
                0x0000000007000280                jrb_dl_wind_grate_004_mesh_layer_4
                0x00000000070002c0                jrb_dl_wind_grate_003_mesh_layer_4
                0x0000000007000300                jrb_dl_wind_grate_002_mesh_layer_4
                0x0000000007000340                jrb_dl_wind_grate_001_mesh_layer_4
                0x0000000007000380                jrb_dl_waterfall_mesh_layer_5
                0x00000000070003d8                jrb_dl_wall_002_mesh_layer_1
                0x0000000007000418                jrb_dl_wall_001_mesh_layer_1
                0x0000000007000470                jrb_dl_wall_mesh_layer_1
                0x00000000070004b0                jrb_dl_small_fan_004_mesh_layer_1
                0x0000000007000508                jrb_dl_small_fan_003_mesh_layer_1
                0x0000000007000560                jrb_dl_small_fan_002_mesh_layer_1
                0x00000000070005b8                jrb_dl_small_fan_001_mesh_layer_1
                0x0000000007000610                jrb_dl_SM_Fountain_02_mesh_layer_1
                0x0000000007000680                jrb_dl_rock_016_mesh_layer_1
                0x00000000070006f0                jrb_dl_rock_015_mesh_layer_1
                0x0000000007000760                jrb_dl_rock_014_mesh_layer_1
                0x00000000070007d0                jrb_dl_rock_013_mesh_layer_1
                0x0000000007000840                jrb_dl_rock_012_mesh_layer_1
                0x00000000070008b0                jrb_dl_rock_011_mesh_layer_1
                0x00000000070008f0                jrb_dl_rock_010_mesh_layer_1
                0x0000000007000930                jrb_dl_rock_009_mesh_layer_1
                0x0000000007000970                jrb_dl_rock_008_mesh_layer_1
                0x00000000070009e0                jrb_dl_rock_007_mesh_layer_1
                0x0000000007000a50                jrb_dl_rock_006_mesh_layer_1
                0x0000000007000ac0                jrb_dl_rock_005_mesh_layer_1
                0x0000000007000b00                jrb_dl_rock_004_mesh_layer_1
                0x0000000007000b40                jrb_dl_rock_003_mesh_layer_1
                0x0000000007000b80                jrb_dl_rock_002_mesh_layer_1
                0x0000000007000bc0                jrb_dl_rock_001_mesh_layer_1
                0x0000000007000c00                jrb_dl_rock_mesh_layer_1
                0x0000000007000c40                jrb_dl_render_048_mesh_layer_1
                0x0000000007000c98                jrb_dl_Plane_mesh_layer_6
                0x0000000007000cd8                jrb_dl_pillar_030_mesh_layer_1
                0x0000000007000d18                jrb_dl_pillar_029_mesh_layer_1
                0x0000000007000d58                jrb_dl_pillar_028_mesh_layer_1
                0x0000000007000d98                jrb_dl_pillar_027_mesh_layer_1
                0x0000000007000dd8                jrb_dl_pillar_026_mesh_layer_1
                0x0000000007000e18                jrb_dl_pillar_025_mesh_layer_1
                0x0000000007000e58                jrb_dl_pillar_024_mesh_layer_1
                0x0000000007000e98                jrb_dl_pillar_019_mesh_layer_1
                0x0000000007000ed8                jrb_dl_pillar_014_mesh_layer_1
                0x0000000007000f18                jrb_dl_pillar_013_mesh_layer_1
                0x0000000007000f58                jrb_dl_pillar_012_mesh_layer_1
                0x0000000007000f98                jrb_dl_pillar_011_mesh_layer_1
                0x0000000007000fd8                jrb_dl_pillar_010_mesh_layer_1
                0x0000000007001018                jrb_dl_pillar_009_mesh_layer_1
                0x0000000007001058                jrb_dl_pillar_008_mesh_layer_1
                0x0000000007001098                jrb_dl_pillar_007_mesh_layer_1
                0x00000000070010d8                jrb_dl_pillar_006_mesh_layer_1
                0x0000000007001118                jrb_dl_pillar_005_mesh_layer_1
                0x0000000007001158                jrb_dl_pillar_004_mesh_layer_1
                0x0000000007001198                jrb_dl_pillar_003_mesh_layer_1
                0x00000000070011d8                jrb_dl_pillar_002_mesh_layer_1
                0x0000000007001218                jrb_dl_pillar_001_mesh_layer_1
                0x0000000007001258                jrb_dl_pillar_mesh_layer_1
                0x00000000070012c8                jrb_dl_path_002_mesh_layer_6
                0x0000000007001308                jrb_dl_path_001_mesh_layer_6
                0x0000000007001348                jrb_dl_path_mesh_layer_6
                0x0000000007001388                jrb_dl_mossy_stone_019_mesh_layer_1
                0x00000000070013c8                jrb_dl_mossy_stone_018_mesh_layer_1
                0x0000000007001408                jrb_dl_mossy_stone_017_mesh_layer_1
                0x0000000007001448                jrb_dl_mossy_stone_016_mesh_layer_1
                0x0000000007001488                jrb_dl_mossy_stone_015_mesh_layer_1
                0x00000000070014c8                jrb_dl_mossy_stone_013_mesh_layer_1
                0x0000000007001508                jrb_dl_mossy_stone_012_mesh_layer_1
                0x0000000007001548                jrb_dl_mossy_stone_011_mesh_layer_1
                0x0000000007001588                jrb_dl_mossy_stone_010_mesh_layer_1
                0x00000000070015c8                jrb_dl_mossy_stone_009_mesh_layer_1
                0x0000000007001608                jrb_dl_mossy_stone_008_mesh_layer_1
                0x0000000007001648                jrb_dl_mossy_stone_007_mesh_layer_1
                0x0000000007001688                jrb_dl_mossy_stone_006_mesh_layer_1
                0x00000000070016c8                jrb_dl_mossy_stone_005_mesh_layer_1
                0x0000000007001708                jrb_dl_mossy_stone_004_mesh_layer_1
                0x0000000007001748                jrb_dl_mossy_stone_003_mesh_layer_1
                0x0000000007001788                jrb_dl_mossy_stone_002_mesh_layer_1
                0x00000000070017c8                jrb_dl_mossy_stone_001_mesh_layer_1
                0x0000000007001808                jrb_dl_mossy_stone_mesh_layer_1
                0x0000000007001848                jrb_dl_Mesh_Owl_mesh_layer_1
                0x0000000007001888                jrb_dl_massive_pillar_003_mesh_layer_4
                0x00000000070018c8                jrb_dl_massive_pillar_mesh_layer_1
                0x0000000007001968                jrb_dl_Icosphere_015_mesh_layer_1
                0x00000000070019a8                jrb_dl_Icosphere_009_mesh_layer_1
                0x00000000070019e8                jrb_dl_Icosphere_008_mesh_layer_1
                0x0000000007001a28                jrb_dl_Icosphere_007_mesh_layer_1
                0x0000000007001a68                jrb_dl_Icosphere_006_mesh_layer_1
                0x0000000007001aa8                jrb_dl_Icosphere_005_mesh_layer_1
                0x0000000007001ae8                jrb_dl_Icosphere_004_mesh_layer_1
                0x0000000007001b28                jrb_dl_Icosphere_003_mesh_layer_1
                0x0000000007001b68                jrb_dl_Icosphere_002_mesh_layer_1
                0x0000000007001ba8                jrb_dl_Icosphere_001_mesh_layer_1
                0x0000000007001be8                jrb_dl_Houses_SecondAge_3_Level1_004_mesh_layer_1
                0x0000000007001c88                jrb_dl_Houses_SecondAge_3_Level1_003_mesh_layer_1
                0x0000000007001d28                jrb_dl_Houses_SecondAge_3_Level1_002_mesh_layer_1
                0x0000000007001dc8                jrb_dl_Houses_SecondAge_3_Level1_001_mesh_layer_1
                0x0000000007001e68                jrb_dl_Houses_SecondAge_3_Level1_mesh_layer_1
                0x0000000007001f08                jrb_dl_Houses_SecondAge_1_Level1_001_mesh_layer_1
                0x0000000007001fa8                jrb_dl_flowers_003_mesh_layer_5
                0x0000000007001fe8                jrb_dl_flowers_003_mesh_layer_4
                0x0000000007002028                jrb_dl_flowers_002_mesh_layer_5
                0x0000000007002068                jrb_dl_flowers_002_mesh_layer_4
                0x00000000070020a8                jrb_dl_flowers_001_mesh_layer_5
                0x00000000070020e8                jrb_dl_flowers_001_mesh_layer_4
                0x0000000007002128                jrb_dl_flowers_mesh_layer_5
                0x0000000007002168                jrb_dl_flowers_mesh_layer_4
                0x00000000070021a8                jrb_dl_death_plane_mesh_layer_1
                0x00000000070021e8                jrb_dl_Cylinder_007_mesh_layer_1
                0x0000000007002240                jrb_dl_Cylinder_006_mesh_layer_1
                0x0000000007002298                jrb_dl_Cylinder_005_mesh_layer_1
                0x00000000070022f0                jrb_dl_Cylinder_004_mesh_layer_1
                0x0000000007002348                jrb_dl_Cylinder_003_mesh_layer_1
                0x00000000070023a0                jrb_dl_Cylinder_002_mesh_layer_1
                0x00000000070023f8                jrb_dl_Cylinder_001_mesh_layer_6
                0x0000000007002438                jrb_dl_Cylinder_mesh_layer_1
                0x00000000070024a8                jrb_dl_Cube_070_mesh_layer_1
                0x0000000007002500                jrb_dl_Cube_069_mesh_layer_6
                0x0000000007002540                jrb_dl_Cube_068_mesh_layer_6
                0x0000000007002580                jrb_dl_Cube_067_mesh_layer_6
                0x00000000070025c0                jrb_dl_Cube_066_mesh_layer_6
                0x0000000007002600                jrb_dl_Cube_065_mesh_layer_6
                0x0000000007002640                jrb_dl_Cube_064_mesh_layer_1
                0x00000000070026f8                jrb_dl_Cube_063_mesh_layer_6
                0x0000000007002738                jrb_dl_Cube_062_mesh_layer_1
                0x0000000007002778                jrb_dl_Cube_061_mesh_layer_6
                0x00000000070027b8                jrb_dl_Cube_060_mesh_layer_6
                0x00000000070027f8                jrb_dl_Cube_059_mesh_layer_6
                0x0000000007002838                jrb_dl_Cube_058_mesh_layer_1
                0x0000000007002878                jrb_dl_Cube_057_mesh_layer_6
                0x00000000070028b8                jrb_dl_Cube_056_mesh_layer_1
                0x0000000007002910                jrb_dl_Cube_055_mesh_layer_1
                0x0000000007002950                jrb_dl_Cube_054_mesh_layer_6
                0x0000000007002990                jrb_dl_Cube_053_mesh_layer_6
                0x00000000070029d0                jrb_dl_Cube_051_mesh_layer_1
                0x0000000007002a10                jrb_dl_Cube_050_mesh_layer_1
                0x0000000007002a68                jrb_dl_Cube_049_mesh_layer_1
                0x0000000007002ac0                jrb_dl_Cube_048_mesh_layer_1
                0x0000000007002b00                jrb_dl_Cube_047_mesh_layer_1
                0x0000000007002b40                jrb_dl_Cube_046_mesh_layer_6
                0x0000000007002b80                jrb_dl_Cube_045_mesh_layer_1
                0x0000000007002bd8                jrb_dl_Cube_044_mesh_layer_1
                0x0000000007002c30                jrb_dl_Cube_043_mesh_layer_1
                0x0000000007002c70                jrb_dl_Cube_042_mesh_layer_1
                0x0000000007002cc8                jrb_dl_Cube_041_mesh_layer_1
                0x0000000007002d08                jrb_dl_Cube_040_mesh_layer_1
                0x0000000007002d48                jrb_dl_Cube_039_mesh_layer_1
                0x0000000007002d88                jrb_dl_Cube_038_mesh_layer_5
                0x0000000007002dc8                jrb_dl_Cube_037_mesh_layer_1
                0x0000000007002e08                jrb_dl_Cube_036_mesh_layer_1
                0x0000000007002e60                jrb_dl_Cube_035_mesh_layer_5
                0x0000000007002ea0                jrb_dl_Cube_035_mesh_layer_4
                0x0000000007002ee0                jrb_dl_Cube_035_mesh_layer_1
                0x0000000007002ff8                jrb_dl_Cube_034_mesh_layer_1
                0x0000000007003050                jrb_dl_Cube_033_mesh_layer_6
                0x0000000007003090                jrb_dl_Cube_032_mesh_layer_1
                0x00000000070030d0                jrb_dl_Cube_031_mesh_layer_1
                0x0000000007003128                jrb_dl_Cube_030_mesh_layer_1
                0x0000000007003168                jrb_dl_Cube_029_mesh_layer_1
                0x00000000070031a8                jrb_dl_Cube_028_mesh_layer_1
                0x00000000070031e8                jrb_dl_Cube_027_mesh_layer_6
                0x0000000007003228                jrb_dl_Cube_026_mesh_layer_1
                0x0000000007003280                jrb_dl_Cube_024_mesh_layer_1
                0x00000000070032d8                jrb_dl_Cube_023_mesh_layer_5
                0x0000000007003330                jrb_dl_Cube_022_mesh_layer_6
                0x0000000007003370                jrb_dl_Cube_021_mesh_layer_1
                0x00000000070033c8                jrb_dl_Cube_020_mesh_layer_5
                0x0000000007003408                jrb_dl_Cube_019_mesh_layer_1
                0x0000000007003490                jrb_dl_Cube_018_mesh_layer_5
                0x00000000070034e8                jrb_dl_Cube_017_mesh_layer_1
                0x0000000007003528                jrb_dl_Cube_016_mesh_layer_1
                0x0000000007003568                jrb_dl_Cube_015_mesh_layer_1
                0x00000000070035c0                jrb_dl_Cube_014_mesh_layer_1
                0x0000000007003600                jrb_dl_Cube_013_mesh_layer_1
                0x00000000070036a0                jrb_dl_Cube_012_mesh_layer_1
                0x00000000070036f8                jrb_dl_Cube_011_mesh_layer_1
                0x0000000007003738                jrb_dl_Cube_010_mesh_layer_5
                0x0000000007003778                jrb_dl_Cube_009_mesh_layer_1
                0x00000000070037b8                jrb_dl_Cube_008_mesh_layer_5
                0x00000000070037f8                jrb_dl_Cube_007_mesh_layer_1
                0x0000000007003838                jrb_dl_Cube_006_mesh_layer_1
                0x0000000007003878                jrb_dl_Cube_005_mesh_layer_1
                0x00000000070038b8                jrb_dl_Cube_004_mesh_layer_1
                0x00000000070038f8                jrb_dl_Cube_003_mesh_layer_1
                0x0000000007003938                jrb_dl_Cube_002_mesh_layer_1
                0x0000000007003978                jrb_dl_Cube_001_mesh_layer_5
                0x00000000070039b8                jrb_dl_Cube_mesh_layer_1
                0x0000000007003a58                jrb_dl_bridge_mesh_layer_1
                0x0000000007003a98                jrb_dl_Alpha_002_mesh_layer_6
                0x0000000007003ad8                jrb_dl_Alpha_001_mesh_layer_6
                0x0000000007003b18                jrb_dl_Alpha_mesh_layer_1
                0x0000000007003b88                mat_revert_jrb_dl_greate_wind
                0x0000000007003bb0                mat_jrb_dl_greate_wind
                0x0000000007003c48                mat_revert_jrb_dl_metal_2
                0x0000000007003c68                mat_jrb_dl_metal_2
                0x0000000007003cf8                mat_revert_jrb_dl_flowers_002
                0x0000000007003d20                mat_jrb_dl_flowers_002
                0x0000000007003db8                mat_revert_jrb_dl_bricks_001
                0x0000000007003dd8                mat_jrb_dl_bricks_001
                0x0000000007003e68                mat_revert_jrb_dl_flowers
                0x0000000007003e90                mat_jrb_dl_flowers
                0x0000000007003f28                mat_revert_jrb_dl_f3dlite_material_004
                0x0000000007003f40                mat_jrb_dl_f3dlite_material_004
                0x0000000007003fb0                mat_revert_jrb_dl_hay
                0x0000000007003fd0                mat_jrb_dl_hay
                0x0000000007004060                mat_revert_jrb_dl_swirl
                0x0000000007004080                mat_jrb_dl_swirl
                0x0000000007004110                mat_revert_jrb_dl_picnic
                0x0000000007004130                mat_jrb_dl_picnic
                0x00000000070041c0                mat_revert_jrb_dl_tree_rings
                0x00000000070041e0                mat_jrb_dl_tree_rings
                0x0000000007004270                mat_revert_jrb_dl_bark
                0x0000000007004290                mat_jrb_dl_bark
                0x0000000007004320                mat_revert_jrb_dl_water_bottom
                0x0000000007004338                mat_jrb_dl_water_bottom
                0x0000000007004380                mat_revert_jrb_dl_death
                0x00000000070043a0                mat_jrb_dl_death
                0x0000000007004430                mat_revert_jrb_dl_stone_star_002
                0x0000000007004450                mat_jrb_dl_stone_star_002
                0x00000000070044e0                mat_revert_jrb_dl_caution
                0x0000000007004500                mat_jrb_dl_caution
                0x0000000007004590                mat_revert_jrb_dl_light
                0x00000000070045b8                mat_jrb_dl_light
                0x0000000007004658                mat_revert_jrb_dl_old_checker
                0x0000000007004678                mat_jrb_dl_old_checker
                0x0000000007004708                mat_revert_jrb_dl_f3dlite_material
                0x0000000007004728                mat_jrb_dl_f3dlite_material
                0x00000000070047b8                mat_revert_jrb_dl_metal_1
                0x00000000070047d8                mat_jrb_dl_metal_1
                0x0000000007004868                mat_revert_jrb_dl_gold
                0x0000000007004888                mat_jrb_dl_gold
                0x0000000007004918                mat_revert_jrb_dl_white_bevel
                0x0000000007004940                mat_jrb_dl_white_bevel
                0x00000000070049d8                mat_revert_jrb_dl_f3dlite_material_001
                0x00000000070049f8                mat_jrb_dl_f3dlite_material_001
                0x0000000007004a88                mat_revert_jrb_dl_f3dlite_material_003
                0x0000000007004aa8                mat_jrb_dl_f3dlite_material_003
                0x0000000007004b38                mat_revert_jrb_dl_invisible
                0x0000000007004b58                mat_jrb_dl_invisible
                0x0000000007004bd8                mat_revert_jrb_dl_fake_water
                0x0000000007004c00                mat_jrb_dl_fake_water
                0x0000000007004ca0                mat_revert_jrb_dl_f3dlite_material_002
                0x0000000007004cc0                mat_jrb_dl_f3dlite_material_002
                0x0000000007004d50                mat_revert_jrb_dl_mossy_stone
                0x0000000007004d70                mat_jrb_dl_mossy_stone
                0x0000000007004e00                mat_revert_jrb_dl_fast_water
                0x0000000007004e20                mat_jrb_dl_fast_water
                0x0000000007004eb0                mat_revert_jrb_dl_moving_water
                0x0000000007004ed0                mat_jrb_dl_moving_water
                0x0000000007004f60                mat_revert_jrb_dl_old_stone
                0x0000000007004f80                mat_jrb_dl_old_stone
                0x0000000007005010                mat_revert_jrb_dl_bark_small
                0x0000000007005030                mat_jrb_dl_bark_small
                0x00000000070050c0                mat_revert_jrb_dl_black
                0x00000000070050d8                mat_jrb_dl_black
                0x0000000007005120                mat_revert_jrb_dl_rock
                0x0000000007005140                mat_jrb_dl_rock
                0x00000000070051d0                mat_revert_jrb_dl_stone_star
                0x00000000070051f0                mat_jrb_dl_stone_star
                0x0000000007005280                mat_revert_jrb_dl_water
                0x00000000070052a8                mat_jrb_dl_water
                0x0000000007005348                mat_revert_jrb_dl_shingles
                0x0000000007005368                mat_jrb_dl_shingles
                0x00000000070053f8                mat_revert_jrb_dl_wood
                0x0000000007005418                mat_jrb_dl_wood
                0x00000000070054a8                mat_revert_jrb_dl_wood2
                0x00000000070054c8                mat_jrb_dl_wood2
                0x0000000007005558                mat_revert_jrb_dl_interior
                0x0000000007005578                mat_jrb_dl_interior
                0x0000000007005608                mat_revert_jrb_dl_bricks
                0x0000000007005628                mat_jrb_dl_bricks
                0x00000000070056b8                mat_revert_jrb_dl_dirt
                0x00000000070056d8                mat_jrb_dl_dirt
                0x0000000007005768                mat_revert_jrb_dl_stone_path
                0x0000000007005780                mat_jrb_dl_stone_path
                0x00000000070057f0                mat_revert_jrb_dl_dirt2
                0x0000000007005810                mat_jrb_dl_dirt2
                0x00000000070058a0                mat_revert_jrb_dl_dirt_with_grass
                0x00000000070058c0                mat_jrb_dl_dirt_with_grass
                0x0000000007005950                mat_revert_jrb_dl_grass
                0x0000000007005970                mat_jrb_dl_grass
                0x0000000007005a00                jrb_dl_wind_grate_010_mesh_layer_4_tri_0
                0x0000000007005a18                jrb_dl_wind_grate_010_mesh_layer_4_vtx_0
                0x0000000007005a58                jrb_dl_wind_grate_010_mesh_layer_4_vtx_cull
                0x0000000007005ad8                jrb_dl_wind_grate_009_mesh_layer_4_tri_0
                0x0000000007005af0                jrb_dl_wind_grate_009_mesh_layer_4_vtx_0
                0x0000000007005b30                jrb_dl_wind_grate_009_mesh_layer_4_vtx_cull
                0x0000000007005bb0                jrb_dl_wind_grate_008_mesh_layer_4_tri_0
                0x0000000007005bc8                jrb_dl_wind_grate_008_mesh_layer_4_vtx_0
                0x0000000007005c08                jrb_dl_wind_grate_008_mesh_layer_4_vtx_cull
                0x0000000007005c88                jrb_dl_wind_grate_007_mesh_layer_4_tri_0
                0x0000000007005ca0                jrb_dl_wind_grate_007_mesh_layer_4_vtx_0
                0x0000000007005ce0                jrb_dl_wind_grate_007_mesh_layer_4_vtx_cull
                0x0000000007005d60                jrb_dl_wind_grate_006_mesh_layer_4_tri_0
                0x0000000007005da0                jrb_dl_wind_grate_006_mesh_layer_4_vtx_0
                0x0000000007005f20                jrb_dl_wind_grate_006_mesh_layer_4_vtx_cull
                0x0000000007005fa0                jrb_dl_wind_grate_005_mesh_layer_4_tri_0
                0x0000000007005fb8                jrb_dl_wind_grate_005_mesh_layer_4_vtx_0
                0x0000000007005ff8                jrb_dl_wind_grate_005_mesh_layer_4_vtx_cull
                0x0000000007006078                jrb_dl_wind_grate_004_mesh_layer_4_tri_0
                0x0000000007006090                jrb_dl_wind_grate_004_mesh_layer_4_vtx_0
                0x00000000070060d0                jrb_dl_wind_grate_004_mesh_layer_4_vtx_cull
                0x0000000007006150                jrb_dl_wind_grate_003_mesh_layer_4_tri_0
                0x0000000007006168                jrb_dl_wind_grate_003_mesh_layer_4_vtx_0
                0x00000000070061a8                jrb_dl_wind_grate_003_mesh_layer_4_vtx_cull
                0x0000000007006228                jrb_dl_wind_grate_002_mesh_layer_4_tri_0
                0x0000000007006240                jrb_dl_wind_grate_002_mesh_layer_4_vtx_0
                0x0000000007006280                jrb_dl_wind_grate_002_mesh_layer_4_vtx_cull
                0x0000000007006300                jrb_dl_wind_grate_001_mesh_layer_4_tri_0
                0x0000000007006318                jrb_dl_wind_grate_001_mesh_layer_4_vtx_0
                0x0000000007006358                jrb_dl_wind_grate_001_mesh_layer_4_vtx_cull
                0x00000000070063d8                jrb_dl_waterfall_mesh_layer_5_tri_1
                0x00000000070063f0                jrb_dl_waterfall_mesh_layer_5_vtx_1
                0x0000000007006430                jrb_dl_waterfall_mesh_layer_5_tri_0
                0x00000000070064b0                jrb_dl_waterfall_mesh_layer_5_vtx_0
                0x00000000070067d0                jrb_dl_waterfall_mesh_layer_5_vtx_cull
                0x0000000007006850                jrb_dl_wall_002_mesh_layer_1_tri_0
                0x00000000070068e0                jrb_dl_wall_002_mesh_layer_1_vtx_0
                0x0000000007006c00                jrb_dl_wall_002_mesh_layer_1_vtx_cull
                0x0000000007006c80                jrb_dl_wall_001_mesh_layer_1_tri_1
                0x0000000007006ca0                jrb_dl_wall_001_mesh_layer_1_vtx_1
                0x0000000007006d40                jrb_dl_wall_001_mesh_layer_1_tri_0
                0x0000000007006ee8                jrb_dl_wall_001_mesh_layer_1_vtx_0
                0x00000000070077b8                jrb_dl_wall_001_mesh_layer_1_vtx_cull
                0x0000000007007838                jrb_dl_wall_mesh_layer_1_tri_0
                0x00000000070078c0                jrb_dl_wall_mesh_layer_1_vtx_0
                0x0000000007007bc0                jrb_dl_wall_mesh_layer_1_vtx_cull
                0x0000000007007c40                jrb_dl_small_fan_004_mesh_layer_1_tri_1
                0x0000000007007c80                jrb_dl_small_fan_004_mesh_layer_1_vtx_1
                0x0000000007007e00                jrb_dl_small_fan_004_mesh_layer_1_tri_0
                0x0000000007007e78                jrb_dl_small_fan_004_mesh_layer_1_vtx_0
                0x0000000007008178                jrb_dl_small_fan_004_mesh_layer_1_vtx_cull
                0x00000000070081f8                jrb_dl_small_fan_003_mesh_layer_1_tri_1
                0x0000000007008238                jrb_dl_small_fan_003_mesh_layer_1_vtx_1
                0x00000000070083b8                jrb_dl_small_fan_003_mesh_layer_1_tri_0
                0x0000000007008430                jrb_dl_small_fan_003_mesh_layer_1_vtx_0
                0x0000000007008730                jrb_dl_small_fan_003_mesh_layer_1_vtx_cull
                0x00000000070087b0                jrb_dl_small_fan_002_mesh_layer_1_tri_1
                0x00000000070087f0                jrb_dl_small_fan_002_mesh_layer_1_vtx_1
                0x0000000007008970                jrb_dl_small_fan_002_mesh_layer_1_tri_0
                0x00000000070089e8                jrb_dl_small_fan_002_mesh_layer_1_vtx_0
                0x0000000007008ce8                jrb_dl_small_fan_002_mesh_layer_1_vtx_cull
                0x0000000007008d68                jrb_dl_small_fan_001_mesh_layer_1_tri_1
                0x0000000007008da8                jrb_dl_small_fan_001_mesh_layer_1_vtx_1
                0x0000000007008f28                jrb_dl_small_fan_001_mesh_layer_1_tri_0
                0x0000000007008fa0                jrb_dl_small_fan_001_mesh_layer_1_vtx_0
                0x00000000070092a0                jrb_dl_small_fan_001_mesh_layer_1_vtx_cull
                0x0000000007009320                jrb_dl_SM_Fountain_02_mesh_layer_1_tri_2
                0x0000000007009638                jrb_dl_SM_Fountain_02_mesh_layer_1_vtx_2
                0x000000000700aba8                jrb_dl_SM_Fountain_02_mesh_layer_1_tri_1
                0x000000000700ace0                jrb_dl_SM_Fountain_02_mesh_layer_1_vtx_1
                0x000000000700b6e0                jrb_dl_SM_Fountain_02_mesh_layer_1_tri_0
                0x000000000700c868                jrb_dl_SM_Fountain_02_mesh_layer_1_vtx_0
                0x0000000007014388                jrb_dl_SM_Fountain_02_mesh_layer_1_vtx_cull
                0x0000000007014408                jrb_dl_rock_016_mesh_layer_1_tri_2
                0x0000000007014458                jrb_dl_rock_016_mesh_layer_1_vtx_2
                0x0000000007014658                jrb_dl_rock_016_mesh_layer_1_tri_1
                0x0000000007014688                jrb_dl_rock_016_mesh_layer_1_vtx_1
                0x0000000007014758                jrb_dl_rock_016_mesh_layer_1_tri_0
                0x0000000007014818                jrb_dl_rock_016_mesh_layer_1_vtx_0
                0x0000000007014d18                jrb_dl_rock_016_mesh_layer_1_vtx_cull
                0x0000000007014d98                jrb_dl_rock_015_mesh_layer_1_tri_2
                0x0000000007014de8                jrb_dl_rock_015_mesh_layer_1_vtx_2
                0x0000000007014fe8                jrb_dl_rock_015_mesh_layer_1_tri_1
                0x0000000007015018                jrb_dl_rock_015_mesh_layer_1_vtx_1
                0x00000000070150e8                jrb_dl_rock_015_mesh_layer_1_tri_0
                0x00000000070151a8                jrb_dl_rock_015_mesh_layer_1_vtx_0
                0x00000000070156a8                jrb_dl_rock_015_mesh_layer_1_vtx_cull
                0x0000000007015728                jrb_dl_rock_014_mesh_layer_1_tri_2
                0x0000000007015778                jrb_dl_rock_014_mesh_layer_1_vtx_2
                0x0000000007015978                jrb_dl_rock_014_mesh_layer_1_tri_1
                0x00000000070159a8                jrb_dl_rock_014_mesh_layer_1_vtx_1
                0x0000000007015a68                jrb_dl_rock_014_mesh_layer_1_tri_0
                0x0000000007015b28                jrb_dl_rock_014_mesh_layer_1_vtx_0
                0x0000000007016028                jrb_dl_rock_014_mesh_layer_1_vtx_cull
                0x00000000070160a8                jrb_dl_rock_013_mesh_layer_1_tri_2
                0x00000000070160f8                jrb_dl_rock_013_mesh_layer_1_vtx_2
                0x00000000070162f8                jrb_dl_rock_013_mesh_layer_1_tri_1
                0x0000000007016328                jrb_dl_rock_013_mesh_layer_1_vtx_1
                0x00000000070163e8                jrb_dl_rock_013_mesh_layer_1_tri_0
                0x00000000070164a8                jrb_dl_rock_013_mesh_layer_1_vtx_0
                0x00000000070169a8                jrb_dl_rock_013_mesh_layer_1_vtx_cull
                0x0000000007016a28                jrb_dl_rock_012_mesh_layer_1_tri_2
                0x0000000007016a78                jrb_dl_rock_012_mesh_layer_1_vtx_2
                0x0000000007016c78                jrb_dl_rock_012_mesh_layer_1_tri_1
                0x0000000007016ca8                jrb_dl_rock_012_mesh_layer_1_vtx_1
                0x0000000007016d68                jrb_dl_rock_012_mesh_layer_1_tri_0
                0x0000000007016e28                jrb_dl_rock_012_mesh_layer_1_vtx_0
                0x0000000007017328                jrb_dl_rock_012_mesh_layer_1_vtx_cull
                0x00000000070173a8                jrb_dl_rock_011_mesh_layer_1_tri_0
                0x0000000007017490                jrb_dl_rock_011_mesh_layer_1_vtx_0
                0x00000000070179f0                jrb_dl_rock_011_mesh_layer_1_vtx_cull
                0x0000000007017a70                jrb_dl_rock_010_mesh_layer_1_tri_0
                0x0000000007017b58                jrb_dl_rock_010_mesh_layer_1_vtx_0
                0x00000000070180b8                jrb_dl_rock_010_mesh_layer_1_vtx_cull
                0x0000000007018138                jrb_dl_rock_009_mesh_layer_1_tri_0
                0x0000000007018220                jrb_dl_rock_009_mesh_layer_1_vtx_0
                0x0000000007018780                jrb_dl_rock_009_mesh_layer_1_vtx_cull
                0x0000000007018800                jrb_dl_rock_008_mesh_layer_1_tri_2
                0x0000000007018850                jrb_dl_rock_008_mesh_layer_1_vtx_2
                0x0000000007018a50                jrb_dl_rock_008_mesh_layer_1_tri_1
                0x0000000007018a80                jrb_dl_rock_008_mesh_layer_1_vtx_1
                0x0000000007018b40                jrb_dl_rock_008_mesh_layer_1_tri_0
                0x0000000007018c00                jrb_dl_rock_008_mesh_layer_1_vtx_0
                0x0000000007019100                jrb_dl_rock_008_mesh_layer_1_vtx_cull
                0x0000000007019180                jrb_dl_rock_007_mesh_layer_1_tri_2
                0x00000000070191d0                jrb_dl_rock_007_mesh_layer_1_vtx_2
                0x00000000070193d0                jrb_dl_rock_007_mesh_layer_1_tri_1
                0x0000000007019400                jrb_dl_rock_007_mesh_layer_1_vtx_1
                0x00000000070194d0                jrb_dl_rock_007_mesh_layer_1_tri_0
                0x0000000007019590                jrb_dl_rock_007_mesh_layer_1_vtx_0
                0x0000000007019a90                jrb_dl_rock_007_mesh_layer_1_vtx_cull
                0x0000000007019b10                jrb_dl_rock_006_mesh_layer_1_tri_2
                0x0000000007019b60                jrb_dl_rock_006_mesh_layer_1_vtx_2
                0x0000000007019d60                jrb_dl_rock_006_mesh_layer_1_tri_1
                0x0000000007019d90                jrb_dl_rock_006_mesh_layer_1_vtx_1
                0x0000000007019e50                jrb_dl_rock_006_mesh_layer_1_tri_0
                0x0000000007019f10                jrb_dl_rock_006_mesh_layer_1_vtx_0
                0x000000000701a410                jrb_dl_rock_006_mesh_layer_1_vtx_cull
                0x000000000701a490                jrb_dl_rock_005_mesh_layer_1_tri_0
                0x000000000701a578                jrb_dl_rock_005_mesh_layer_1_vtx_0
                0x000000000701aad8                jrb_dl_rock_005_mesh_layer_1_vtx_cull
                0x000000000701ab58                jrb_dl_rock_004_mesh_layer_1_tri_0
                0x000000000701ac40                jrb_dl_rock_004_mesh_layer_1_vtx_0
                0x000000000701b1a0                jrb_dl_rock_004_mesh_layer_1_vtx_cull
                0x000000000701b220                jrb_dl_rock_003_mesh_layer_1_tri_0
                0x000000000701b308                jrb_dl_rock_003_mesh_layer_1_vtx_0
                0x000000000701b868                jrb_dl_rock_003_mesh_layer_1_vtx_cull
                0x000000000701b8e8                jrb_dl_rock_002_mesh_layer_1_tri_0
                0x000000000701b9d0                jrb_dl_rock_002_mesh_layer_1_vtx_0
                0x000000000701bf30                jrb_dl_rock_002_mesh_layer_1_vtx_cull
                0x000000000701bfb0                jrb_dl_rock_001_mesh_layer_1_tri_0
                0x000000000701c098                jrb_dl_rock_001_mesh_layer_1_vtx_0
                0x000000000701c5f8                jrb_dl_rock_001_mesh_layer_1_vtx_cull
                0x000000000701c678                jrb_dl_rock_mesh_layer_1_tri_0
                0x000000000701c760                jrb_dl_rock_mesh_layer_1_vtx_0
                0x000000000701ccc0                jrb_dl_rock_mesh_layer_1_vtx_cull
                0x000000000701cd40                jrb_dl_render_048_mesh_layer_1_tri_1
                0x000000000701cea8                jrb_dl_render_048_mesh_layer_1_vtx_1
                0x000000000701d6a8                jrb_dl_render_048_mesh_layer_1_tri_0
                0x000000000701d6d0                jrb_dl_render_048_mesh_layer_1_vtx_0
                0x000000000701d750                jrb_dl_render_048_mesh_layer_1_vtx_cull
                0x000000000701d7d0                jrb_dl_Plane_mesh_layer_6_tri_0
                0x000000000701d808                jrb_dl_Plane_mesh_layer_6_vtx_0
                0x000000000701d888                jrb_dl_Plane_mesh_layer_6_vtx_cull
                0x000000000701d908                jrb_dl_pillar_030_mesh_layer_1_tri_0
                0x000000000701d948                jrb_dl_pillar_030_mesh_layer_1_vtx_0
                0x000000000701dac8                jrb_dl_pillar_030_mesh_layer_1_vtx_cull
                0x000000000701db48                jrb_dl_pillar_029_mesh_layer_1_tri_0
                0x000000000701db88                jrb_dl_pillar_029_mesh_layer_1_vtx_0
                0x000000000701dd08                jrb_dl_pillar_029_mesh_layer_1_vtx_cull
                0x000000000701dd88                jrb_dl_pillar_028_mesh_layer_1_tri_0
                0x000000000701ddc8                jrb_dl_pillar_028_mesh_layer_1_vtx_0
                0x000000000701df48                jrb_dl_pillar_028_mesh_layer_1_vtx_cull
                0x000000000701dfc8                jrb_dl_pillar_027_mesh_layer_1_tri_0
                0x000000000701e008                jrb_dl_pillar_027_mesh_layer_1_vtx_0
                0x000000000701e188                jrb_dl_pillar_027_mesh_layer_1_vtx_cull
                0x000000000701e208                jrb_dl_pillar_026_mesh_layer_1_tri_0
                0x000000000701e248                jrb_dl_pillar_026_mesh_layer_1_vtx_0
                0x000000000701e3c8                jrb_dl_pillar_026_mesh_layer_1_vtx_cull
                0x000000000701e448                jrb_dl_pillar_025_mesh_layer_1_tri_0
                0x000000000701e488                jrb_dl_pillar_025_mesh_layer_1_vtx_0
                0x000000000701e608                jrb_dl_pillar_025_mesh_layer_1_vtx_cull
                0x000000000701e688                jrb_dl_pillar_024_mesh_layer_1_tri_0
                0x000000000701e6c8                jrb_dl_pillar_024_mesh_layer_1_vtx_0
                0x000000000701e848                jrb_dl_pillar_024_mesh_layer_1_vtx_cull
                0x000000000701e8c8                jrb_dl_pillar_019_mesh_layer_1_tri_0
                0x000000000701e908                jrb_dl_pillar_019_mesh_layer_1_vtx_0
                0x000000000701ea88                jrb_dl_pillar_019_mesh_layer_1_vtx_cull
                0x000000000701eb08                jrb_dl_pillar_014_mesh_layer_1_tri_0
                0x000000000701eb48                jrb_dl_pillar_014_mesh_layer_1_vtx_0
                0x000000000701ecc8                jrb_dl_pillar_014_mesh_layer_1_vtx_cull
                0x000000000701ed48                jrb_dl_pillar_013_mesh_layer_1_tri_0
                0x000000000701ed88                jrb_dl_pillar_013_mesh_layer_1_vtx_0
                0x000000000701ef08                jrb_dl_pillar_013_mesh_layer_1_vtx_cull
                0x000000000701ef88                jrb_dl_pillar_012_mesh_layer_1_tri_0
                0x000000000701efc8                jrb_dl_pillar_012_mesh_layer_1_vtx_0
                0x000000000701f148                jrb_dl_pillar_012_mesh_layer_1_vtx_cull
                0x000000000701f1c8                jrb_dl_pillar_011_mesh_layer_1_tri_0
                0x000000000701f208                jrb_dl_pillar_011_mesh_layer_1_vtx_0
                0x000000000701f388                jrb_dl_pillar_011_mesh_layer_1_vtx_cull
                0x000000000701f408                jrb_dl_pillar_010_mesh_layer_1_tri_0
                0x000000000701f448                jrb_dl_pillar_010_mesh_layer_1_vtx_0
                0x000000000701f5c8                jrb_dl_pillar_010_mesh_layer_1_vtx_cull
                0x000000000701f648                jrb_dl_pillar_009_mesh_layer_1_tri_0
                0x000000000701f688                jrb_dl_pillar_009_mesh_layer_1_vtx_0
                0x000000000701f808                jrb_dl_pillar_009_mesh_layer_1_vtx_cull
                0x000000000701f888                jrb_dl_pillar_008_mesh_layer_1_tri_0
                0x000000000701f8c8                jrb_dl_pillar_008_mesh_layer_1_vtx_0
                0x000000000701fa48                jrb_dl_pillar_008_mesh_layer_1_vtx_cull
                0x000000000701fac8                jrb_dl_pillar_007_mesh_layer_1_tri_0
                0x000000000701fb08                jrb_dl_pillar_007_mesh_layer_1_vtx_0
                0x000000000701fc88                jrb_dl_pillar_007_mesh_layer_1_vtx_cull
                0x000000000701fd08                jrb_dl_pillar_006_mesh_layer_1_tri_0
                0x000000000701fd48                jrb_dl_pillar_006_mesh_layer_1_vtx_0
                0x000000000701fec8                jrb_dl_pillar_006_mesh_layer_1_vtx_cull
                0x000000000701ff48                jrb_dl_pillar_005_mesh_layer_1_tri_0
                0x000000000701ff88                jrb_dl_pillar_005_mesh_layer_1_vtx_0
                0x0000000007020108                jrb_dl_pillar_005_mesh_layer_1_vtx_cull
                0x0000000007020188                jrb_dl_pillar_004_mesh_layer_1_tri_0
                0x00000000070201c8                jrb_dl_pillar_004_mesh_layer_1_vtx_0
                0x0000000007020348                jrb_dl_pillar_004_mesh_layer_1_vtx_cull
                0x00000000070203c8                jrb_dl_pillar_003_mesh_layer_1_tri_0
                0x0000000007020408                jrb_dl_pillar_003_mesh_layer_1_vtx_0
                0x0000000007020588                jrb_dl_pillar_003_mesh_layer_1_vtx_cull
                0x0000000007020608                jrb_dl_pillar_002_mesh_layer_1_tri_0
                0x0000000007020648                jrb_dl_pillar_002_mesh_layer_1_vtx_0
                0x00000000070207c8                jrb_dl_pillar_002_mesh_layer_1_vtx_cull
                0x0000000007020848                jrb_dl_pillar_001_mesh_layer_1_tri_0
                0x0000000007020888                jrb_dl_pillar_001_mesh_layer_1_vtx_0
                0x0000000007020a08                jrb_dl_pillar_001_mesh_layer_1_vtx_cull
                0x0000000007020a88                jrb_dl_pillar_mesh_layer_1_tri_2
                0x0000000007020ac8                jrb_dl_pillar_mesh_layer_1_vtx_2
                0x0000000007020c48                jrb_dl_pillar_mesh_layer_1_tri_1
                0x0000000007020c88                jrb_dl_pillar_mesh_layer_1_vtx_1
                0x0000000007020e08                jrb_dl_pillar_mesh_layer_1_tri_0
                0x0000000007020e90                jrb_dl_pillar_mesh_layer_1_vtx_0
                0x00000000070211d0                jrb_dl_pillar_mesh_layer_1_vtx_cull
                0x0000000007021250                jrb_dl_path_002_mesh_layer_6_tri_0
                0x00000000070213b0                jrb_dl_path_002_mesh_layer_6_vtx_0
                0x00000000070218a0                jrb_dl_path_002_mesh_layer_6_vtx_cull
                0x0000000007021920                jrb_dl_path_001_mesh_layer_6_tri_0
                0x0000000007021be8                jrb_dl_path_001_mesh_layer_6_vtx_0
                0x0000000007022758                jrb_dl_path_001_mesh_layer_6_vtx_cull
                0x00000000070227d8                jrb_dl_path_mesh_layer_6_tri_0
                0x0000000007022bd8                jrb_dl_path_mesh_layer_6_vtx_0
                0x0000000007023ec8                jrb_dl_path_mesh_layer_6_vtx_cull
                0x0000000007023f48                jrb_dl_mossy_stone_019_mesh_layer_1_tri_0
                0x0000000007023fb0                jrb_dl_mossy_stone_019_mesh_layer_1_vtx_0
                0x0000000007024230                jrb_dl_mossy_stone_019_mesh_layer_1_vtx_cull
                0x00000000070242b0                jrb_dl_mossy_stone_018_mesh_layer_1_tri_0
                0x0000000007024318                jrb_dl_mossy_stone_018_mesh_layer_1_vtx_0
                0x0000000007024598                jrb_dl_mossy_stone_018_mesh_layer_1_vtx_cull
                0x0000000007024618                jrb_dl_mossy_stone_017_mesh_layer_1_tri_0
                0x0000000007024680                jrb_dl_mossy_stone_017_mesh_layer_1_vtx_0
                0x0000000007024900                jrb_dl_mossy_stone_017_mesh_layer_1_vtx_cull
                0x0000000007024980                jrb_dl_mossy_stone_016_mesh_layer_1_tri_0
                0x00000000070249e8                jrb_dl_mossy_stone_016_mesh_layer_1_vtx_0
                0x0000000007024c68                jrb_dl_mossy_stone_016_mesh_layer_1_vtx_cull
                0x0000000007024ce8                jrb_dl_mossy_stone_015_mesh_layer_1_tri_0
                0x0000000007024d50                jrb_dl_mossy_stone_015_mesh_layer_1_vtx_0
                0x0000000007024fd0                jrb_dl_mossy_stone_015_mesh_layer_1_vtx_cull
                0x0000000007025050                jrb_dl_mossy_stone_013_mesh_layer_1_tri_0
                0x00000000070250b8                jrb_dl_mossy_stone_013_mesh_layer_1_vtx_0
                0x0000000007025338                jrb_dl_mossy_stone_013_mesh_layer_1_vtx_cull
                0x00000000070253b8                jrb_dl_mossy_stone_012_mesh_layer_1_tri_0
                0x0000000007025420                jrb_dl_mossy_stone_012_mesh_layer_1_vtx_0
                0x00000000070256a0                jrb_dl_mossy_stone_012_mesh_layer_1_vtx_cull
                0x0000000007025720                jrb_dl_mossy_stone_011_mesh_layer_1_tri_0
                0x0000000007025788                jrb_dl_mossy_stone_011_mesh_layer_1_vtx_0
                0x0000000007025a08                jrb_dl_mossy_stone_011_mesh_layer_1_vtx_cull
                0x0000000007025a88                jrb_dl_mossy_stone_010_mesh_layer_1_tri_0
                0x0000000007025af0                jrb_dl_mossy_stone_010_mesh_layer_1_vtx_0
                0x0000000007025d70                jrb_dl_mossy_stone_010_mesh_layer_1_vtx_cull
                0x0000000007025df0                jrb_dl_mossy_stone_009_mesh_layer_1_tri_0
                0x0000000007025e58                jrb_dl_mossy_stone_009_mesh_layer_1_vtx_0
                0x00000000070260d8                jrb_dl_mossy_stone_009_mesh_layer_1_vtx_cull
                0x0000000007026158                jrb_dl_mossy_stone_008_mesh_layer_1_tri_0
                0x00000000070261c0                jrb_dl_mossy_stone_008_mesh_layer_1_vtx_0
                0x0000000007026440                jrb_dl_mossy_stone_008_mesh_layer_1_vtx_cull
                0x00000000070264c0                jrb_dl_mossy_stone_007_mesh_layer_1_tri_0
                0x0000000007026528                jrb_dl_mossy_stone_007_mesh_layer_1_vtx_0
                0x00000000070267a8                jrb_dl_mossy_stone_007_mesh_layer_1_vtx_cull
                0x0000000007026828                jrb_dl_mossy_stone_006_mesh_layer_1_tri_0
                0x0000000007026890                jrb_dl_mossy_stone_006_mesh_layer_1_vtx_0
                0x0000000007026b10                jrb_dl_mossy_stone_006_mesh_layer_1_vtx_cull
                0x0000000007026b90                jrb_dl_mossy_stone_005_mesh_layer_1_tri_0
                0x0000000007026bf8                jrb_dl_mossy_stone_005_mesh_layer_1_vtx_0
                0x0000000007026e78                jrb_dl_mossy_stone_005_mesh_layer_1_vtx_cull
                0x0000000007026ef8                jrb_dl_mossy_stone_004_mesh_layer_1_tri_0
                0x0000000007026f60                jrb_dl_mossy_stone_004_mesh_layer_1_vtx_0
                0x00000000070271e0                jrb_dl_mossy_stone_004_mesh_layer_1_vtx_cull
                0x0000000007027260                jrb_dl_mossy_stone_003_mesh_layer_1_tri_0
                0x00000000070272c8                jrb_dl_mossy_stone_003_mesh_layer_1_vtx_0
                0x0000000007027548                jrb_dl_mossy_stone_003_mesh_layer_1_vtx_cull
                0x00000000070275c8                jrb_dl_mossy_stone_002_mesh_layer_1_tri_0
                0x0000000007027630                jrb_dl_mossy_stone_002_mesh_layer_1_vtx_0
                0x00000000070278b0                jrb_dl_mossy_stone_002_mesh_layer_1_vtx_cull
                0x0000000007027930                jrb_dl_mossy_stone_001_mesh_layer_1_tri_0
                0x0000000007027998                jrb_dl_mossy_stone_001_mesh_layer_1_vtx_0
                0x0000000007027c18                jrb_dl_mossy_stone_001_mesh_layer_1_vtx_cull
                0x0000000007027c98                jrb_dl_mossy_stone_mesh_layer_1_tri_0
                0x0000000007027d00                jrb_dl_mossy_stone_mesh_layer_1_vtx_0
                0x0000000007027f80                jrb_dl_mossy_stone_mesh_layer_1_vtx_cull
                0x0000000007028000                jrb_dl_Mesh_Owl_mesh_layer_1_tri_0
                0x00000000070287c8                jrb_dl_Mesh_Owl_mesh_layer_1_vtx_0
                0x000000000702bd08                jrb_dl_Mesh_Owl_mesh_layer_1_vtx_cull
                0x000000000702bd88                jrb_dl_massive_pillar_003_mesh_layer_4_tri_0
                0x000000000702bdc8                jrb_dl_massive_pillar_003_mesh_layer_4_vtx_0
                0x000000000702bed8                jrb_dl_massive_pillar_003_mesh_layer_4_vtx_cull
                0x000000000702bf58                jrb_dl_massive_pillar_mesh_layer_1_tri_4
                0x000000000702bf70                jrb_dl_massive_pillar_mesh_layer_1_vtx_4
                0x000000000702bfb0                jrb_dl_massive_pillar_mesh_layer_1_tri_3
                0x000000000702c090                jrb_dl_massive_pillar_mesh_layer_1_vtx_3
                0x000000000702c4d0                jrb_dl_massive_pillar_mesh_layer_1_tri_2
                0x000000000702c558                jrb_dl_massive_pillar_mesh_layer_1_vtx_2
                0x000000000702c8b8                jrb_dl_massive_pillar_mesh_layer_1_tri_1
                0x000000000702c908                jrb_dl_massive_pillar_mesh_layer_1_vtx_1
                0x000000000702cb08                jrb_dl_massive_pillar_mesh_layer_1_tri_0
                0x000000000702ce08                jrb_dl_massive_pillar_mesh_layer_1_vtx_0
                0x000000000702e068                jrb_dl_massive_pillar_mesh_layer_1_vtx_cull
                0x000000000702e0e8                jrb_dl_Icosphere_015_mesh_layer_1_tri_0
                0x000000000702e6f0                jrb_dl_Icosphere_015_mesh_layer_1_vtx_0
                0x00000000070322f0                jrb_dl_Icosphere_015_mesh_layer_1_vtx_cull
                0x0000000007032370                jrb_dl_Icosphere_009_mesh_layer_1_tri_0
                0x0000000007032978                jrb_dl_Icosphere_009_mesh_layer_1_vtx_0
                0x0000000007036578                jrb_dl_Icosphere_009_mesh_layer_1_vtx_cull
                0x00000000070365f8                jrb_dl_Icosphere_008_mesh_layer_1_tri_0
                0x0000000007036c00                jrb_dl_Icosphere_008_mesh_layer_1_vtx_0
                0x000000000703a800                jrb_dl_Icosphere_008_mesh_layer_1_vtx_cull
                0x000000000703a880                jrb_dl_Icosphere_007_mesh_layer_1_tri_0
                0x000000000703ae88                jrb_dl_Icosphere_007_mesh_layer_1_vtx_0
                0x000000000703ea88                jrb_dl_Icosphere_007_mesh_layer_1_vtx_cull
                0x000000000703eb08                jrb_dl_Icosphere_006_mesh_layer_1_tri_0
                0x000000000703f110                jrb_dl_Icosphere_006_mesh_layer_1_vtx_0
                0x0000000007042d10                jrb_dl_Icosphere_006_mesh_layer_1_vtx_cull
                0x0000000007042d90                jrb_dl_Icosphere_005_mesh_layer_1_tri_0
                0x0000000007043398                jrb_dl_Icosphere_005_mesh_layer_1_vtx_0
                0x0000000007046f98                jrb_dl_Icosphere_005_mesh_layer_1_vtx_cull
                0x0000000007047018                jrb_dl_Icosphere_004_mesh_layer_1_tri_0
                0x0000000007047620                jrb_dl_Icosphere_004_mesh_layer_1_vtx_0
                0x000000000704b220                jrb_dl_Icosphere_004_mesh_layer_1_vtx_cull
                0x000000000704b2a0                jrb_dl_Icosphere_003_mesh_layer_1_tri_0
                0x000000000704b8a8                jrb_dl_Icosphere_003_mesh_layer_1_vtx_0
                0x000000000704f4a8                jrb_dl_Icosphere_003_mesh_layer_1_vtx_cull
                0x000000000704f528                jrb_dl_Icosphere_002_mesh_layer_1_tri_0
                0x000000000704fb30                jrb_dl_Icosphere_002_mesh_layer_1_vtx_0
                0x0000000007053730                jrb_dl_Icosphere_002_mesh_layer_1_vtx_cull
                0x00000000070537b0                jrb_dl_Icosphere_001_mesh_layer_1_tri_0
                0x0000000007053db8                jrb_dl_Icosphere_001_mesh_layer_1_vtx_0
                0x00000000070579b8                jrb_dl_Icosphere_001_mesh_layer_1_vtx_cull
                0x0000000007057a38                jrb_dl_Houses_SecondAge_3_Level1_004_mesh_layer_1_tri_4
                0x0000000007057a88                jrb_dl_Houses_SecondAge_3_Level1_004_mesh_layer_1_vtx_4
                0x0000000007057c58                jrb_dl_Houses_SecondAge_3_Level1_004_mesh_layer_1_tri_3
                0x0000000007057f58                jrb_dl_Houses_SecondAge_3_Level1_004_mesh_layer_1_vtx_3
                0x0000000007059458                jrb_dl_Houses_SecondAge_3_Level1_004_mesh_layer_1_tri_2
                0x00000000070597a0                jrb_dl_Houses_SecondAge_3_Level1_004_mesh_layer_1_vtx_2
                0x000000000705aea0                jrb_dl_Houses_SecondAge_3_Level1_004_mesh_layer_1_tri_1
                0x000000000705aec0                jrb_dl_Houses_SecondAge_3_Level1_004_mesh_layer_1_vtx_1
                0x000000000705af40                jrb_dl_Houses_SecondAge_3_Level1_004_mesh_layer_1_tri_0
                0x000000000705afd8                jrb_dl_Houses_SecondAge_3_Level1_004_mesh_layer_1_vtx_0
                0x000000000705b3b8                jrb_dl_Houses_SecondAge_3_Level1_004_mesh_layer_1_vtx_cull
                0x000000000705b438                jrb_dl_Houses_SecondAge_3_Level1_003_mesh_layer_1_tri_4
                0x000000000705b488                jrb_dl_Houses_SecondAge_3_Level1_003_mesh_layer_1_vtx_4
                0x000000000705b658                jrb_dl_Houses_SecondAge_3_Level1_003_mesh_layer_1_tri_3
                0x000000000705b960                jrb_dl_Houses_SecondAge_3_Level1_003_mesh_layer_1_vtx_3
                0x000000000705cea0                jrb_dl_Houses_SecondAge_3_Level1_003_mesh_layer_1_tri_2
                0x000000000705d1e0                jrb_dl_Houses_SecondAge_3_Level1_003_mesh_layer_1_vtx_2
                0x000000000705e8a0                jrb_dl_Houses_SecondAge_3_Level1_003_mesh_layer_1_tri_1
                0x000000000705e8c0                jrb_dl_Houses_SecondAge_3_Level1_003_mesh_layer_1_vtx_1
                0x000000000705e940                jrb_dl_Houses_SecondAge_3_Level1_003_mesh_layer_1_tri_0
                0x000000000705e9d8                jrb_dl_Houses_SecondAge_3_Level1_003_mesh_layer_1_vtx_0
                0x000000000705edb8                jrb_dl_Houses_SecondAge_3_Level1_003_mesh_layer_1_vtx_cull
                0x000000000705ee38                jrb_dl_Houses_SecondAge_3_Level1_002_mesh_layer_1_tri_4
                0x000000000705ee88                jrb_dl_Houses_SecondAge_3_Level1_002_mesh_layer_1_vtx_4
                0x000000000705f058                jrb_dl_Houses_SecondAge_3_Level1_002_mesh_layer_1_tri_3
                0x000000000705f358                jrb_dl_Houses_SecondAge_3_Level1_002_mesh_layer_1_vtx_3
                0x0000000007060858                jrb_dl_Houses_SecondAge_3_Level1_002_mesh_layer_1_tri_2
                0x0000000007060ba0                jrb_dl_Houses_SecondAge_3_Level1_002_mesh_layer_1_vtx_2
                0x00000000070622a0                jrb_dl_Houses_SecondAge_3_Level1_002_mesh_layer_1_tri_1
                0x00000000070622c0                jrb_dl_Houses_SecondAge_3_Level1_002_mesh_layer_1_vtx_1
                0x0000000007062340                jrb_dl_Houses_SecondAge_3_Level1_002_mesh_layer_1_tri_0
                0x00000000070623d8                jrb_dl_Houses_SecondAge_3_Level1_002_mesh_layer_1_vtx_0
                0x00000000070627b8                jrb_dl_Houses_SecondAge_3_Level1_002_mesh_layer_1_vtx_cull
                0x0000000007062838                jrb_dl_Houses_SecondAge_3_Level1_001_mesh_layer_1_tri_4
                0x0000000007062888                jrb_dl_Houses_SecondAge_3_Level1_001_mesh_layer_1_vtx_4
                0x0000000007062a58                jrb_dl_Houses_SecondAge_3_Level1_001_mesh_layer_1_tri_3
                0x0000000007062d60                jrb_dl_Houses_SecondAge_3_Level1_001_mesh_layer_1_vtx_3
                0x00000000070642a0                jrb_dl_Houses_SecondAge_3_Level1_001_mesh_layer_1_tri_2
                0x00000000070645e0                jrb_dl_Houses_SecondAge_3_Level1_001_mesh_layer_1_vtx_2
                0x0000000007065ca0                jrb_dl_Houses_SecondAge_3_Level1_001_mesh_layer_1_tri_1
                0x0000000007065cc0                jrb_dl_Houses_SecondAge_3_Level1_001_mesh_layer_1_vtx_1
                0x0000000007065d40                jrb_dl_Houses_SecondAge_3_Level1_001_mesh_layer_1_tri_0
                0x0000000007065dd8                jrb_dl_Houses_SecondAge_3_Level1_001_mesh_layer_1_vtx_0
                0x00000000070661b8                jrb_dl_Houses_SecondAge_3_Level1_001_mesh_layer_1_vtx_cull
                0x0000000007066238                jrb_dl_Houses_SecondAge_3_Level1_mesh_layer_1_tri_4
                0x0000000007066288                jrb_dl_Houses_SecondAge_3_Level1_mesh_layer_1_vtx_4
                0x0000000007066458                jrb_dl_Houses_SecondAge_3_Level1_mesh_layer_1_tri_3
                0x0000000007066758                jrb_dl_Houses_SecondAge_3_Level1_mesh_layer_1_vtx_3
                0x0000000007067c58                jrb_dl_Houses_SecondAge_3_Level1_mesh_layer_1_tri_2
                0x0000000007067fa0                jrb_dl_Houses_SecondAge_3_Level1_mesh_layer_1_vtx_2
                0x00000000070696a0                jrb_dl_Houses_SecondAge_3_Level1_mesh_layer_1_tri_1
                0x00000000070696c0                jrb_dl_Houses_SecondAge_3_Level1_mesh_layer_1_vtx_1
                0x0000000007069740                jrb_dl_Houses_SecondAge_3_Level1_mesh_layer_1_tri_0
                0x00000000070697d8                jrb_dl_Houses_SecondAge_3_Level1_mesh_layer_1_vtx_0
                0x0000000007069bb8                jrb_dl_Houses_SecondAge_3_Level1_mesh_layer_1_vtx_cull
                0x0000000007069c38                jrb_dl_Houses_SecondAge_1_Level1_001_mesh_layer_1_tri_4
                0x0000000007069cf8                jrb_dl_Houses_SecondAge_1_Level1_001_mesh_layer_1_vtx_4
                0x000000000706a1f8                jrb_dl_Houses_SecondAge_1_Level1_001_mesh_layer_1_tri_3
                0x000000000706a248                jrb_dl_Houses_SecondAge_1_Level1_001_mesh_layer_1_vtx_3
                0x000000000706a428                jrb_dl_Houses_SecondAge_1_Level1_001_mesh_layer_1_tri_2
                0x000000000706ab90                jrb_dl_Houses_SecondAge_1_Level1_001_mesh_layer_1_vtx_2
                0x000000000706dfb0                jrb_dl_Houses_SecondAge_1_Level1_001_mesh_layer_1_tri_1
                0x000000000706dff0                jrb_dl_Houses_SecondAge_1_Level1_001_mesh_layer_1_vtx_1
                0x000000000706e160                jrb_dl_Houses_SecondAge_1_Level1_001_mesh_layer_1_tri_0
                0x000000000706e180                jrb_dl_Houses_SecondAge_1_Level1_001_mesh_layer_1_vtx_0
                0x000000000706e200                jrb_dl_Houses_SecondAge_1_Level1_001_mesh_layer_1_vtx_cull
                0x000000000706e280                jrb_dl_flowers_003_mesh_layer_5_tri_0
                0x000000000706e318                jrb_dl_flowers_003_mesh_layer_5_vtx_0
                0x000000000706e618                jrb_dl_flowers_003_mesh_layer_5_vtx_cull
                0x000000000706e698                jrb_dl_flowers_003_mesh_layer_4_tri_0
                0x000000000706e6e8                jrb_dl_flowers_003_mesh_layer_4_vtx_0
                0x000000000706e848                jrb_dl_flowers_003_mesh_layer_4_vtx_cull
                0x000000000706e8c8                jrb_dl_flowers_002_mesh_layer_5_tri_0
                0x000000000706e978                jrb_dl_flowers_002_mesh_layer_5_vtx_0
                0x000000000706ecb8                jrb_dl_flowers_002_mesh_layer_5_vtx_cull
                0x000000000706ed38                jrb_dl_flowers_002_mesh_layer_4_tri_0
                0x000000000706ed88                jrb_dl_flowers_002_mesh_layer_4_vtx_0
                0x000000000706ef28                jrb_dl_flowers_002_mesh_layer_4_vtx_cull
                0x000000000706efa8                jrb_dl_flowers_001_mesh_layer_5_tri_0
                0x000000000706f040                jrb_dl_flowers_001_mesh_layer_5_vtx_0
                0x000000000706f340                jrb_dl_flowers_001_mesh_layer_5_vtx_cull
                0x000000000706f3c0                jrb_dl_flowers_001_mesh_layer_4_tri_0
                0x000000000706f410                jrb_dl_flowers_001_mesh_layer_4_vtx_0
                0x000000000706f570                jrb_dl_flowers_001_mesh_layer_4_vtx_cull
                0x000000000706f5f0                jrb_dl_flowers_mesh_layer_5_tri_0
                0x000000000706f688                jrb_dl_flowers_mesh_layer_5_vtx_0
                0x000000000706f988                jrb_dl_flowers_mesh_layer_5_vtx_cull
                0x000000000706fa08                jrb_dl_flowers_mesh_layer_4_tri_0
                0x000000000706fa58                jrb_dl_flowers_mesh_layer_4_vtx_0
                0x000000000706fbb8                jrb_dl_flowers_mesh_layer_4_vtx_cull
                0x000000000706fc38                jrb_dl_death_plane_mesh_layer_1_tri_0
                0x000000000706fc50                jrb_dl_death_plane_mesh_layer_1_vtx_0
                0x000000000706fc90                jrb_dl_death_plane_mesh_layer_1_vtx_cull
                0x000000000706fd10                jrb_dl_Cylinder_007_mesh_layer_1_tri_1
                0x000000000706fe48                jrb_dl_Cylinder_007_mesh_layer_1_vtx_1
                0x0000000007070478                jrb_dl_Cylinder_007_mesh_layer_1_tri_0
                0x00000000070705b0                jrb_dl_Cylinder_007_mesh_layer_1_vtx_0
                0x0000000007070c00                jrb_dl_Cylinder_007_mesh_layer_1_vtx_cull
                0x0000000007070c80                jrb_dl_Cylinder_006_mesh_layer_1_tri_1
                0x0000000007070d10                jrb_dl_Cylinder_006_mesh_layer_1_vtx_1
                0x0000000007071000                jrb_dl_Cylinder_006_mesh_layer_1_tri_0
                0x0000000007071090                jrb_dl_Cylinder_006_mesh_layer_1_vtx_0
                0x0000000007071390                jrb_dl_Cylinder_006_mesh_layer_1_vtx_cull
                0x0000000007071410                jrb_dl_Cylinder_005_mesh_layer_1_tri_1
                0x00000000070717d0                jrb_dl_Cylinder_005_mesh_layer_1_vtx_1
                0x0000000007072ab0                jrb_dl_Cylinder_005_mesh_layer_1_tri_0
                0x0000000007072e48                jrb_dl_Cylinder_005_mesh_layer_1_vtx_0
                0x0000000007074028                jrb_dl_Cylinder_005_mesh_layer_1_vtx_cull
                0x00000000070740a8                jrb_dl_Cylinder_004_mesh_layer_1_tri_1
                0x0000000007074450                jrb_dl_Cylinder_004_mesh_layer_1_vtx_1
                0x00000000070756a0                jrb_dl_Cylinder_004_mesh_layer_1_tri_0
                0x0000000007075a10                jrb_dl_Cylinder_004_mesh_layer_1_vtx_0
                0x0000000007076bb0                jrb_dl_Cylinder_004_mesh_layer_1_vtx_cull
                0x0000000007076c30                jrb_dl_Cylinder_003_mesh_layer_1_tri_1
                0x0000000007076cb8                jrb_dl_Cylinder_003_mesh_layer_1_vtx_1
                0x0000000007076eb8                jrb_dl_Cylinder_003_mesh_layer_1_tri_0
                0x0000000007077060                jrb_dl_Cylinder_003_mesh_layer_1_vtx_0
                0x0000000007077a60                jrb_dl_Cylinder_003_mesh_layer_1_vtx_cull
                0x0000000007077ae0                jrb_dl_Cylinder_002_mesh_layer_1_tri_1
                0x0000000007077b68                jrb_dl_Cylinder_002_mesh_layer_1_vtx_1
                0x0000000007077d68                jrb_dl_Cylinder_002_mesh_layer_1_tri_0
                0x0000000007077f10                jrb_dl_Cylinder_002_mesh_layer_1_vtx_0
                0x0000000007078910                jrb_dl_Cylinder_002_mesh_layer_1_vtx_cull
                0x0000000007078990                jrb_dl_Cylinder_001_mesh_layer_6_tri_0
                0x00000000070789e8                jrb_dl_Cylinder_001_mesh_layer_6_vtx_0
                0x0000000007078ad8                jrb_dl_Cylinder_001_mesh_layer_6_vtx_cull
                0x0000000007078b58                jrb_dl_Cylinder_mesh_layer_1_tri_2
                0x0000000007078be8                jrb_dl_Cylinder_mesh_layer_1_vtx_2
                0x0000000007078fa8                jrb_dl_Cylinder_mesh_layer_1_tri_1
                0x0000000007079130                jrb_dl_Cylinder_mesh_layer_1_vtx_1
                0x0000000007079a60                jrb_dl_Cylinder_mesh_layer_1_tri_0
                0x0000000007079b28                jrb_dl_Cylinder_mesh_layer_1_vtx_0
                0x0000000007079e38                jrb_dl_Cylinder_mesh_layer_1_vtx_cull
                0x0000000007079eb8                jrb_dl_Cube_070_mesh_layer_1_tri_1
                0x0000000007079ee8                jrb_dl_Cube_070_mesh_layer_1_vtx_1
                0x0000000007079fe8                jrb_dl_Cube_070_mesh_layer_1_tri_0
                0x000000000707a008                jrb_dl_Cube_070_mesh_layer_1_vtx_0
                0x000000000707a088                jrb_dl_Cube_070_mesh_layer_1_vtx_cull
                0x000000000707a108                jrb_dl_Cube_069_mesh_layer_6_tri_0
                0x000000000707a180                jrb_dl_Cube_069_mesh_layer_6_vtx_0
                0x000000000707a2c0                jrb_dl_Cube_069_mesh_layer_6_vtx_cull
                0x000000000707a340                jrb_dl_Cube_068_mesh_layer_6_tri_0
                0x000000000707a408                jrb_dl_Cube_068_mesh_layer_6_vtx_0
                0x000000000707a608                jrb_dl_Cube_068_mesh_layer_6_vtx_cull
                0x000000000707a688                jrb_dl_Cube_067_mesh_layer_6_tri_0
                0x000000000707a730                jrb_dl_Cube_067_mesh_layer_6_vtx_0
                0x000000000707a8f0                jrb_dl_Cube_067_mesh_layer_6_vtx_cull
                0x000000000707a970                jrb_dl_Cube_066_mesh_layer_6_tri_0
                0x000000000707aa38                jrb_dl_Cube_066_mesh_layer_6_vtx_0
                0x000000000707ac38                jrb_dl_Cube_066_mesh_layer_6_vtx_cull
                0x000000000707acb8                jrb_dl_Cube_065_mesh_layer_6_tri_0
                0x000000000707ad80                jrb_dl_Cube_065_mesh_layer_6_vtx_0
                0x000000000707af80                jrb_dl_Cube_065_mesh_layer_6_vtx_cull
                0x000000000707b000                jrb_dl_Cube_064_mesh_layer_1_tri_5
                0x000000000707b058                jrb_dl_Cube_064_mesh_layer_1_vtx_5
                0x000000000707b358                jrb_dl_Cube_064_mesh_layer_1_tri_4
                0x000000000707b398                jrb_dl_Cube_064_mesh_layer_1_vtx_4
                0x000000000707b518                jrb_dl_Cube_064_mesh_layer_1_tri_3
                0x000000000707b558                jrb_dl_Cube_064_mesh_layer_1_vtx_3
                0x000000000707b6d8                jrb_dl_Cube_064_mesh_layer_1_tri_2
                0x000000000707b740                jrb_dl_Cube_064_mesh_layer_1_vtx_2
                0x000000000707b9c0                jrb_dl_Cube_064_mesh_layer_1_tri_1
                0x000000000707bba0                jrb_dl_Cube_064_mesh_layer_1_vtx_1
                0x000000000707c820                jrb_dl_Cube_064_mesh_layer_1_tri_0
                0x000000000707ccd0                jrb_dl_Cube_064_mesh_layer_1_vtx_0
                0x000000000707f0d0                jrb_dl_Cube_064_mesh_layer_1_vtx_cull
                0x000000000707f150                jrb_dl_Cube_063_mesh_layer_6_tri_0
                0x000000000707f218                jrb_dl_Cube_063_mesh_layer_6_vtx_0
                0x000000000707f418                jrb_dl_Cube_063_mesh_layer_6_vtx_cull
                0x000000000707f498                jrb_dl_Cube_062_mesh_layer_1_tri_0
                0x000000000707f660                jrb_dl_Cube_062_mesh_layer_1_vtx_0
                0x0000000007080220                jrb_dl_Cube_062_mesh_layer_1_vtx_cull
                0x00000000070802a0                jrb_dl_Cube_061_mesh_layer_6_tri_0
                0x0000000007080368                jrb_dl_Cube_061_mesh_layer_6_vtx_0
                0x0000000007080568                jrb_dl_Cube_061_mesh_layer_6_vtx_cull
                0x00000000070805e8                jrb_dl_Cube_060_mesh_layer_6_tri_0
                0x00000000070806b0                jrb_dl_Cube_060_mesh_layer_6_vtx_0
                0x00000000070808b0                jrb_dl_Cube_060_mesh_layer_6_vtx_cull
                0x0000000007080930                jrb_dl_Cube_059_mesh_layer_6_tri_0
                0x00000000070809f8                jrb_dl_Cube_059_mesh_layer_6_vtx_0
                0x0000000007080bf8                jrb_dl_Cube_059_mesh_layer_6_vtx_cull
                0x0000000007080c78                jrb_dl_Cube_058_mesh_layer_1_tri_0
                0x0000000007080e40                jrb_dl_Cube_058_mesh_layer_1_vtx_0
                0x0000000007081a00                jrb_dl_Cube_058_mesh_layer_1_vtx_cull
                0x0000000007081a80                jrb_dl_Cube_057_mesh_layer_6_tri_0
                0x0000000007081b48                jrb_dl_Cube_057_mesh_layer_6_vtx_0
                0x0000000007081d48                jrb_dl_Cube_057_mesh_layer_6_vtx_cull
                0x0000000007081dc8                jrb_dl_Cube_056_mesh_layer_1_tri_1
                0x0000000007081de0                jrb_dl_Cube_056_mesh_layer_1_vtx_1
                0x0000000007081e20                jrb_dl_Cube_056_mesh_layer_1_tri_0
                0x0000000007081e58                jrb_dl_Cube_056_mesh_layer_1_vtx_0
                0x0000000007081f98                jrb_dl_Cube_056_mesh_layer_1_vtx_cull
                0x0000000007082018                jrb_dl_Cube_055_mesh_layer_1_tri_0
                0x0000000007082058                jrb_dl_Cube_055_mesh_layer_1_vtx_0
                0x00000000070821d8                jrb_dl_Cube_055_mesh_layer_1_vtx_cull
                0x0000000007082258                jrb_dl_Cube_054_mesh_layer_6_tri_0
                0x0000000007082320                jrb_dl_Cube_054_mesh_layer_6_vtx_0
                0x0000000007082520                jrb_dl_Cube_054_mesh_layer_6_vtx_cull
                0x00000000070825a0                jrb_dl_Cube_053_mesh_layer_6_tri_0
                0x0000000007082668                jrb_dl_Cube_053_mesh_layer_6_vtx_0
                0x0000000007082868                jrb_dl_Cube_053_mesh_layer_6_vtx_cull
                0x00000000070828e8                jrb_dl_Cube_051_mesh_layer_1_tri_0
                0x0000000007082ab0                jrb_dl_Cube_051_mesh_layer_1_vtx_0
                0x0000000007083670                jrb_dl_Cube_051_mesh_layer_1_vtx_cull
                0x00000000070836f0                jrb_dl_Cube_050_mesh_layer_1_tri_1
                0x0000000007083768                jrb_dl_Cube_050_mesh_layer_1_vtx_1
                0x0000000007083a38                jrb_dl_Cube_050_mesh_layer_1_tri_0
                0x0000000007083ab0                jrb_dl_Cube_050_mesh_layer_1_vtx_0
                0x0000000007083d80                jrb_dl_Cube_050_mesh_layer_1_vtx_cull
                0x0000000007083e00                jrb_dl_Cube_049_mesh_layer_1_tri_1
                0x0000000007083f08                jrb_dl_Cube_049_mesh_layer_1_vtx_1
                0x0000000007084598                jrb_dl_Cube_049_mesh_layer_1_tri_0
                0x0000000007084658                jrb_dl_Cube_049_mesh_layer_1_vtx_0
                0x0000000007084af8                jrb_dl_Cube_049_mesh_layer_1_vtx_cull
                0x0000000007084b78                jrb_dl_Cube_048_mesh_layer_1_tri_0
                0x0000000007084bb8                jrb_dl_Cube_048_mesh_layer_1_vtx_0
                0x0000000007084d38                jrb_dl_Cube_048_mesh_layer_1_vtx_cull
                0x0000000007084db8                jrb_dl_Cube_047_mesh_layer_1_tri_0
                0x0000000007084df8                jrb_dl_Cube_047_mesh_layer_1_vtx_0
                0x0000000007084f78                jrb_dl_Cube_047_mesh_layer_1_vtx_cull
                0x0000000007084ff8                jrb_dl_Cube_046_mesh_layer_6_tri_0
                0x00000000070850c0                jrb_dl_Cube_046_mesh_layer_6_vtx_0
                0x00000000070852c0                jrb_dl_Cube_046_mesh_layer_6_vtx_cull
                0x0000000007085340                jrb_dl_Cube_045_mesh_layer_1_tri_1
                0x0000000007085370                jrb_dl_Cube_045_mesh_layer_1_vtx_1
                0x0000000007085470                jrb_dl_Cube_045_mesh_layer_1_tri_0
                0x0000000007085490                jrb_dl_Cube_045_mesh_layer_1_vtx_0
                0x0000000007085510                jrb_dl_Cube_045_mesh_layer_1_vtx_cull
                0x0000000007085590                jrb_dl_Cube_044_mesh_layer_1_tri_1
                0x0000000007085630                jrb_dl_Cube_044_mesh_layer_1_vtx_1
                0x0000000007085900                jrb_dl_Cube_044_mesh_layer_1_tri_0
                0x0000000007085a20                jrb_dl_Cube_044_mesh_layer_1_vtx_0
                0x0000000007085f00                jrb_dl_Cube_044_mesh_layer_1_vtx_cull
                0x0000000007085f80                jrb_dl_Cube_043_mesh_layer_1_tri_0
                0x0000000007085fb0                jrb_dl_Cube_043_mesh_layer_1_vtx_0
                0x00000000070860d0                jrb_dl_Cube_043_mesh_layer_1_vtx_cull
                0x0000000007086150                jrb_dl_Cube_042_mesh_layer_1_tri_1
                0x0000000007086248                jrb_dl_Cube_042_mesh_layer_1_vtx_1
                0x0000000007086768                jrb_dl_Cube_042_mesh_layer_1_tri_0
                0x0000000007086908                jrb_dl_Cube_042_mesh_layer_1_vtx_0
                0x0000000007087138                jrb_dl_Cube_042_mesh_layer_1_vtx_cull
                0x00000000070871b8                jrb_dl_Cube_041_mesh_layer_1_tri_0
                0x00000000070871f8                jrb_dl_Cube_041_mesh_layer_1_vtx_0
                0x0000000007087378                jrb_dl_Cube_041_mesh_layer_1_vtx_cull
                0x00000000070873f8                jrb_dl_Cube_040_mesh_layer_1_tri_0
                0x0000000007087438                jrb_dl_Cube_040_mesh_layer_1_vtx_0
                0x00000000070875b8                jrb_dl_Cube_040_mesh_layer_1_vtx_cull
                0x0000000007087638                jrb_dl_Cube_039_mesh_layer_1_tri_0
                0x0000000007087668                jrb_dl_Cube_039_mesh_layer_1_vtx_0
                0x0000000007087788                jrb_dl_Cube_039_mesh_layer_1_vtx_cull
                0x0000000007087808                jrb_dl_Cube_038_mesh_layer_5_tri_0
                0x0000000007087828                jrb_dl_Cube_038_mesh_layer_5_vtx_0
                0x0000000007087888                jrb_dl_Cube_038_mesh_layer_5_vtx_cull
                0x0000000007087908                jrb_dl_Cube_037_mesh_layer_1_tri_0
                0x0000000007087948                jrb_dl_Cube_037_mesh_layer_1_vtx_0
                0x0000000007087ac8                jrb_dl_Cube_037_mesh_layer_1_vtx_cull
                0x0000000007087b48                jrb_dl_Cube_036_mesh_layer_1_tri_1
                0x0000000007087b78                jrb_dl_Cube_036_mesh_layer_1_vtx_1
                0x0000000007087c78                jrb_dl_Cube_036_mesh_layer_1_tri_0
                0x0000000007087c98                jrb_dl_Cube_036_mesh_layer_1_vtx_0
                0x0000000007087d18                jrb_dl_Cube_036_mesh_layer_1_vtx_cull
                0x0000000007087d98                jrb_dl_Cube_035_mesh_layer_5_tri_0
                0x0000000007087dd8                jrb_dl_Cube_035_mesh_layer_5_vtx_0
                0x0000000007087f58                jrb_dl_Cube_035_mesh_layer_5_vtx_cull
                0x0000000007087fd8                jrb_dl_Cube_035_mesh_layer_4_tri_0
                0x0000000007088018                jrb_dl_Cube_035_mesh_layer_4_vtx_0
                0x0000000007088198                jrb_dl_Cube_035_mesh_layer_4_vtx_cull
                0x0000000007088218                jrb_dl_Cube_035_mesh_layer_1_tri_9
                0x0000000007089180                jrb_dl_Cube_035_mesh_layer_1_vtx_9
                0x000000000708fc70                jrb_dl_Cube_035_mesh_layer_1_tri_8
                0x000000000708fe40                jrb_dl_Cube_035_mesh_layer_1_vtx_8
                0x0000000007090900                jrb_dl_Cube_035_mesh_layer_1_tri_7
                0x0000000007090930                jrb_dl_Cube_035_mesh_layer_1_vtx_7
                0x0000000007090a20                jrb_dl_Cube_035_mesh_layer_1_tri_6
                0x0000000007090bb0                jrb_dl_Cube_035_mesh_layer_1_vtx_6
                0x0000000007091490                jrb_dl_Cube_035_mesh_layer_1_tri_5
                0x0000000007091540                jrb_dl_Cube_035_mesh_layer_1_vtx_5
                0x00000000070919c0                jrb_dl_Cube_035_mesh_layer_1_tri_4
                0x0000000007091cf8                jrb_dl_Cube_035_mesh_layer_1_vtx_4
                0x0000000007093378                jrb_dl_Cube_035_mesh_layer_1_tri_3
                0x00000000070933b0                jrb_dl_Cube_035_mesh_layer_1_vtx_3
                0x00000000070934c0                jrb_dl_Cube_035_mesh_layer_1_tri_2
                0x0000000007093500                jrb_dl_Cube_035_mesh_layer_1_vtx_2
                0x0000000007093680                jrb_dl_Cube_035_mesh_layer_1_tri_1
                0x0000000007093860                jrb_dl_Cube_035_mesh_layer_1_vtx_1
                0x00000000070942f0                jrb_dl_Cube_035_mesh_layer_1_tri_0
                0x0000000007094350                jrb_dl_Cube_035_mesh_layer_1_vtx_0
                0x0000000007094510                jrb_dl_Cube_035_mesh_layer_1_vtx_cull
                0x0000000007094590                jrb_dl_Cube_034_mesh_layer_1_tri_1
                0x00000000070945a8                jrb_dl_Cube_034_mesh_layer_1_vtx_1
                0x00000000070945e8                jrb_dl_Cube_034_mesh_layer_1_tri_0
                0x0000000007094620                jrb_dl_Cube_034_mesh_layer_1_vtx_0
                0x0000000007094760                jrb_dl_Cube_034_mesh_layer_1_vtx_cull
                0x00000000070947e0                jrb_dl_Cube_033_mesh_layer_6_tri_0
                0x00000000070948a8                jrb_dl_Cube_033_mesh_layer_6_vtx_0
                0x0000000007094aa8                jrb_dl_Cube_033_mesh_layer_6_vtx_cull
                0x0000000007094b28                jrb_dl_Cube_032_mesh_layer_1_tri_0
                0x0000000007094ba0                jrb_dl_Cube_032_mesh_layer_1_vtx_0
                0x0000000007094ea0                jrb_dl_Cube_032_mesh_layer_1_vtx_cull
                0x0000000007094f20                jrb_dl_Cube_031_mesh_layer_1_tri_1
                0x0000000007094f50                jrb_dl_Cube_031_mesh_layer_1_vtx_1
                0x0000000007095050                jrb_dl_Cube_031_mesh_layer_1_tri_0
                0x0000000007095070                jrb_dl_Cube_031_mesh_layer_1_vtx_0
                0x00000000070950f0                jrb_dl_Cube_031_mesh_layer_1_vtx_cull
                0x0000000007095170                jrb_dl_Cube_030_mesh_layer_1_tri_0
                0x0000000007095338                jrb_dl_Cube_030_mesh_layer_1_vtx_0
                0x0000000007095ef8                jrb_dl_Cube_030_mesh_layer_1_vtx_cull
                0x0000000007095f78                jrb_dl_Cube_029_mesh_layer_1_tri_0
                0x0000000007096140                jrb_dl_Cube_029_mesh_layer_1_vtx_0
                0x0000000007096d00                jrb_dl_Cube_029_mesh_layer_1_vtx_cull
                0x0000000007096d80                jrb_dl_Cube_028_mesh_layer_1_tri_0
                0x0000000007096f48                jrb_dl_Cube_028_mesh_layer_1_vtx_0
                0x0000000007097b08                jrb_dl_Cube_028_mesh_layer_1_vtx_cull
                0x0000000007097b88                jrb_dl_Cube_027_mesh_layer_6_tri_0
                0x0000000007097c50                jrb_dl_Cube_027_mesh_layer_6_vtx_0
                0x0000000007097e50                jrb_dl_Cube_027_mesh_layer_6_vtx_cull
                0x0000000007097ed0                jrb_dl_Cube_026_mesh_layer_1_tri_1
                0x0000000007097f00                jrb_dl_Cube_026_mesh_layer_1_vtx_1
                0x0000000007098000                jrb_dl_Cube_026_mesh_layer_1_tri_0
                0x0000000007098020                jrb_dl_Cube_026_mesh_layer_1_vtx_0
                0x00000000070980a0                jrb_dl_Cube_026_mesh_layer_1_vtx_cull
                0x0000000007098120                jrb_dl_Cube_024_mesh_layer_1_tri_1
                0x0000000007098150                jrb_dl_Cube_024_mesh_layer_1_vtx_1
                0x0000000007098250                jrb_dl_Cube_024_mesh_layer_1_tri_0
                0x0000000007098270                jrb_dl_Cube_024_mesh_layer_1_vtx_0
                0x00000000070982f0                jrb_dl_Cube_024_mesh_layer_1_vtx_cull
                0x0000000007098370                jrb_dl_Cube_023_mesh_layer_5_tri_1
                0x0000000007098388                jrb_dl_Cube_023_mesh_layer_5_vtx_1
                0x00000000070983c8                jrb_dl_Cube_023_mesh_layer_5_tri_0
                0x0000000007098448                jrb_dl_Cube_023_mesh_layer_5_vtx_0
                0x0000000007098788                jrb_dl_Cube_023_mesh_layer_5_vtx_cull
                0x0000000007098808                jrb_dl_Cube_022_mesh_layer_6_tri_0
                0x0000000007098840                jrb_dl_Cube_022_mesh_layer_6_vtx_0
                0x00000000070988d0                jrb_dl_Cube_022_mesh_layer_6_vtx_cull
                0x0000000007098950                jrb_dl_Cube_021_mesh_layer_1_tri_1
                0x0000000007098980                jrb_dl_Cube_021_mesh_layer_1_vtx_1
                0x0000000007098a80                jrb_dl_Cube_021_mesh_layer_1_tri_0
                0x0000000007098aa0                jrb_dl_Cube_021_mesh_layer_1_vtx_0
                0x0000000007098b20                jrb_dl_Cube_021_mesh_layer_1_vtx_cull
                0x0000000007098ba0                jrb_dl_Cube_020_mesh_layer_5_tri_0
                0x0000000007098c28                jrb_dl_Cube_020_mesh_layer_5_vtx_0
                0x0000000007098f28                jrb_dl_Cube_020_mesh_layer_5_vtx_cull
                0x0000000007098fa8                jrb_dl_Cube_019_mesh_layer_1_tri_3
                0x0000000007098fe0                jrb_dl_Cube_019_mesh_layer_1_vtx_3
                0x0000000007099120                jrb_dl_Cube_019_mesh_layer_1_tri_2
                0x0000000007099158                jrb_dl_Cube_019_mesh_layer_1_vtx_2
                0x0000000007099218                jrb_dl_Cube_019_mesh_layer_1_tri_1
                0x0000000007099260                jrb_dl_Cube_019_mesh_layer_1_vtx_1
                0x00000000070993c0                jrb_dl_Cube_019_mesh_layer_1_tri_0
                0x00000000070993f8                jrb_dl_Cube_019_mesh_layer_1_vtx_0
                0x00000000070994f8                jrb_dl_Cube_019_mesh_layer_1_vtx_cull
                0x0000000007099578                jrb_dl_Cube_018_mesh_layer_5_tri_1
                0x0000000007099598                jrb_dl_Cube_018_mesh_layer_5_vtx_1
                0x0000000007099618                jrb_dl_Cube_018_mesh_layer_5_tri_0
                0x0000000007099690                jrb_dl_Cube_018_mesh_layer_5_vtx_0
                0x0000000007099990                jrb_dl_Cube_018_mesh_layer_5_vtx_cull
                0x0000000007099a10                jrb_dl_Cube_017_mesh_layer_1_tri_0
                0x0000000007099bd8                jrb_dl_Cube_017_mesh_layer_1_vtx_0
                0x000000000709a798                jrb_dl_Cube_017_mesh_layer_1_vtx_cull
                0x000000000709a818                jrb_dl_Cube_016_mesh_layer_1_tri_0
                0x000000000709a858                jrb_dl_Cube_016_mesh_layer_1_vtx_0
                0x000000000709a9d8                jrb_dl_Cube_016_mesh_layer_1_vtx_cull
                0x000000000709aa58                jrb_dl_Cube_015_mesh_layer_1_tri_1
                0x000000000709aa70                jrb_dl_Cube_015_mesh_layer_1_vtx_1
                0x000000000709aab0                jrb_dl_Cube_015_mesh_layer_1_tri_0
                0x000000000709aae8                jrb_dl_Cube_015_mesh_layer_1_vtx_0
                0x000000000709ac28                jrb_dl_Cube_015_mesh_layer_1_vtx_cull
                0x000000000709aca8                jrb_dl_Cube_014_mesh_layer_1_tri_0
                0x000000000709ad10                jrb_dl_Cube_014_mesh_layer_1_vtx_0
                0x000000000709af90                jrb_dl_Cube_014_mesh_layer_1_vtx_cull
                0x000000000709b010                jrb_dl_Cube_013_mesh_layer_1_tri_4
                0x000000000709b060                jrb_dl_Cube_013_mesh_layer_1_vtx_4
                0x000000000709b180                jrb_dl_Cube_013_mesh_layer_1_tri_3
                0x000000000709b300                jrb_dl_Cube_013_mesh_layer_1_vtx_3
                0x000000000709bbf0                jrb_dl_Cube_013_mesh_layer_1_tri_2
                0x000000000709bc38                jrb_dl_Cube_013_mesh_layer_1_vtx_2
                0x000000000709bd78                jrb_dl_Cube_013_mesh_layer_1_tri_1
                0x000000000709bf48                jrb_dl_Cube_013_mesh_layer_1_vtx_1
                0x000000000709caf8                jrb_dl_Cube_013_mesh_layer_1_tri_0
                0x000000000709d028                jrb_dl_Cube_013_mesh_layer_1_vtx_0
                0x000000000709e6c8                jrb_dl_Cube_013_mesh_layer_1_vtx_cull
                0x000000000709e748                jrb_dl_Cube_012_mesh_layer_1_tri_1
                0x000000000709e760                jrb_dl_Cube_012_mesh_layer_1_vtx_1
                0x000000000709e7a0                jrb_dl_Cube_012_mesh_layer_1_tri_0
                0x000000000709e7f8                jrb_dl_Cube_012_mesh_layer_1_vtx_0
                0x000000000709e9b8                jrb_dl_Cube_012_mesh_layer_1_vtx_cull
                0x000000000709ea38                jrb_dl_Cube_011_mesh_layer_1_tri_0
                0x000000000709ea78                jrb_dl_Cube_011_mesh_layer_1_vtx_0
                0x000000000709ebf8                jrb_dl_Cube_011_mesh_layer_1_vtx_cull
                0x000000000709ec78                jrb_dl_Cube_010_mesh_layer_5_tri_0
                0x000000000709ecc8                jrb_dl_Cube_010_mesh_layer_5_vtx_0
                0x000000000709ede8                jrb_dl_Cube_010_mesh_layer_5_vtx_cull
                0x000000000709ee68                jrb_dl_Cube_009_mesh_layer_1_tri_0
                0x000000000709eea8                jrb_dl_Cube_009_mesh_layer_1_vtx_0
                0x000000000709f028                jrb_dl_Cube_009_mesh_layer_1_vtx_cull
                0x000000000709f0a8                jrb_dl_Cube_008_mesh_layer_5_tri_0
                0x000000000709f0f0                jrb_dl_Cube_008_mesh_layer_5_vtx_0
                0x000000000709f210                jrb_dl_Cube_008_mesh_layer_5_vtx_cull
                0x000000000709f290                jrb_dl_Cube_007_mesh_layer_1_tri_0
                0x000000000709f458                jrb_dl_Cube_007_mesh_layer_1_vtx_0
                0x00000000070a0018                jrb_dl_Cube_007_mesh_layer_1_vtx_cull
                0x00000000070a0098                jrb_dl_Cube_006_mesh_layer_1_tri_0
                0x00000000070a0260                jrb_dl_Cube_006_mesh_layer_1_vtx_0
                0x00000000070a0e20                jrb_dl_Cube_006_mesh_layer_1_vtx_cull
                0x00000000070a0ea0                jrb_dl_Cube_005_mesh_layer_1_tri_0
                0x00000000070a1068                jrb_dl_Cube_005_mesh_layer_1_vtx_0
                0x00000000070a1c28                jrb_dl_Cube_005_mesh_layer_1_vtx_cull
                0x00000000070a1ca8                jrb_dl_Cube_004_mesh_layer_1_tri_0
                0x00000000070a1ce8                jrb_dl_Cube_004_mesh_layer_1_vtx_0
                0x00000000070a1e68                jrb_dl_Cube_004_mesh_layer_1_vtx_cull
                0x00000000070a1ee8                jrb_dl_Cube_003_mesh_layer_1_tri_0
                0x00000000070a1fb8                jrb_dl_Cube_003_mesh_layer_1_vtx_0
                0x00000000070a2478                jrb_dl_Cube_003_mesh_layer_1_vtx_cull
                0x00000000070a24f8                jrb_dl_Cube_002_mesh_layer_1_tri_0
                0x00000000070a2610                jrb_dl_Cube_002_mesh_layer_1_vtx_0
                0x00000000070a2d90                jrb_dl_Cube_002_mesh_layer_1_vtx_cull
                0x00000000070a2e10                jrb_dl_Cube_001_mesh_layer_5_tri_0
                0x00000000070a2e50                jrb_dl_Cube_001_mesh_layer_5_vtx_0
                0x00000000070a2fd0                jrb_dl_Cube_001_mesh_layer_5_vtx_cull
                0x00000000070a3050                jrb_dl_Cube_mesh_layer_1_tri_4
                0x00000000070a30a0                jrb_dl_Cube_mesh_layer_1_vtx_4
                0x00000000070a3200                jrb_dl_Cube_mesh_layer_1_tri_3
                0x00000000070a3248                jrb_dl_Cube_mesh_layer_1_vtx_3
                0x00000000070a33c8                jrb_dl_Cube_mesh_layer_1_tri_2
                0x00000000070a33e8                jrb_dl_Cube_mesh_layer_1_vtx_2
                0x00000000070a3438                jrb_dl_Cube_mesh_layer_1_tri_1
                0x00000000070a3558                jrb_dl_Cube_mesh_layer_1_vtx_1
                0x00000000070a3c88                jrb_dl_Cube_mesh_layer_1_tri_0
                0x00000000070a3dd0                jrb_dl_Cube_mesh_layer_1_vtx_0
                0x00000000070a4460                jrb_dl_Cube_mesh_layer_1_vtx_cull
                0x00000000070a44e0                jrb_dl_bridge_mesh_layer_1_tri_0
                0x00000000070a4618                jrb_dl_bridge_mesh_layer_1_vtx_0
                0x00000000070a4b88                jrb_dl_bridge_mesh_layer_1_vtx_cull
                0x00000000070a4c08                jrb_dl_Alpha_002_mesh_layer_6_tri_0
                0x00000000070a4c50                jrb_dl_Alpha_002_mesh_layer_6_vtx_0
                0x00000000070a4de0                jrb_dl_Alpha_002_mesh_layer_6_vtx_cull
                0x00000000070a4e60                jrb_dl_Alpha_001_mesh_layer_6_tri_0
                0x00000000070a5018                jrb_dl_Alpha_001_mesh_layer_6_vtx_0
                0x00000000070a5ac8                jrb_dl_Alpha_001_mesh_layer_6_vtx_cull
                0x00000000070a5b48                jrb_dl_Alpha_mesh_layer_1_tri_2
                0x00000000070a5bc0                jrb_dl_Alpha_mesh_layer_1_vtx_2
                0x00000000070a5ec0                jrb_dl_Alpha_mesh_layer_1_tri_1
                0x00000000070a5fa8                jrb_dl_Alpha_mesh_layer_1_vtx_1
                0x00000000070a6568                jrb_dl_Alpha_mesh_layer_1_tri_0
                0x00000000070a6900                jrb_dl_Alpha_mesh_layer_1_vtx_0
                0x00000000070a7db0                jrb_dl_Alpha_mesh_layer_1_vtx_cull
                0x00000000070a7e30                jrb_dl_grate_pal_rgba16
                0x00000000070a7f18                jrb_dl_grate_pal_rgba16_aligner
                0x00000000070a7f20                jrb_dl_grate_ci8
                0x00000000070a8320                jrb_dl_grate_ci8_aligner
                0x00000000070a8328                jrb_dl_rgba16_anonmoose_GreenishSquare_pal_rgba16
                0x00000000070a8350                jrb_dl_rgba16_anonmoose_GreenishSquare_pal_rgba16_aligner
                0x00000000070a8358                jrb_dl_rgba16_anonmoose_GreenishSquare_ci8
                0x00000000070a8758                jrb_dl_rgba16_anonmoose_GreenishSquare_ci8_aligner
                0x00000000070a8760                jrb_dl_flower_pal_rgba16_copy
                0x00000000070a87c0                jrb_dl_flower_pal_rgba16_copy_aligner
                0x00000000070a87c8                jrb_dl_flower_ci8_copy
                0x00000000070a8bc8                jrb_dl_flower_ci8_copy_aligner
                0x00000000070a8bd0                jrb_dl__7_pal_rgba16
                0x00000000070a8c90                jrb_dl__7_pal_rgba16_aligner
                0x00000000070a8c98                jrb_dl__7_ci8
                0x00000000070a9098                jrb_dl__7_ci8_aligner
                0x00000000070a90a0                jrb_dl_flower_pal_rgba16
                0x00000000070a9100                jrb_dl_flower_pal_rgba16_aligner
                0x00000000070a9108                jrb_dl_flower_ci8
                0x00000000070a9508                jrb_dl_flower_ci8_aligner
                0x00000000070a9510                jrb_dl_i4_sophie_static_i8
                0x00000000070aa510                jrb_dl_i4_sophie_static_i8_aligner
                0x00000000070aa518                jrb_dl_ci4_sophie_hay_pal_rgba16
                0x00000000070aa538                jrb_dl_ci4_sophie_hay_pal_rgba16_aligner
                0x00000000070aa540                jrb_dl_ci4_sophie_hay_ci4
                0x00000000070aad40                jrb_dl_ci4_sophie_hay_ci4_aligner
                0x00000000070aad48                jrb_dl_rgba16_anonmoose_swirl1_pal_rgba16
                0x00000000070aad98                jrb_dl_rgba16_anonmoose_swirl1_pal_rgba16_aligner
                0x00000000070aada0                jrb_dl_rgba16_anonmoose_swirl1_ci8
                0x00000000070ab1a0                jrb_dl_rgba16_anonmoose_swirl1_ci8_aligner
                0x00000000070ab1a8                jrb_dl_ci4_sophie_tablecloth_pal_rgba16
                0x00000000070ab1c8                jrb_dl_ci4_sophie_tablecloth_pal_rgba16_aligner
                0x00000000070ab1d0                jrb_dl_ci4_sophie_tablecloth_ci4
                0x00000000070ab9d0                jrb_dl_ci4_sophie_tablecloth_ci4_aligner
                0x00000000070ab9d8                jrb_dl_rings_pal_rgba16
                0x00000000070abab8                jrb_dl_rings_pal_rgba16_aligner
                0x00000000070abac0                jrb_dl_rings_ci8
                0x00000000070abec0                jrb_dl_rings_ci8_aligner
                0x00000000070abec8                jrb_dl_yucky_pal_rgba16
                0x00000000070abf28                jrb_dl_yucky_pal_rgba16_aligner
                0x00000000070abf30                jrb_dl_yucky_ci8
                0x00000000070ac330                jrb_dl_yucky_ci8_aligner
                0x00000000070ac338                jrb_dl_KKIIDDZZ_DAT_964__p00_pal_rgba16_copy
                0x00000000070ac418                jrb_dl_KKIIDDZZ_DAT_964__p00_pal_rgba16_copy_aligner
                0x00000000070ac420                jrb_dl_KKIIDDZZ_DAT_964__p00_ci8_copy
                0x00000000070ac820                jrb_dl_KKIIDDZZ_DAT_964__p00_ci8_copy_aligner
                0x00000000070ac828                jrb_dl_GM4E01_3b9bd952_14_pal_rgba16
                0x00000000070ac850                jrb_dl_GM4E01_3b9bd952_14_pal_rgba16_aligner
                0x00000000070ac858                jrb_dl_GM4E01_3b9bd952_14_ci8
                0x00000000070acc58                jrb_dl_GM4E01_3b9bd952_14_ci8_aligner
                0x00000000070acc60                jrb_dl_light_pal_rgba16
                0x00000000070acc68                jrb_dl_light_pal_rgba16_aligner
                0x00000000070acc70                jrb_dl_light_ci4
                0x00000000070ace70                jrb_dl_light_ci4_aligner
                0x00000000070ace78                jrb_dl_KKIIDDZZ_DAT_1060__p00_pal_rgba16
                0x00000000070acf18                jrb_dl_KKIIDDZZ_DAT_1060__p00_pal_rgba16_aligner
                0x00000000070acf20                jrb_dl_KKIIDDZZ_DAT_1060__p00_ci8
                0x00000000070ad320                jrb_dl_KKIIDDZZ_DAT_1060__p00_ci8_aligner
                0x00000000070ad328                jrb_dl_ci4_sophie_wall_pal_rgba16
                0x00000000070ad348                jrb_dl_ci4_sophie_wall_pal_rgba16_aligner
                0x00000000070ad350                jrb_dl_ci4_sophie_wall_ci4
                0x00000000070adb50                jrb_dl_ci4_sophie_wall_ci4_aligner
                0x00000000070adb58                jrb_dl_ci4_sophie_metal2_pal_rgba16
                0x00000000070adb78                jrb_dl_ci4_sophie_metal2_pal_rgba16_aligner
                0x00000000070adb80                jrb_dl_ci4_sophie_metal2_ci4
                0x00000000070ae380                jrb_dl_ci4_sophie_metal2_ci4_aligner
                0x00000000070ae388                jrb_dl_rgba16_anonmoose_envmap_gold1_pal_rgba16
                0x00000000070ae4f8                jrb_dl_rgba16_anonmoose_envmap_gold1_pal_rgba16_aligner
                0x00000000070ae500                jrb_dl_rgba16_anonmoose_envmap_gold1_ci8
                0x00000000070ae900                jrb_dl_rgba16_anonmoose_envmap_gold1_ci8_aligner
                0x00000000070ae908                jrb_dl_ci4_anonmoose_whiteblock_pal_rgba16
                0x00000000070ae928                jrb_dl_ci4_anonmoose_whiteblock_pal_rgba16_aligner
                0x00000000070ae930                jrb_dl_ci4_anonmoose_whiteblock_ci4
                0x00000000070af130                jrb_dl_ci4_anonmoose_whiteblock_ci4_aligner
                0x00000000070af138                jrb_dl_tempImgEd032C_pal_rgba16
                0x00000000070af2b8                jrb_dl_tempImgEd032C_pal_rgba16_aligner
                0x00000000070af2c0                jrb_dl_tempImgEd032C_ci8
                0x00000000070af6c0                jrb_dl_tempImgEd032C_ci8_aligner
                0x00000000070af6c8                jrb_dl_KKIIDDZZ_DAT_972__p00_pal_rgba16
                0x00000000070af7f8                jrb_dl_KKIIDDZZ_DAT_972__p00_pal_rgba16_aligner
                0x00000000070af800                jrb_dl_KKIIDDZZ_DAT_972__p00_ci8
                0x00000000070afc00                jrb_dl_KKIIDDZZ_DAT_972__p00_ci8_aligner
                0x00000000070afc08                jrb_dl_invisible_ia8
                0x00000000070b0008                jrb_dl_invisible_ia8_aligner
                0x00000000070b0010                jrb_dl_KKIIDDZZ_DAT_1061__p00_pal_rgba16
                0x00000000070b00d8                jrb_dl_KKIIDDZZ_DAT_1061__p00_pal_rgba16_aligner
                0x00000000070b00e0                jrb_dl_KKIIDDZZ_DAT_1061__p00_ci8
                0x00000000070b04e0                jrb_dl_KKIIDDZZ_DAT_1061__p00_ci8_aligner
                0x00000000070b04e8                jrb_dl_KKIIDDZZ_DAT_971__p00_pal_rgba16
                0x00000000070b0610                jrb_dl_KKIIDDZZ_DAT_971__p00_pal_rgba16_aligner
                0x00000000070b0618                jrb_dl_KKIIDDZZ_DAT_971__p00_ci8
                0x00000000070b0a18                jrb_dl_KKIIDDZZ_DAT_971__p00_ci8_aligner
                0x00000000070b0a20                jrb_dl_KKIIDDZZ_DAT_1059__p00_pal_rgba16
                0x00000000070b0aa8                jrb_dl_KKIIDDZZ_DAT_1059__p00_pal_rgba16_aligner
                0x00000000070b0ab0                jrb_dl_KKIIDDZZ_DAT_1059__p00_ci8
                0x00000000070b0eb0                jrb_dl_KKIIDDZZ_DAT_1059__p00_ci8_aligner
                0x00000000070b0eb8                jrb_dl_ci4_anonmoose_treebark1_pal_rgba16
                0x00000000070b0ed8                jrb_dl_ci4_anonmoose_treebark1_pal_rgba16_aligner
                0x00000000070b0ee0                jrb_dl_ci4_anonmoose_treebark1_ci4
                0x00000000070b16e0                jrb_dl_ci4_anonmoose_treebark1_ci4_aligner
                0x00000000070b16e8                jrb_dl__25_pal_rgba16
                0x00000000070b1758                jrb_dl__25_pal_rgba16_aligner
                0x00000000070b1760                jrb_dl__25_ci8
                0x00000000070b1b60                jrb_dl__25_ci8_aligner
                0x00000000070b1b68                jrb_dl_KKIIDDZZ_DAT_964__p00_pal_rgba16
                0x00000000070b1c48                jrb_dl_KKIIDDZZ_DAT_964__p00_pal_rgba16_aligner
                0x00000000070b1c50                jrb_dl_KKIIDDZZ_DAT_964__p00_ci8
                0x00000000070b2050                jrb_dl_KKIIDDZZ_DAT_964__p00_ci8_aligner
                0x00000000070b2058                jrb_dl_ci4_zeina_water_1_pal_rgba16
                0x00000000070b2078                jrb_dl_ci4_zeina_water_1_pal_rgba16_aligner
                0x00000000070b2080                jrb_dl_ci4_zeina_water_1_ci4
                0x00000000070b2880                jrb_dl_ci4_zeina_water_1_ci4_aligner
                0x00000000070b2888                jrb_dl_ci4_sophie_rooftile_pal_rgba16
                0x00000000070b28a8                jrb_dl_ci4_sophie_rooftile_pal_rgba16_aligner
                0x00000000070b28b0                jrb_dl_ci4_sophie_rooftile_ci4
                0x00000000070b30b0                jrb_dl_ci4_sophie_rooftile_ci4_aligner
                0x00000000070b30b8                jrb_dl_ci4_sophie_broom_pal_rgba16
                0x00000000070b30d8                jrb_dl_ci4_sophie_broom_pal_rgba16_aligner
                0x00000000070b30e0                jrb_dl_ci4_sophie_broom_ci4
                0x00000000070b38e0                jrb_dl_ci4_sophie_broom_ci4_aligner
                0x00000000070b38e8                jrb_dl_ci4_sophie_wood2_pal_rgba16
                0x00000000070b3908                jrb_dl_ci4_sophie_wood2_pal_rgba16_aligner
                0x00000000070b3910                jrb_dl_ci4_sophie_wood2_ci4
                0x00000000070b4110                jrb_dl_ci4_sophie_wood2_ci4_aligner
                0x00000000070b4118                jrb_dl_ci4_sophie_interiorwall_pal_rgba16
                0x00000000070b4130                jrb_dl_ci4_sophie_interiorwall_pal_rgba16_aligner
                0x00000000070b4138                jrb_dl_ci4_sophie_interiorwall_ci4
                0x00000000070b4938                jrb_dl_ci4_sophie_interiorwall_ci4_aligner
                0x00000000070b4940                jrb_dl_KKIIDDZZ_DAT_1818__p00_pal_rgba16
                0x00000000070b4a18                jrb_dl_KKIIDDZZ_DAT_1818__p00_pal_rgba16_aligner
                0x00000000070b4a20                jrb_dl_KKIIDDZZ_DAT_1818__p00_ci8
                0x00000000070b4e20                jrb_dl_KKIIDDZZ_DAT_1818__p00_ci8_aligner
                0x00000000070b4e28                jrb_dl_ci4_anonmoose_Dirt1_pal_rgba16
                0x00000000070b4e60                jrb_dl_ci4_anonmoose_Dirt1_pal_rgba16_aligner
                0x00000000070b4e68                jrb_dl_ci4_anonmoose_Dirt1_ci8
                0x00000000070b5268                jrb_dl_ci4_anonmoose_Dirt1_ci8_aligner
                0x00000000070b5270                jrb_dl_YOSHIS_ISLAND_6467B7C8B140_all_ia8
                0x00000000070b6270                jrb_dl_YOSHIS_ISLAND_6467B7C8B140_all_ia8_aligner
                0x00000000070b6278                jrb_dl_KKIIDDZZ_DAT_2237__p00_pal_rgba16
                0x00000000070b6298                jrb_dl_KKIIDDZZ_DAT_2237__p00_pal_rgba16_aligner
                0x00000000070b62a0                jrb_dl_KKIIDDZZ_DAT_2237__p00_ci4
                0x00000000070b6aa0                jrb_dl_KKIIDDZZ_DAT_2237__p00_ci4_aligner
                0x00000000070b6aa8                jrb_dl_KKIIDDZZ_DAT_2238__p00_pal_rgba16
                0x00000000070b6ac8                jrb_dl_KKIIDDZZ_DAT_2238__p00_pal_rgba16_aligner
                0x00000000070b6ad0                jrb_dl_KKIIDDZZ_DAT_2238__p00_ci4
                0x00000000070b72d0                jrb_dl_KKIIDDZZ_DAT_2238__p00_ci4_aligner
                0x00000000070b72d8                jrb_dl_KKIIDDZZ_DAT_684__p00_pal_rgba16
                0x00000000070b72f0                jrb_dl_KKIIDDZZ_DAT_684__p00_pal_rgba16_aligner
                0x00000000070b72f8                jrb_dl_KKIIDDZZ_DAT_684__p00_ci4
                0x00000000070b7af8                jrb_dl_KKIIDDZZ_DAT_684__p00_ci4_aligner
                0x00000000070b7b00                jrb_area_1_macro_objs
                0x00000000070b7b04                jrb_area_1_collision
                0x00000000070e8070                jrb_movtex_sunken_ship_water
                0x00000000070e80a0                jrb_seg7_area_2_macro_objs
                0x00000000070e80ac                jrb_seg7_area_2_collision
                0x00000000070e9160                jrb_seg7_dl_07010548
                0x00000000070e97b0                jrb_seg7_dl_0700FE48
                0x00000000070ea590                jrb_seg7_dl_0700EF00
                0x00000000070ebf58                jrb_movtex_initial_mist
                0x00000000070ebf88                jrb_movtex_water
                0x00000000070ebfe0                jrb_seg7_trajectory_unagi_2
                0x00000000070ec02c                jrb_seg7_trajectory_unagi_1
                0x00000000070ec060                jrb_seg7_collision_0700D1DC
                0x00000000070ec094                jrb_seg7_collision_pillar_base
                0x00000000070ec0e0                jrb_seg7_collision_in_sunken_ship_2
                0x00000000070ec364                jrb_seg7_collision_0700CEF0
                0x00000000070ec40c                jrb_seg7_collision_in_sunken_ship
                0x00000000070ec4b8                jrb_seg7_collision_in_sunken_ship_3
                0x00000000070ecb00                jrb_seg7_collision_floating_box
                0x00000000070ecb9c                jrb_seg7_collision_floating_platform
                0x00000000070ecc38                jrb_seg7_collision_rock_solid
                0x00000000070ecd2c                jrb_seg7_area_1_macro_objs
                0x00000000070ecf9c                jrb_seg7_area_1_collision
                0x00000000070ee860                jrb_seg7_dl_0700AFB0
                0x00000000070ee9b0                jrb_seg7_dl_0700AE48
                0x00000000070eeb40                jrb_seg7_dl_0700AC68
                0x00000000070ef100                jrb_seg7_dl_0700A608
                0x00000000070efab8                jrb_seg7_dl_07009B30
                0x00000000070efb98                jrb_seg7_dl_07009A58
                0x00000000070f0448                jrb_seg7_dl_070090B0
                0x00000000070f0528                jrb_seg7_dl_07008FD8
                0x00000000070f1290                jrb_seg7_dl_070080F8
                0x00000000070f1560                jrb_seg7_dl_07007DC8
                0x00000000070f1858                jrb_seg7_dl_07007AC8
                0x00000000070f1b80                jrb_seg7_dl_07007718
                0x00000000070f1d38                jrb_seg7_dl_07007570
                0x00000000070f27c8                jrb_seg7_dl_070069B0
                0x00000000070f3720                jrb_seg7_dl_070058C8
                0x00000000070f4208                jrb_seg7_dl_07004C78
                0x00000000070f44e0                jrb_seg7_dl_07004940
                0x00000000070f5b80                jrb_seg7_dl_07002FD0

.data1
 *(.data1)

.got.plt
 *(.got.plt)
                0x00000000070f8b58                . = .
                0x00000000070f8b58                . = .
                0x0000000007100b50                _gp = (ALIGN (0x10) + 0x7ff0)

.got
 *(.got)

.sdata
 *(.sdata .sdata.* .gnu.linkonce.s.*)

.lit8
 *(.lit8)

.lit4
 *(.lit4)
                0x00000000070f8b58                _edata = .
                [!provide]                        PROVIDE (edata = .)
                0x00000000070f8b58                . = .
                0x00000000070f8b58                __bss_start = .
                0x00000000070f8b58                _fbss = .

.sbss
 *(.dynsbss)
 *(.sbss .sbss.* .gnu.linkonce.sb.*)
 *(.scommon)

.bss            0x00000000070f8b58        0x0 load address 0x00000000070f8b70
 *(.dynbss)
 *(.bss .bss.* .gnu.linkonce.b.*)
 .bss           0x00000000070f8b58        0x0 build/us_n64/levels/jrb/leveldata.o
 *(COMMON)
                0x00000000070f8b58                . = ALIGN ((. != 0x0)?0x4:0x1)
                0x00000000070f8b58                . = ALIGN (0x4)
                0x00000000070f8b58                . = SEGMENT_START ("ldata-segment", .)
                0x00000000070f8b58                . = ALIGN (0x4)
                0x00000000070f8b58                _end = .
                [!provide]                        PROVIDE (end = .)
                0x00000000070f8b58                . = DATA_SEGMENT_END (.)

.stab
 *(.stab)

.stabstr
 *(.stabstr)

.stab.excl
 *(.stab.excl)

.stab.exclstr
 *(.stab.exclstr)

.stab.index
 *(.stab.index)

.stab.indexstr
 *(.stab.indexstr)

.comment        0x0000000000000000       0x12
 *(.comment)
 .comment       0x0000000000000000       0x12 build/us_n64/levels/jrb/leveldata.o
                                         0x13 (size before relaxing)

.pdr            0x0000000000000000        0x0
 .pdr           0x0000000000000000        0x0 build/us_n64/levels/jrb/leveldata.o

.debug
 *(.debug)

.line
 *(.line)

.debug_srcinfo
 *(.debug_srcinfo)

.debug_sfnames
 *(.debug_sfnames)

.debug_aranges
 *(.debug_aranges)

.debug_pubnames
 *(.debug_pubnames)

.debug_info
 *(.debug_info .gnu.linkonce.wi.*)

.debug_abbrev
 *(.debug_abbrev)

.debug_line
 *(.debug_line .debug_line.* .debug_line_end)

.debug_frame
 *(.debug_frame)

.debug_str
 *(.debug_str)

.debug_loc
 *(.debug_loc)

.debug_macinfo
 *(.debug_macinfo)

.debug_weaknames
 *(.debug_weaknames)

.debug_funcnames
 *(.debug_funcnames)

.debug_typenames
 *(.debug_typenames)

.debug_varnames
 *(.debug_varnames)

.debug_pubtypes
 *(.debug_pubtypes)

.debug_ranges
 *(.debug_ranges)

.debug_macro
 *(.debug_macro)

.debug_addr
 *(.debug_addr)

.gnu.attributes
                0x0000000000000000       0x10
 *(.gnu.attributes)
 .gnu.attributes
                0x0000000000000000       0x10 build/us_n64/levels/jrb/leveldata.o

.gptab.sdata
 *(.gptab.data)
 *(.gptab.sdata)

.gptab.sbss
 *(.gptab.bss)
 *(.gptab.sbss)

.mdebug.abi32   0x0000000000000000        0x0
 *(.mdebug.abi32)
 .mdebug.abi32  0x0000000000000000        0x0 build/us_n64/levels/jrb/leveldata.o

.mdebug.abiN32
 *(.mdebug.abiN32)

.mdebug.abi64
 *(.mdebug.abi64)

.mdebug.abiO64
 *(.mdebug.abiO64)

.mdebug.eabi32
 *(.mdebug.eabi32)

.mdebug.eabi64
 *(.mdebug.eabi64)

.gcc_compiled_long32
 *(.gcc_compiled_long32)

.gcc_compiled_long64
 *(.gcc_compiled_long64)

/DISCARD/
 *(.note.GNU-stack)
 *(.gnu_debuglink)
 *(.gnu.lto_*)
OUTPUT(build/us_n64/levels/jrb/leveldata.elf elf32-bigmips)
