
Memory Configuration

Name             Origin             Length             Attributes
*default*        0x0000000000000000 0xffffffffffffffff

Linker script and memory map

Address of section .text set to 0x7000000
LOAD build/us_n64/bin/water.elf
LOAD build/us_n64/levels/jrb/leveldata.o
                [!provide]                        PROVIDE (__executable_start = SEGMENT_START ("text-segment", 0x400000))
                0x0000000000400000                . = SEGMENT_START ("text-segment", 0x400000)

.interp
 *(.interp)

.MIPS.abiflags  0x0000000000400000       0x18
 *(.MIPS.abiflags)
 .MIPS.abiflags
                0x0000000000400000       0x18 build/us_n64/levels/jrb/leveldata.o

.reginfo        0x0000000000400018       0x18
 *(.reginfo)
 .reginfo       0x0000000000400018       0x18 build/us_n64/levels/jrb/leveldata.o

.note.gnu.build-id
 *(.note.gnu.build-id)

.dynamic
 *(.dynamic)

.hash
 *(.hash)

.gnu.hash
 *(.gnu.hash)

.dynsym
 *(.dynsym)

.dynstr
 *(.dynstr)

.gnu.version
 *(.gnu.version)

.gnu.version_d
 *(.gnu.version_d)

.gnu.version_r
 *(.gnu.version_r)

.rel.dyn        0x0000000000400018        0x0 load address 0x0000000000400030
 *(.rel.init)
 *(.rel.text .rel.text.* .rel.gnu.linkonce.t.*)
 *(.rel.fini)
 *(.rel.rodata .rel.rodata.* .rel.gnu.linkonce.r.*)
 *(.rel.data.rel.ro .rel.data.rel.ro.* .rel.gnu.linkonce.d.rel.ro.*)
 *(.rel.data .rel.data.* .rel.gnu.linkonce.d.*)
 *(.rel.tdata .rel.tdata.* .rel.gnu.linkonce.td.*)
 *(.rel.tbss .rel.tbss.* .rel.gnu.linkonce.tb.*)
 *(.rel.ctors)
 *(.rel.dtors)
 *(.rel.got)
 *(.rel.dyn)
 .rel.dyn       0x0000000000400018        0x0 build/us_n64/levels/jrb/leveldata.o
 *(.rel.sdata .rel.sdata.* .rel.gnu.linkonce.s.*)
 *(.rel.sbss .rel.sbss.* .rel.gnu.linkonce.sb.*)
 *(.rel.sdata2 .rel.sdata2.* .rel.gnu.linkonce.s2.*)
 *(.rel.sbss2 .rel.sbss2.* .rel.gnu.linkonce.sb2.*)
 *(.rel.bss .rel.bss.* .rel.gnu.linkonce.b.*)
                [!provide]                        PROVIDE (__rel_iplt_start = .)
 *(.rel.iplt)
                [!provide]                        PROVIDE (__rel_iplt_end = .)

.rela.dyn       0x0000000000400018        0x0
 *(.rela.init)
 *(.rela.text .rela.text.* .rela.gnu.linkonce.t.*)
 *(.rela.fini)
 *(.rela.rodata .rela.rodata.* .rela.gnu.linkonce.r.*)
 *(.rela.data .rela.data.* .rela.gnu.linkonce.d.*)
 *(.rela.tdata .rela.tdata.* .rela.gnu.linkonce.td.*)
 *(.rela.tbss .rela.tbss.* .rela.gnu.linkonce.tb.*)
 *(.rela.ctors)
 *(.rela.dtors)
 *(.rela.got)
 *(.rela.sdata .rela.sdata.* .rela.gnu.linkonce.s.*)
 *(.rela.sbss .rela.sbss.* .rela.gnu.linkonce.sb.*)
 *(.rela.sdata2 .rela.sdata2.* .rela.gnu.linkonce.s2.*)
 *(.rela.sbss2 .rela.sbss2.* .rela.gnu.linkonce.sb2.*)
 *(.rela.bss .rela.bss.* .rela.gnu.linkonce.b.*)
                [!provide]                        PROVIDE (__rela_iplt_start = .)
 *(.rela.iplt)
                [!provide]                        PROVIDE (__rela_iplt_end = .)

.rel.plt
 *(.rel.plt)

.rela.plt
 *(.rela.plt)

.init
 *(SORT_NONE(.init))

.plt
 *(.plt)

.iplt
 *(.iplt)

.text           0x0000000007000000        0x0 load address 0x0000000007000018
                0x0000000007000000                _ftext = .
 *(.text.unlikely .text.*_unlikely .text.unlikely.*)
 *(.text.exit .text.exit.*)
 *(.text.startup .text.startup.*)
 *(.text.hot .text.hot.*)
 *(.text .stub .text.* .gnu.linkonce.t.*)
 .text          0x0000000007000000        0x0 build/us_n64/levels/jrb/leveldata.o
 *(.gnu.warning)
 *(.mips16.fn.*)
 *(.mips16.call.*)

.fini
 *(SORT_NONE(.fini))
                [!provide]                        PROVIDE (__etext = .)
                [!provide]                        PROVIDE (_etext = .)
                [!provide]                        PROVIDE (etext = .)

.rodata
 *(.rodata .rodata.* .gnu.linkonce.r.*)

.rodata1
 *(.rodata1)

.sdata2
 *(.sdata2 .sdata2.* .gnu.linkonce.s2.*)

.sbss2
 *(.sbss2 .sbss2.* .gnu.linkonce.sb2.*)

.eh_frame_hdr
 *(.eh_frame_hdr)
 *(.eh_frame_entry .eh_frame_entry.*)

.eh_frame
 *(.eh_frame)
 *(.eh_frame.*)

.gcc_except_table
 *(.gcc_except_table .gcc_except_table.*)

.gnu_extab
 *(.gnu_extab*)

.exception_ranges
 *(.exception_ranges .exception_ranges*)
                0x0000000007000000                . = DATA_SEGMENT_ALIGN (CONSTANT (MAXPAGESIZE), CONSTANT (COMMONPAGESIZE))

.eh_frame
 *(.eh_frame)
 *(.eh_frame.*)

.gnu_extab
 *(.gnu_extab)

.gcc_except_table
 *(.gcc_except_table .gcc_except_table.*)

.exception_ranges
 *(.exception_ranges .exception_ranges*)

.tdata
 *(.tdata .tdata.* .gnu.linkonce.td.*)

.tbss
 *(.tbss .tbss.* .gnu.linkonce.tb.*)
 *(.tcommon)

.preinit_array  0x0000000007000000        0x0
                [!provide]                        PROVIDE (__preinit_array_start = .)
 *(.preinit_array)
                [!provide]                        PROVIDE (__preinit_array_end = .)

.init_array     0x0000000007000000        0x0
                [!provide]                        PROVIDE (__init_array_start = .)
 *(SORT_BY_INIT_PRIORITY(.init_array.*) SORT_BY_INIT_PRIORITY(.ctors.*))
 *(.init_array EXCLUDE_FILE(*crtend?.o *crtend.o *crtbegin?.o *crtbegin.o) .ctors)
                [!provide]                        PROVIDE (__init_array_end = .)

.fini_array     0x0000000007000000        0x0
                [!provide]                        PROVIDE (__fini_array_start = .)
 *(SORT_BY_INIT_PRIORITY(.fini_array.*) SORT_BY_INIT_PRIORITY(.dtors.*))
 *(.fini_array EXCLUDE_FILE(*crtend?.o *crtend.o *crtbegin?.o *crtbegin.o) .dtors)
                [!provide]                        PROVIDE (__fini_array_end = .)

.ctors
 *crtbegin.o(.ctors)
 *crtbegin?.o(.ctors)
 *(EXCLUDE_FILE(*crtend?.o *crtend.o) .ctors)
 *(SORT_BY_NAME(.ctors.*))
 *(.ctors)

.dtors
 *crtbegin.o(.dtors)
 *crtbegin?.o(.dtors)
 *(EXCLUDE_FILE(*crtend?.o *crtend.o) .dtors)
 *(SORT_BY_NAME(.dtors.*))
 *(.dtors)

.jcr
 *(.jcr)

.data.rel.ro
 *(.data.rel.ro.local* .gnu.linkonce.d.rel.ro.local.*)
 *(.data.rel.ro .data.rel.ro.* .gnu.linkonce.d.rel.ro.*)
                0x0000000007000000                . = DATA_SEGMENT_RELRO_END (., 0x0)

.data           0x0000000007000000    0xefec8 load address 0x0000000007000018
                0x0000000007000000                _fdata = .
 *(.data .data.* .gnu.linkonce.d.*)
 .data          0x0000000007000000    0xefec8 build/us_n64/levels/jrb/leveldata.o
                0x0000000007000000                jrb_dl_final_revert_mesh_layer_4
                0x0000000007000040                jrb_dl_final_revert_mesh_layer_5
                0x0000000007000080                jrb_dl_final_revert_mesh_layer_6
                0x00000000070000c0                jrb_dl_final_revert_mesh_layer_1
                0x0000000007000100                jrb_dl_wind_grate_010_mesh_layer_4
                0x0000000007000140                jrb_dl_wind_grate_009_mesh_layer_4
                0x0000000007000180                jrb_dl_wind_grate_008_mesh_layer_4
                0x00000000070001c0                jrb_dl_wind_grate_007_mesh_layer_4
                0x0000000007000200                jrb_dl_wind_grate_006_mesh_layer_4
                0x0000000007000240                jrb_dl_wind_grate_005_mesh_layer_4
                0x0000000007000280                jrb_dl_wind_grate_004_mesh_layer_4
                0x00000000070002c0                jrb_dl_wind_grate_003_mesh_layer_4
                0x0000000007000300                jrb_dl_wind_grate_002_mesh_layer_4
                0x0000000007000340                jrb_dl_wind_grate_001_mesh_layer_4
                0x0000000007000380                jrb_dl_waterfall_mesh_layer_5
                0x00000000070003c0                jrb_dl_wall_002_mesh_layer_1
                0x0000000007000400                jrb_dl_wall_001_mesh_layer_1
                0x0000000007000458                jrb_dl_wall_mesh_layer_1
                0x0000000007000498                jrb_dl_small_fan_004_mesh_layer_1
                0x00000000070004f0                jrb_dl_small_fan_003_mesh_layer_1
                0x0000000007000548                jrb_dl_small_fan_002_mesh_layer_1
                0x00000000070005a0                jrb_dl_small_fan_001_mesh_layer_1
                0x00000000070005f8                jrb_dl_SM_Fountain_02_mesh_layer_1
                0x0000000007000668                jrb_dl_rock_012_mesh_layer_1
                0x00000000070006d8                jrb_dl_rock_011_mesh_layer_1
                0x0000000007000718                jrb_dl_rock_010_mesh_layer_1
                0x0000000007000758                jrb_dl_rock_009_mesh_layer_1
                0x0000000007000798                jrb_dl_rock_008_mesh_layer_1
                0x0000000007000808                jrb_dl_rock_007_mesh_layer_1
                0x0000000007000878                jrb_dl_rock_006_mesh_layer_1
                0x00000000070008e8                jrb_dl_rock_005_mesh_layer_1
                0x0000000007000928                jrb_dl_rock_004_mesh_layer_1
                0x0000000007000968                jrb_dl_rock_003_mesh_layer_1
                0x00000000070009a8                jrb_dl_rock_002_mesh_layer_1
                0x00000000070009e8                jrb_dl_rock_001_mesh_layer_1
                0x0000000007000a28                jrb_dl_rock_mesh_layer_1
                0x0000000007000a68                jrb_dl_render_048_mesh_layer_1
                0x0000000007000ac0                jrb_dl_Plane_mesh_layer_6
                0x0000000007000b00                jrb_dl_pillar_030_mesh_layer_1
                0x0000000007000b40                jrb_dl_pillar_029_mesh_layer_1
                0x0000000007000b80                jrb_dl_pillar_028_mesh_layer_1
                0x0000000007000bc0                jrb_dl_pillar_027_mesh_layer_1
                0x0000000007000c00                jrb_dl_pillar_026_mesh_layer_1
                0x0000000007000c40                jrb_dl_pillar_025_mesh_layer_1
                0x0000000007000c80                jrb_dl_pillar_024_mesh_layer_1
                0x0000000007000cc0                jrb_dl_pillar_019_mesh_layer_1
                0x0000000007000d00                jrb_dl_pillar_014_mesh_layer_1
                0x0000000007000d40                jrb_dl_pillar_013_mesh_layer_1
                0x0000000007000d80                jrb_dl_pillar_012_mesh_layer_1
                0x0000000007000dc0                jrb_dl_pillar_011_mesh_layer_1
                0x0000000007000e00                jrb_dl_pillar_010_mesh_layer_1
                0x0000000007000e40                jrb_dl_pillar_009_mesh_layer_1
                0x0000000007000e80                jrb_dl_pillar_008_mesh_layer_1
                0x0000000007000ec0                jrb_dl_pillar_007_mesh_layer_1
                0x0000000007000f00                jrb_dl_pillar_006_mesh_layer_1
                0x0000000007000f40                jrb_dl_pillar_005_mesh_layer_1
                0x0000000007000f80                jrb_dl_pillar_004_mesh_layer_1
                0x0000000007000fc0                jrb_dl_pillar_003_mesh_layer_1
                0x0000000007001000                jrb_dl_pillar_002_mesh_layer_1
                0x0000000007001040                jrb_dl_pillar_001_mesh_layer_1
                0x0000000007001080                jrb_dl_pillar_mesh_layer_1
                0x00000000070010f0                jrb_dl_path_002_mesh_layer_6
                0x0000000007001130                jrb_dl_path_001_mesh_layer_6
                0x0000000007001170                jrb_dl_path_mesh_layer_6
                0x00000000070011b0                jrb_dl_mossy_stone_019_mesh_layer_1
                0x00000000070011f0                jrb_dl_mossy_stone_018_mesh_layer_1
                0x0000000007001230                jrb_dl_mossy_stone_017_mesh_layer_1
                0x0000000007001270                jrb_dl_mossy_stone_016_mesh_layer_1
                0x00000000070012b0                jrb_dl_mossy_stone_015_mesh_layer_1
                0x00000000070012f0                jrb_dl_mossy_stone_014_mesh_layer_1
                0x0000000007001330                jrb_dl_mossy_stone_013_mesh_layer_1
                0x0000000007001370                jrb_dl_mossy_stone_012_mesh_layer_1
                0x00000000070013b0                jrb_dl_mossy_stone_011_mesh_layer_1
                0x00000000070013f0                jrb_dl_mossy_stone_010_mesh_layer_1
                0x0000000007001430                jrb_dl_mossy_stone_009_mesh_layer_1
                0x0000000007001470                jrb_dl_mossy_stone_008_mesh_layer_1
                0x00000000070014b0                jrb_dl_mossy_stone_007_mesh_layer_1
                0x00000000070014f0                jrb_dl_mossy_stone_006_mesh_layer_1
                0x0000000007001530                jrb_dl_mossy_stone_005_mesh_layer_1
                0x0000000007001570                jrb_dl_mossy_stone_004_mesh_layer_1
                0x00000000070015b0                jrb_dl_mossy_stone_003_mesh_layer_1
                0x00000000070015f0                jrb_dl_mossy_stone_002_mesh_layer_1
                0x0000000007001630                jrb_dl_mossy_stone_001_mesh_layer_1
                0x0000000007001670                jrb_dl_mossy_stone_mesh_layer_1
                0x00000000070016b0                jrb_dl_Mesh_Owl_mesh_layer_1
                0x00000000070016f0                jrb_dl_massive_pillar_003_mesh_layer_4
                0x0000000007001730                jrb_dl_massive_pillar_mesh_layer_1
                0x00000000070017d0                jrb_dl_Icosphere_015_mesh_layer_1
                0x0000000007001810                jrb_dl_Icosphere_008_mesh_layer_1
                0x0000000007001850                jrb_dl_Icosphere_007_mesh_layer_1
                0x0000000007001890                jrb_dl_Icosphere_006_mesh_layer_1
                0x00000000070018d0                jrb_dl_Icosphere_005_mesh_layer_1
                0x0000000007001910                jrb_dl_Icosphere_004_mesh_layer_1
                0x0000000007001950                jrb_dl_Icosphere_003_mesh_layer_1
                0x0000000007001990                jrb_dl_Icosphere_002_mesh_layer_1
                0x00000000070019d0                jrb_dl_Icosphere_001_mesh_layer_1
                0x0000000007001a10                jrb_dl_Houses_SecondAge_3_Level1_004_mesh_layer_1
                0x0000000007001ab0                jrb_dl_Houses_SecondAge_3_Level1_003_mesh_layer_1
                0x0000000007001b50                jrb_dl_Houses_SecondAge_3_Level1_002_mesh_layer_1
                0x0000000007001bf0                jrb_dl_Houses_SecondAge_3_Level1_001_mesh_layer_1
                0x0000000007001c90                jrb_dl_Houses_SecondAge_3_Level1_mesh_layer_1
                0x0000000007001d30                jrb_dl_Houses_SecondAge_1_Level1_001_mesh_layer_1
                0x0000000007001dd0                jrb_dl_flowers_002_mesh_layer_5
                0x0000000007001e10                jrb_dl_flowers_002_mesh_layer_4
                0x0000000007001e50                jrb_dl_flowers_001_mesh_layer_5
                0x0000000007001e90                jrb_dl_flowers_001_mesh_layer_4
                0x0000000007001ed0                jrb_dl_flowers_mesh_layer_5
                0x0000000007001f10                jrb_dl_flowers_mesh_layer_4
                0x0000000007001f50                jrb_dl_death_plane_mesh_layer_1
                0x0000000007001f90                jrb_dl_Cylinder_006_mesh_layer_1
                0x0000000007002000                jrb_dl_Cylinder_005_mesh_layer_1
                0x0000000007002058                jrb_dl_Cylinder_004_mesh_layer_1
                0x00000000070020b0                jrb_dl_Cylinder_003_mesh_layer_1
                0x0000000007002108                jrb_dl_Cylinder_002_mesh_layer_1
                0x0000000007002160                jrb_dl_Cylinder_001_mesh_layer_6
                0x00000000070021a0                jrb_dl_Cylinder_mesh_layer_1
                0x0000000007002210                jrb_dl_Cube_064_mesh_layer_1
                0x00000000070022c8                jrb_dl_Cube_058_mesh_layer_1
                0x0000000007002308                jrb_dl_Cube_055_mesh_layer_1
                0x0000000007002348                jrb_dl_Cube_054_mesh_layer_6
                0x0000000007002388                jrb_dl_Cube_053_mesh_layer_6
                0x00000000070023c8                jrb_dl_Cube_051_mesh_layer_1
                0x0000000007002408                jrb_dl_Cube_050_mesh_layer_1
                0x0000000007002460                jrb_dl_Cube_049_mesh_layer_1
                0x00000000070024b8                jrb_dl_Cube_048_mesh_layer_1
                0x00000000070024f8                jrb_dl_Cube_047_mesh_layer_1
                0x0000000007002538                jrb_dl_Cube_046_mesh_layer_6
                0x0000000007002578                jrb_dl_Cube_045_mesh_layer_1
                0x00000000070025d0                jrb_dl_Cube_044_mesh_layer_1
                0x0000000007002628                jrb_dl_Cube_043_mesh_layer_1
                0x0000000007002668                jrb_dl_Cube_042_mesh_layer_1
                0x00000000070026c0                jrb_dl_Cube_041_mesh_layer_1
                0x0000000007002700                jrb_dl_Cube_040_mesh_layer_1
                0x0000000007002740                jrb_dl_Cube_039_mesh_layer_1
                0x0000000007002780                jrb_dl_Cube_038_mesh_layer_5
                0x00000000070027c0                jrb_dl_Cube_037_mesh_layer_1
                0x0000000007002800                jrb_dl_Cube_036_mesh_layer_1
                0x0000000007002858                jrb_dl_Cube_035_mesh_layer_5
                0x0000000007002898                jrb_dl_Cube_035_mesh_layer_4
                0x00000000070028d8                jrb_dl_Cube_035_mesh_layer_1
                0x00000000070029f0                jrb_dl_Cube_034_mesh_layer_1
                0x0000000007002a48                jrb_dl_Cube_033_mesh_layer_6
                0x0000000007002a88                jrb_dl_Cube_032_mesh_layer_1
                0x0000000007002ac8                jrb_dl_Cube_031_mesh_layer_1
                0x0000000007002b20                jrb_dl_Cube_030_mesh_layer_1
                0x0000000007002b60                jrb_dl_Cube_029_mesh_layer_1
                0x0000000007002ba0                jrb_dl_Cube_028_mesh_layer_1
                0x0000000007002be0                jrb_dl_Cube_027_mesh_layer_6
                0x0000000007002c20                jrb_dl_Cube_026_mesh_layer_1
                0x0000000007002c78                jrb_dl_Cube_024_mesh_layer_1
                0x0000000007002cd0                jrb_dl_Cube_023_mesh_layer_5
                0x0000000007002d10                jrb_dl_Cube_022_mesh_layer_6
                0x0000000007002d50                jrb_dl_Cube_021_mesh_layer_1
                0x0000000007002da8                jrb_dl_Cube_020_mesh_layer_5
                0x0000000007002de8                jrb_dl_Cube_019_mesh_layer_1
                0x0000000007002e70                jrb_dl_Cube_018_mesh_layer_5
                0x0000000007002ec8                jrb_dl_Cube_017_mesh_layer_1
                0x0000000007002f08                jrb_dl_Cube_016_mesh_layer_1
                0x0000000007002f48                jrb_dl_Cube_015_mesh_layer_1
                0x0000000007002fa0                jrb_dl_Cube_014_mesh_layer_1
                0x0000000007002fe0                jrb_dl_Cube_013_mesh_layer_1
                0x0000000007003080                jrb_dl_Cube_012_mesh_layer_1
                0x00000000070030d8                jrb_dl_Cube_011_mesh_layer_1
                0x0000000007003118                jrb_dl_Cube_010_mesh_layer_5
                0x0000000007003158                jrb_dl_Cube_009_mesh_layer_1
                0x0000000007003198                jrb_dl_Cube_008_mesh_layer_5
                0x00000000070031d8                jrb_dl_Cube_007_mesh_layer_1
                0x0000000007003218                jrb_dl_Cube_006_mesh_layer_1
                0x0000000007003258                jrb_dl_Cube_005_mesh_layer_1
                0x0000000007003298                jrb_dl_Cube_004_mesh_layer_1
                0x00000000070032d8                jrb_dl_Cube_003_mesh_layer_1
                0x0000000007003318                jrb_dl_Cube_002_mesh_layer_1
                0x0000000007003358                jrb_dl_Cube_001_mesh_layer_5
                0x0000000007003398                jrb_dl_Cube_mesh_layer_1
                0x0000000007003438                jrb_dl_bridge_mesh_layer_1
                0x0000000007003478                jrb_dl_Alpha_002_mesh_layer_6
                0x00000000070034b8                jrb_dl_Alpha_001_mesh_layer_6
                0x00000000070034f8                jrb_dl_Alpha_mesh_layer_1
                0x0000000007003568                mat_revert_jrb_dl_greate_wind
                0x0000000007003590                mat_jrb_dl_greate_wind
                0x0000000007003628                mat_revert_jrb_dl_metal_2
                0x0000000007003648                mat_jrb_dl_metal_2
                0x00000000070036d8                mat_revert_jrb_dl_flowers_002
                0x0000000007003700                mat_jrb_dl_flowers_002
                0x0000000007003798                mat_revert_jrb_dl_bricks_001
                0x00000000070037b8                mat_jrb_dl_bricks_001
                0x0000000007003848                mat_revert_jrb_dl_flowers
                0x0000000007003870                mat_jrb_dl_flowers
                0x0000000007003908                mat_revert_jrb_dl_f3dlite_material_004
                0x0000000007003920                mat_jrb_dl_f3dlite_material_004
                0x0000000007003990                mat_revert_jrb_dl_hay
                0x00000000070039b0                mat_jrb_dl_hay
                0x0000000007003a40                mat_revert_jrb_dl_swirl
                0x0000000007003a60                mat_jrb_dl_swirl
                0x0000000007003af0                mat_revert_jrb_dl_picnic
                0x0000000007003b10                mat_jrb_dl_picnic
                0x0000000007003ba0                mat_revert_jrb_dl_tree_rings
                0x0000000007003bc0                mat_jrb_dl_tree_rings
                0x0000000007003c50                mat_revert_jrb_dl_bark
                0x0000000007003c70                mat_jrb_dl_bark
                0x0000000007003d00                mat_revert_jrb_dl_water_bottom
                0x0000000007003d18                mat_jrb_dl_water_bottom
                0x0000000007003d60                mat_revert_jrb_dl_death
                0x0000000007003d80                mat_jrb_dl_death
                0x0000000007003e10                mat_revert_jrb_dl_stone_star_002
                0x0000000007003e30                mat_jrb_dl_stone_star_002
                0x0000000007003ec0                mat_revert_jrb_dl_caution
                0x0000000007003ee0                mat_jrb_dl_caution
                0x0000000007003f70                mat_revert_jrb_dl_light
                0x0000000007003f98                mat_jrb_dl_light
                0x0000000007004038                mat_revert_jrb_dl_old_checker
                0x0000000007004058                mat_jrb_dl_old_checker
                0x00000000070040e8                mat_revert_jrb_dl_f3dlite_material
                0x0000000007004108                mat_jrb_dl_f3dlite_material
                0x0000000007004198                mat_revert_jrb_dl_metal_1
                0x00000000070041b8                mat_jrb_dl_metal_1
                0x0000000007004248                mat_revert_jrb_dl_gold
                0x0000000007004268                mat_jrb_dl_gold
                0x00000000070042f8                mat_revert_jrb_dl_white_bevel
                0x0000000007004320                mat_jrb_dl_white_bevel
                0x00000000070043b8                mat_revert_jrb_dl_f3dlite_material_001
                0x00000000070043d8                mat_jrb_dl_f3dlite_material_001
                0x0000000007004468                mat_revert_jrb_dl_f3dlite_material_003
                0x0000000007004488                mat_jrb_dl_f3dlite_material_003
                0x0000000007004518                mat_revert_jrb_dl_invisible
                0x0000000007004538                mat_jrb_dl_invisible
                0x00000000070045b8                mat_revert_jrb_dl_fake_water
                0x00000000070045e0                mat_jrb_dl_fake_water
                0x0000000007004680                mat_revert_jrb_dl_f3dlite_material_002
                0x00000000070046a0                mat_jrb_dl_f3dlite_material_002
                0x0000000007004730                mat_revert_jrb_dl_mossy_stone
                0x0000000007004750                mat_jrb_dl_mossy_stone
                0x00000000070047e0                mat_revert_jrb_dl_fast_water
                0x0000000007004800                mat_jrb_dl_fast_water
                0x0000000007004890                mat_revert_jrb_dl_moving_water
                0x00000000070048b0                mat_jrb_dl_moving_water
                0x0000000007004940                mat_revert_jrb_dl_old_stone
                0x0000000007004960                mat_jrb_dl_old_stone
                0x00000000070049f0                mat_revert_jrb_dl_bark_small
                0x0000000007004a10                mat_jrb_dl_bark_small
                0x0000000007004aa0                mat_revert_jrb_dl_black
                0x0000000007004ab8                mat_jrb_dl_black
                0x0000000007004b00                mat_revert_jrb_dl_rock
                0x0000000007004b20                mat_jrb_dl_rock
                0x0000000007004bb0                mat_revert_jrb_dl_stone_star
                0x0000000007004bd0                mat_jrb_dl_stone_star
                0x0000000007004c60                mat_revert_jrb_dl_water
                0x0000000007004c88                mat_jrb_dl_water
                0x0000000007004d28                mat_revert_jrb_dl_shingles
                0x0000000007004d48                mat_jrb_dl_shingles
                0x0000000007004dd8                mat_revert_jrb_dl_wood
                0x0000000007004df8                mat_jrb_dl_wood
                0x0000000007004e88                mat_revert_jrb_dl_wood2
                0x0000000007004ea8                mat_jrb_dl_wood2
                0x0000000007004f38                mat_revert_jrb_dl_interior
                0x0000000007004f58                mat_jrb_dl_interior
                0x0000000007004fe8                mat_revert_jrb_dl_bricks
                0x0000000007005008                mat_jrb_dl_bricks
                0x0000000007005098                mat_revert_jrb_dl_dirt
                0x00000000070050b8                mat_jrb_dl_dirt
                0x0000000007005148                mat_revert_jrb_dl_stone_path
                0x0000000007005160                mat_jrb_dl_stone_path
                0x00000000070051d0                mat_revert_jrb_dl_dirt2
                0x00000000070051f0                mat_jrb_dl_dirt2
                0x0000000007005280                mat_revert_jrb_dl_dirt_with_grass
                0x00000000070052a0                mat_jrb_dl_dirt_with_grass
                0x0000000007005330                mat_revert_jrb_dl_grass
                0x0000000007005350                mat_jrb_dl_grass
                0x00000000070053e0                jrb_dl_wind_grate_010_mesh_layer_4_tri_0
                0x00000000070053f8                jrb_dl_wind_grate_010_mesh_layer_4_vtx_0
                0x0000000007005438                jrb_dl_wind_grate_010_mesh_layer_4_vtx_cull
                0x00000000070054b8                jrb_dl_wind_grate_009_mesh_layer_4_tri_0
                0x00000000070054d0                jrb_dl_wind_grate_009_mesh_layer_4_vtx_0
                0x0000000007005510                jrb_dl_wind_grate_009_mesh_layer_4_vtx_cull
                0x0000000007005590                jrb_dl_wind_grate_008_mesh_layer_4_tri_0
                0x00000000070055a8                jrb_dl_wind_grate_008_mesh_layer_4_vtx_0
                0x00000000070055e8                jrb_dl_wind_grate_008_mesh_layer_4_vtx_cull
                0x0000000007005668                jrb_dl_wind_grate_007_mesh_layer_4_tri_0
                0x0000000007005680                jrb_dl_wind_grate_007_mesh_layer_4_vtx_0
                0x00000000070056c0                jrb_dl_wind_grate_007_mesh_layer_4_vtx_cull
                0x0000000007005740                jrb_dl_wind_grate_006_mesh_layer_4_tri_0
                0x0000000007005780                jrb_dl_wind_grate_006_mesh_layer_4_vtx_0
                0x0000000007005900                jrb_dl_wind_grate_006_mesh_layer_4_vtx_cull
                0x0000000007005980                jrb_dl_wind_grate_005_mesh_layer_4_tri_0
                0x0000000007005998                jrb_dl_wind_grate_005_mesh_layer_4_vtx_0
                0x00000000070059d8                jrb_dl_wind_grate_005_mesh_layer_4_vtx_cull
                0x0000000007005a58                jrb_dl_wind_grate_004_mesh_layer_4_tri_0
                0x0000000007005a70                jrb_dl_wind_grate_004_mesh_layer_4_vtx_0
                0x0000000007005ab0                jrb_dl_wind_grate_004_mesh_layer_4_vtx_cull
                0x0000000007005b30                jrb_dl_wind_grate_003_mesh_layer_4_tri_0
                0x0000000007005b48                jrb_dl_wind_grate_003_mesh_layer_4_vtx_0
                0x0000000007005b88                jrb_dl_wind_grate_003_mesh_layer_4_vtx_cull
                0x0000000007005c08                jrb_dl_wind_grate_002_mesh_layer_4_tri_0
                0x0000000007005c20                jrb_dl_wind_grate_002_mesh_layer_4_vtx_0
                0x0000000007005c60                jrb_dl_wind_grate_002_mesh_layer_4_vtx_cull
                0x0000000007005ce0                jrb_dl_wind_grate_001_mesh_layer_4_tri_0
                0x0000000007005cf8                jrb_dl_wind_grate_001_mesh_layer_4_vtx_0
                0x0000000007005d38                jrb_dl_wind_grate_001_mesh_layer_4_vtx_cull
                0x0000000007005db8                jrb_dl_waterfall_mesh_layer_5_tri_0
                0x0000000007005e40                jrb_dl_waterfall_mesh_layer_5_vtx_0
                0x00000000070061c0                jrb_dl_waterfall_mesh_layer_5_vtx_cull
                0x0000000007006240                jrb_dl_wall_002_mesh_layer_1_tri_0
                0x00000000070062d0                jrb_dl_wall_002_mesh_layer_1_vtx_0
                0x00000000070065f0                jrb_dl_wall_002_mesh_layer_1_vtx_cull
                0x0000000007006670                jrb_dl_wall_001_mesh_layer_1_tri_1
                0x0000000007006690                jrb_dl_wall_001_mesh_layer_1_vtx_1
                0x0000000007006730                jrb_dl_wall_001_mesh_layer_1_tri_0
                0x00000000070068d8                jrb_dl_wall_001_mesh_layer_1_vtx_0
                0x00000000070071b8                jrb_dl_wall_001_mesh_layer_1_vtx_cull
                0x0000000007007238                jrb_dl_wall_mesh_layer_1_tri_0
                0x00000000070072c0                jrb_dl_wall_mesh_layer_1_vtx_0
                0x00000000070075c0                jrb_dl_wall_mesh_layer_1_vtx_cull
                0x0000000007007640                jrb_dl_small_fan_004_mesh_layer_1_tri_1
                0x0000000007007680                jrb_dl_small_fan_004_mesh_layer_1_vtx_1
                0x0000000007007800                jrb_dl_small_fan_004_mesh_layer_1_tri_0
                0x0000000007007878                jrb_dl_small_fan_004_mesh_layer_1_vtx_0
                0x0000000007007b78                jrb_dl_small_fan_004_mesh_layer_1_vtx_cull
                0x0000000007007bf8                jrb_dl_small_fan_003_mesh_layer_1_tri_1
                0x0000000007007c38                jrb_dl_small_fan_003_mesh_layer_1_vtx_1
                0x0000000007007db8                jrb_dl_small_fan_003_mesh_layer_1_tri_0
                0x0000000007007e30                jrb_dl_small_fan_003_mesh_layer_1_vtx_0
                0x0000000007008130                jrb_dl_small_fan_003_mesh_layer_1_vtx_cull
                0x00000000070081b0                jrb_dl_small_fan_002_mesh_layer_1_tri_1
                0x00000000070081f0                jrb_dl_small_fan_002_mesh_layer_1_vtx_1
                0x0000000007008370                jrb_dl_small_fan_002_mesh_layer_1_tri_0
                0x00000000070083e8                jrb_dl_small_fan_002_mesh_layer_1_vtx_0
                0x00000000070086e8                jrb_dl_small_fan_002_mesh_layer_1_vtx_cull
                0x0000000007008768                jrb_dl_small_fan_001_mesh_layer_1_tri_1
                0x00000000070087a8                jrb_dl_small_fan_001_mesh_layer_1_vtx_1
                0x0000000007008928                jrb_dl_small_fan_001_mesh_layer_1_tri_0
                0x00000000070089a0                jrb_dl_small_fan_001_mesh_layer_1_vtx_0
                0x0000000007008ca0                jrb_dl_small_fan_001_mesh_layer_1_vtx_cull
                0x0000000007008d20                jrb_dl_SM_Fountain_02_mesh_layer_1_tri_2
                0x0000000007009038                jrb_dl_SM_Fountain_02_mesh_layer_1_vtx_2
                0x000000000700a5a8                jrb_dl_SM_Fountain_02_mesh_layer_1_tri_1
                0x000000000700a6e0                jrb_dl_SM_Fountain_02_mesh_layer_1_vtx_1
                0x000000000700b0e0                jrb_dl_SM_Fountain_02_mesh_layer_1_tri_0
                0x000000000700c268                jrb_dl_SM_Fountain_02_mesh_layer_1_vtx_0
                0x0000000007013d88                jrb_dl_SM_Fountain_02_mesh_layer_1_vtx_cull
                0x0000000007013e08                jrb_dl_rock_012_mesh_layer_1_tri_2
                0x0000000007013e58                jrb_dl_rock_012_mesh_layer_1_vtx_2
                0x0000000007014058                jrb_dl_rock_012_mesh_layer_1_tri_1
                0x0000000007014088                jrb_dl_rock_012_mesh_layer_1_vtx_1
                0x0000000007014148                jrb_dl_rock_012_mesh_layer_1_tri_0
                0x0000000007014208                jrb_dl_rock_012_mesh_layer_1_vtx_0
                0x0000000007014708                jrb_dl_rock_012_mesh_layer_1_vtx_cull
                0x0000000007014788                jrb_dl_rock_011_mesh_layer_1_tri_0
                0x0000000007014870                jrb_dl_rock_011_mesh_layer_1_vtx_0
                0x0000000007014dd0                jrb_dl_rock_011_mesh_layer_1_vtx_cull
                0x0000000007014e50                jrb_dl_rock_010_mesh_layer_1_tri_0
                0x0000000007014f38                jrb_dl_rock_010_mesh_layer_1_vtx_0
                0x0000000007015498                jrb_dl_rock_010_mesh_layer_1_vtx_cull
                0x0000000007015518                jrb_dl_rock_009_mesh_layer_1_tri_0
                0x0000000007015600                jrb_dl_rock_009_mesh_layer_1_vtx_0
                0x0000000007015b60                jrb_dl_rock_009_mesh_layer_1_vtx_cull
                0x0000000007015be0                jrb_dl_rock_008_mesh_layer_1_tri_2
                0x0000000007015c30                jrb_dl_rock_008_mesh_layer_1_vtx_2
                0x0000000007015e30                jrb_dl_rock_008_mesh_layer_1_tri_1
                0x0000000007015e60                jrb_dl_rock_008_mesh_layer_1_vtx_1
                0x0000000007015f20                jrb_dl_rock_008_mesh_layer_1_tri_0
                0x0000000007015fe0                jrb_dl_rock_008_mesh_layer_1_vtx_0
                0x00000000070164e0                jrb_dl_rock_008_mesh_layer_1_vtx_cull
                0x0000000007016560                jrb_dl_rock_007_mesh_layer_1_tri_2
                0x00000000070165b0                jrb_dl_rock_007_mesh_layer_1_vtx_2
                0x00000000070167b0                jrb_dl_rock_007_mesh_layer_1_tri_1
                0x00000000070167e0                jrb_dl_rock_007_mesh_layer_1_vtx_1
                0x00000000070168a0                jrb_dl_rock_007_mesh_layer_1_tri_0
                0x0000000007016960                jrb_dl_rock_007_mesh_layer_1_vtx_0
                0x0000000007016e60                jrb_dl_rock_007_mesh_layer_1_vtx_cull
                0x0000000007016ee0                jrb_dl_rock_006_mesh_layer_1_tri_2
                0x0000000007016f30                jrb_dl_rock_006_mesh_layer_1_vtx_2
                0x0000000007017130                jrb_dl_rock_006_mesh_layer_1_tri_1
                0x0000000007017160                jrb_dl_rock_006_mesh_layer_1_vtx_1
                0x0000000007017220                jrb_dl_rock_006_mesh_layer_1_tri_0
                0x00000000070172e0                jrb_dl_rock_006_mesh_layer_1_vtx_0
                0x00000000070177e0                jrb_dl_rock_006_mesh_layer_1_vtx_cull
                0x0000000007017860                jrb_dl_rock_005_mesh_layer_1_tri_0
                0x0000000007017948                jrb_dl_rock_005_mesh_layer_1_vtx_0
                0x0000000007017ea8                jrb_dl_rock_005_mesh_layer_1_vtx_cull
                0x0000000007017f28                jrb_dl_rock_004_mesh_layer_1_tri_0
                0x0000000007018010                jrb_dl_rock_004_mesh_layer_1_vtx_0
                0x0000000007018570                jrb_dl_rock_004_mesh_layer_1_vtx_cull
                0x00000000070185f0                jrb_dl_rock_003_mesh_layer_1_tri_0
                0x00000000070186d8                jrb_dl_rock_003_mesh_layer_1_vtx_0
                0x0000000007018c38                jrb_dl_rock_003_mesh_layer_1_vtx_cull
                0x0000000007018cb8                jrb_dl_rock_002_mesh_layer_1_tri_0
                0x0000000007018da0                jrb_dl_rock_002_mesh_layer_1_vtx_0
                0x0000000007019300                jrb_dl_rock_002_mesh_layer_1_vtx_cull
                0x0000000007019380                jrb_dl_rock_001_mesh_layer_1_tri_0
                0x0000000007019468                jrb_dl_rock_001_mesh_layer_1_vtx_0
                0x00000000070199c8                jrb_dl_rock_001_mesh_layer_1_vtx_cull
                0x0000000007019a48                jrb_dl_rock_mesh_layer_1_tri_0
                0x0000000007019b30                jrb_dl_rock_mesh_layer_1_vtx_0
                0x000000000701a090                jrb_dl_rock_mesh_layer_1_vtx_cull
                0x000000000701a110                jrb_dl_render_048_mesh_layer_1_tri_1
                0x000000000701a278                jrb_dl_render_048_mesh_layer_1_vtx_1
                0x000000000701aa78                jrb_dl_render_048_mesh_layer_1_tri_0
                0x000000000701aaa0                jrb_dl_render_048_mesh_layer_1_vtx_0
                0x000000000701ab20                jrb_dl_render_048_mesh_layer_1_vtx_cull
                0x000000000701aba0                jrb_dl_Plane_mesh_layer_6_tri_0
                0x000000000701abd8                jrb_dl_Plane_mesh_layer_6_vtx_0
                0x000000000701ac58                jrb_dl_Plane_mesh_layer_6_vtx_cull
                0x000000000701acd8                jrb_dl_pillar_030_mesh_layer_1_tri_0
                0x000000000701ad18                jrb_dl_pillar_030_mesh_layer_1_vtx_0
                0x000000000701ae98                jrb_dl_pillar_030_mesh_layer_1_vtx_cull
                0x000000000701af18                jrb_dl_pillar_029_mesh_layer_1_tri_0
                0x000000000701af58                jrb_dl_pillar_029_mesh_layer_1_vtx_0
                0x000000000701b0d8                jrb_dl_pillar_029_mesh_layer_1_vtx_cull
                0x000000000701b158                jrb_dl_pillar_028_mesh_layer_1_tri_0
                0x000000000701b198                jrb_dl_pillar_028_mesh_layer_1_vtx_0
                0x000000000701b318                jrb_dl_pillar_028_mesh_layer_1_vtx_cull
                0x000000000701b398                jrb_dl_pillar_027_mesh_layer_1_tri_0
                0x000000000701b3d8                jrb_dl_pillar_027_mesh_layer_1_vtx_0
                0x000000000701b558                jrb_dl_pillar_027_mesh_layer_1_vtx_cull
                0x000000000701b5d8                jrb_dl_pillar_026_mesh_layer_1_tri_0
                0x000000000701b618                jrb_dl_pillar_026_mesh_layer_1_vtx_0
                0x000000000701b798                jrb_dl_pillar_026_mesh_layer_1_vtx_cull
                0x000000000701b818                jrb_dl_pillar_025_mesh_layer_1_tri_0
                0x000000000701b858                jrb_dl_pillar_025_mesh_layer_1_vtx_0
                0x000000000701b9d8                jrb_dl_pillar_025_mesh_layer_1_vtx_cull
                0x000000000701ba58                jrb_dl_pillar_024_mesh_layer_1_tri_0
                0x000000000701ba98                jrb_dl_pillar_024_mesh_layer_1_vtx_0
                0x000000000701bc18                jrb_dl_pillar_024_mesh_layer_1_vtx_cull
                0x000000000701bc98                jrb_dl_pillar_019_mesh_layer_1_tri_0
                0x000000000701bcd8                jrb_dl_pillar_019_mesh_layer_1_vtx_0
                0x000000000701be58                jrb_dl_pillar_019_mesh_layer_1_vtx_cull
                0x000000000701bed8                jrb_dl_pillar_014_mesh_layer_1_tri_0
                0x000000000701bf18                jrb_dl_pillar_014_mesh_layer_1_vtx_0
                0x000000000701c098                jrb_dl_pillar_014_mesh_layer_1_vtx_cull
                0x000000000701c118                jrb_dl_pillar_013_mesh_layer_1_tri_0
                0x000000000701c158                jrb_dl_pillar_013_mesh_layer_1_vtx_0
                0x000000000701c2d8                jrb_dl_pillar_013_mesh_layer_1_vtx_cull
                0x000000000701c358                jrb_dl_pillar_012_mesh_layer_1_tri_0
                0x000000000701c398                jrb_dl_pillar_012_mesh_layer_1_vtx_0
                0x000000000701c518                jrb_dl_pillar_012_mesh_layer_1_vtx_cull
                0x000000000701c598                jrb_dl_pillar_011_mesh_layer_1_tri_0
                0x000000000701c5d8                jrb_dl_pillar_011_mesh_layer_1_vtx_0
                0x000000000701c758                jrb_dl_pillar_011_mesh_layer_1_vtx_cull
                0x000000000701c7d8                jrb_dl_pillar_010_mesh_layer_1_tri_0
                0x000000000701c818                jrb_dl_pillar_010_mesh_layer_1_vtx_0
                0x000000000701c998                jrb_dl_pillar_010_mesh_layer_1_vtx_cull
                0x000000000701ca18                jrb_dl_pillar_009_mesh_layer_1_tri_0
                0x000000000701ca58                jrb_dl_pillar_009_mesh_layer_1_vtx_0
                0x000000000701cbd8                jrb_dl_pillar_009_mesh_layer_1_vtx_cull
                0x000000000701cc58                jrb_dl_pillar_008_mesh_layer_1_tri_0
                0x000000000701cc98                jrb_dl_pillar_008_mesh_layer_1_vtx_0
                0x000000000701ce18                jrb_dl_pillar_008_mesh_layer_1_vtx_cull
                0x000000000701ce98                jrb_dl_pillar_007_mesh_layer_1_tri_0
                0x000000000701ced8                jrb_dl_pillar_007_mesh_layer_1_vtx_0
                0x000000000701d058                jrb_dl_pillar_007_mesh_layer_1_vtx_cull
                0x000000000701d0d8                jrb_dl_pillar_006_mesh_layer_1_tri_0
                0x000000000701d118                jrb_dl_pillar_006_mesh_layer_1_vtx_0
                0x000000000701d298                jrb_dl_pillar_006_mesh_layer_1_vtx_cull
                0x000000000701d318                jrb_dl_pillar_005_mesh_layer_1_tri_0
                0x000000000701d358                jrb_dl_pillar_005_mesh_layer_1_vtx_0
                0x000000000701d4d8                jrb_dl_pillar_005_mesh_layer_1_vtx_cull
                0x000000000701d558                jrb_dl_pillar_004_mesh_layer_1_tri_0
                0x000000000701d598                jrb_dl_pillar_004_mesh_layer_1_vtx_0
                0x000000000701d718                jrb_dl_pillar_004_mesh_layer_1_vtx_cull
                0x000000000701d798                jrb_dl_pillar_003_mesh_layer_1_tri_0
                0x000000000701d7d8                jrb_dl_pillar_003_mesh_layer_1_vtx_0
                0x000000000701d958                jrb_dl_pillar_003_mesh_layer_1_vtx_cull
                0x000000000701d9d8                jrb_dl_pillar_002_mesh_layer_1_tri_0
                0x000000000701da18                jrb_dl_pillar_002_mesh_layer_1_vtx_0
                0x000000000701db98                jrb_dl_pillar_002_mesh_layer_1_vtx_cull
                0x000000000701dc18                jrb_dl_pillar_001_mesh_layer_1_tri_0
                0x000000000701dc58                jrb_dl_pillar_001_mesh_layer_1_vtx_0
                0x000000000701ddd8                jrb_dl_pillar_001_mesh_layer_1_vtx_cull
                0x000000000701de58                jrb_dl_pillar_mesh_layer_1_tri_2
                0x000000000701de98                jrb_dl_pillar_mesh_layer_1_vtx_2
                0x000000000701e018                jrb_dl_pillar_mesh_layer_1_tri_1
                0x000000000701e058                jrb_dl_pillar_mesh_layer_1_vtx_1
                0x000000000701e1d8                jrb_dl_pillar_mesh_layer_1_tri_0
                0x000000000701e260                jrb_dl_pillar_mesh_layer_1_vtx_0
                0x000000000701e5a0                jrb_dl_pillar_mesh_layer_1_vtx_cull
                0x000000000701e620                jrb_dl_path_002_mesh_layer_6_tri_0
                0x000000000701e780                jrb_dl_path_002_mesh_layer_6_vtx_0
                0x000000000701ec70                jrb_dl_path_002_mesh_layer_6_vtx_cull
                0x000000000701ecf0                jrb_dl_path_001_mesh_layer_6_tri_0
                0x000000000701efb8                jrb_dl_path_001_mesh_layer_6_vtx_0
                0x000000000701fb28                jrb_dl_path_001_mesh_layer_6_vtx_cull
                0x000000000701fba8                jrb_dl_path_mesh_layer_6_tri_0
                0x000000000701ffa8                jrb_dl_path_mesh_layer_6_vtx_0
                0x0000000007021298                jrb_dl_path_mesh_layer_6_vtx_cull
                0x0000000007021318                jrb_dl_mossy_stone_019_mesh_layer_1_tri_0
                0x0000000007021380                jrb_dl_mossy_stone_019_mesh_layer_1_vtx_0
                0x0000000007021600                jrb_dl_mossy_stone_019_mesh_layer_1_vtx_cull
                0x0000000007021680                jrb_dl_mossy_stone_018_mesh_layer_1_tri_0
                0x00000000070216e8                jrb_dl_mossy_stone_018_mesh_layer_1_vtx_0
                0x0000000007021968                jrb_dl_mossy_stone_018_mesh_layer_1_vtx_cull
                0x00000000070219e8                jrb_dl_mossy_stone_017_mesh_layer_1_tri_0
                0x0000000007021a50                jrb_dl_mossy_stone_017_mesh_layer_1_vtx_0
                0x0000000007021cd0                jrb_dl_mossy_stone_017_mesh_layer_1_vtx_cull
                0x0000000007021d50                jrb_dl_mossy_stone_016_mesh_layer_1_tri_0
                0x0000000007021db8                jrb_dl_mossy_stone_016_mesh_layer_1_vtx_0
                0x0000000007022038                jrb_dl_mossy_stone_016_mesh_layer_1_vtx_cull
                0x00000000070220b8                jrb_dl_mossy_stone_015_mesh_layer_1_tri_0
                0x0000000007022120                jrb_dl_mossy_stone_015_mesh_layer_1_vtx_0
                0x00000000070223a0                jrb_dl_mossy_stone_015_mesh_layer_1_vtx_cull
                0x0000000007022420                jrb_dl_mossy_stone_014_mesh_layer_1_tri_0
                0x0000000007022488                jrb_dl_mossy_stone_014_mesh_layer_1_vtx_0
                0x0000000007022708                jrb_dl_mossy_stone_014_mesh_layer_1_vtx_cull
                0x0000000007022788                jrb_dl_mossy_stone_013_mesh_layer_1_tri_0
                0x00000000070227f0                jrb_dl_mossy_stone_013_mesh_layer_1_vtx_0
                0x0000000007022a70                jrb_dl_mossy_stone_013_mesh_layer_1_vtx_cull
                0x0000000007022af0                jrb_dl_mossy_stone_012_mesh_layer_1_tri_0
                0x0000000007022b58                jrb_dl_mossy_stone_012_mesh_layer_1_vtx_0
                0x0000000007022dd8                jrb_dl_mossy_stone_012_mesh_layer_1_vtx_cull
                0x0000000007022e58                jrb_dl_mossy_stone_011_mesh_layer_1_tri_0
                0x0000000007022ec0                jrb_dl_mossy_stone_011_mesh_layer_1_vtx_0
                0x0000000007023140                jrb_dl_mossy_stone_011_mesh_layer_1_vtx_cull
                0x00000000070231c0                jrb_dl_mossy_stone_010_mesh_layer_1_tri_0
                0x0000000007023228                jrb_dl_mossy_stone_010_mesh_layer_1_vtx_0
                0x00000000070234a8                jrb_dl_mossy_stone_010_mesh_layer_1_vtx_cull
                0x0000000007023528                jrb_dl_mossy_stone_009_mesh_layer_1_tri_0
                0x0000000007023590                jrb_dl_mossy_stone_009_mesh_layer_1_vtx_0
                0x0000000007023810                jrb_dl_mossy_stone_009_mesh_layer_1_vtx_cull
                0x0000000007023890                jrb_dl_mossy_stone_008_mesh_layer_1_tri_0
                0x00000000070238f8                jrb_dl_mossy_stone_008_mesh_layer_1_vtx_0
                0x0000000007023b78                jrb_dl_mossy_stone_008_mesh_layer_1_vtx_cull
                0x0000000007023bf8                jrb_dl_mossy_stone_007_mesh_layer_1_tri_0
                0x0000000007023c60                jrb_dl_mossy_stone_007_mesh_layer_1_vtx_0
                0x0000000007023ee0                jrb_dl_mossy_stone_007_mesh_layer_1_vtx_cull
                0x0000000007023f60                jrb_dl_mossy_stone_006_mesh_layer_1_tri_0
                0x0000000007023fc8                jrb_dl_mossy_stone_006_mesh_layer_1_vtx_0
                0x0000000007024248                jrb_dl_mossy_stone_006_mesh_layer_1_vtx_cull
                0x00000000070242c8                jrb_dl_mossy_stone_005_mesh_layer_1_tri_0
                0x0000000007024330                jrb_dl_mossy_stone_005_mesh_layer_1_vtx_0
                0x00000000070245b0                jrb_dl_mossy_stone_005_mesh_layer_1_vtx_cull
                0x0000000007024630                jrb_dl_mossy_stone_004_mesh_layer_1_tri_0
                0x0000000007024698                jrb_dl_mossy_stone_004_mesh_layer_1_vtx_0
                0x0000000007024918                jrb_dl_mossy_stone_004_mesh_layer_1_vtx_cull
                0x0000000007024998                jrb_dl_mossy_stone_003_mesh_layer_1_tri_0
                0x0000000007024a00                jrb_dl_mossy_stone_003_mesh_layer_1_vtx_0
                0x0000000007024c80                jrb_dl_mossy_stone_003_mesh_layer_1_vtx_cull
                0x0000000007024d00                jrb_dl_mossy_stone_002_mesh_layer_1_tri_0
                0x0000000007024d68                jrb_dl_mossy_stone_002_mesh_layer_1_vtx_0
                0x0000000007024fe8                jrb_dl_mossy_stone_002_mesh_layer_1_vtx_cull
                0x0000000007025068                jrb_dl_mossy_stone_001_mesh_layer_1_tri_0
                0x00000000070250d0                jrb_dl_mossy_stone_001_mesh_layer_1_vtx_0
                0x0000000007025350                jrb_dl_mossy_stone_001_mesh_layer_1_vtx_cull
                0x00000000070253d0                jrb_dl_mossy_stone_mesh_layer_1_tri_0
                0x0000000007025438                jrb_dl_mossy_stone_mesh_layer_1_vtx_0
                0x00000000070256b8                jrb_dl_mossy_stone_mesh_layer_1_vtx_cull
                0x0000000007025738                jrb_dl_Mesh_Owl_mesh_layer_1_tri_0
                0x0000000007025f00                jrb_dl_Mesh_Owl_mesh_layer_1_vtx_0
                0x0000000007029440                jrb_dl_Mesh_Owl_mesh_layer_1_vtx_cull
                0x00000000070294c0                jrb_dl_massive_pillar_003_mesh_layer_4_tri_0
                0x0000000007029500                jrb_dl_massive_pillar_003_mesh_layer_4_vtx_0
                0x0000000007029610                jrb_dl_massive_pillar_003_mesh_layer_4_vtx_cull
                0x0000000007029690                jrb_dl_massive_pillar_mesh_layer_1_tri_4
                0x00000000070296f8                jrb_dl_massive_pillar_mesh_layer_1_vtx_4
                0x0000000007029978                jrb_dl_massive_pillar_mesh_layer_1_tri_3
                0x0000000007029a40                jrb_dl_massive_pillar_mesh_layer_1_vtx_3
                0x0000000007029da0                jrb_dl_massive_pillar_mesh_layer_1_tri_2
                0x0000000007029e28                jrb_dl_massive_pillar_mesh_layer_1_vtx_2
                0x000000000702a188                jrb_dl_massive_pillar_mesh_layer_1_tri_1
                0x000000000702a1d8                jrb_dl_massive_pillar_mesh_layer_1_vtx_1
                0x000000000702a3d8                jrb_dl_massive_pillar_mesh_layer_1_tri_0
                0x000000000702a688                jrb_dl_massive_pillar_mesh_layer_1_vtx_0
                0x000000000702b6c8                jrb_dl_massive_pillar_mesh_layer_1_vtx_cull
                0x000000000702b748                jrb_dl_Icosphere_015_mesh_layer_1_tri_0
                0x000000000702bd50                jrb_dl_Icosphere_015_mesh_layer_1_vtx_0
                0x000000000702f950                jrb_dl_Icosphere_015_mesh_layer_1_vtx_cull
                0x000000000702f9d0                jrb_dl_Icosphere_008_mesh_layer_1_tri_0
                0x000000000702ffd8                jrb_dl_Icosphere_008_mesh_layer_1_vtx_0
                0x0000000007033bd8                jrb_dl_Icosphere_008_mesh_layer_1_vtx_cull
                0x0000000007033c58                jrb_dl_Icosphere_007_mesh_layer_1_tri_0
                0x0000000007034260                jrb_dl_Icosphere_007_mesh_layer_1_vtx_0
                0x0000000007037e60                jrb_dl_Icosphere_007_mesh_layer_1_vtx_cull
                0x0000000007037ee0                jrb_dl_Icosphere_006_mesh_layer_1_tri_0
                0x00000000070384e8                jrb_dl_Icosphere_006_mesh_layer_1_vtx_0
                0x000000000703c0e8                jrb_dl_Icosphere_006_mesh_layer_1_vtx_cull
                0x000000000703c168                jrb_dl_Icosphere_005_mesh_layer_1_tri_0
                0x000000000703c770                jrb_dl_Icosphere_005_mesh_layer_1_vtx_0
                0x0000000007040370                jrb_dl_Icosphere_005_mesh_layer_1_vtx_cull
                0x00000000070403f0                jrb_dl_Icosphere_004_mesh_layer_1_tri_0
                0x00000000070409f8                jrb_dl_Icosphere_004_mesh_layer_1_vtx_0
                0x00000000070445f8                jrb_dl_Icosphere_004_mesh_layer_1_vtx_cull
                0x0000000007044678                jrb_dl_Icosphere_003_mesh_layer_1_tri_0
                0x0000000007044c80                jrb_dl_Icosphere_003_mesh_layer_1_vtx_0
                0x0000000007048880                jrb_dl_Icosphere_003_mesh_layer_1_vtx_cull
                0x0000000007048900                jrb_dl_Icosphere_002_mesh_layer_1_tri_0
                0x0000000007048f08                jrb_dl_Icosphere_002_mesh_layer_1_vtx_0
                0x000000000704cb08                jrb_dl_Icosphere_002_mesh_layer_1_vtx_cull
                0x000000000704cb88                jrb_dl_Icosphere_001_mesh_layer_1_tri_0
                0x000000000704d190                jrb_dl_Icosphere_001_mesh_layer_1_vtx_0
                0x0000000007050d90                jrb_dl_Icosphere_001_mesh_layer_1_vtx_cull
                0x0000000007050e10                jrb_dl_Houses_SecondAge_3_Level1_004_mesh_layer_1_tri_4
                0x0000000007050e60                jrb_dl_Houses_SecondAge_3_Level1_004_mesh_layer_1_vtx_4
                0x0000000007051030                jrb_dl_Houses_SecondAge_3_Level1_004_mesh_layer_1_tri_3
                0x0000000007051330                jrb_dl_Houses_SecondAge_3_Level1_004_mesh_layer_1_vtx_3
                0x0000000007052830                jrb_dl_Houses_SecondAge_3_Level1_004_mesh_layer_1_tri_2
                0x0000000007052b78                jrb_dl_Houses_SecondAge_3_Level1_004_mesh_layer_1_vtx_2
                0x0000000007054278                jrb_dl_Houses_SecondAge_3_Level1_004_mesh_layer_1_tri_1
                0x0000000007054298                jrb_dl_Houses_SecondAge_3_Level1_004_mesh_layer_1_vtx_1
                0x0000000007054318                jrb_dl_Houses_SecondAge_3_Level1_004_mesh_layer_1_tri_0
                0x00000000070543b0                jrb_dl_Houses_SecondAge_3_Level1_004_mesh_layer_1_vtx_0
                0x0000000007054790                jrb_dl_Houses_SecondAge_3_Level1_004_mesh_layer_1_vtx_cull
                0x0000000007054810                jrb_dl_Houses_SecondAge_3_Level1_003_mesh_layer_1_tri_4
                0x0000000007054860                jrb_dl_Houses_SecondAge_3_Level1_003_mesh_layer_1_vtx_4
                0x0000000007054a30                jrb_dl_Houses_SecondAge_3_Level1_003_mesh_layer_1_tri_3
                0x0000000007054d38                jrb_dl_Houses_SecondAge_3_Level1_003_mesh_layer_1_vtx_3
                0x0000000007056278                jrb_dl_Houses_SecondAge_3_Level1_003_mesh_layer_1_tri_2
                0x00000000070565b8                jrb_dl_Houses_SecondAge_3_Level1_003_mesh_layer_1_vtx_2
                0x0000000007057c78                jrb_dl_Houses_SecondAge_3_Level1_003_mesh_layer_1_tri_1
                0x0000000007057c98                jrb_dl_Houses_SecondAge_3_Level1_003_mesh_layer_1_vtx_1
                0x0000000007057d18                jrb_dl_Houses_SecondAge_3_Level1_003_mesh_layer_1_tri_0
                0x0000000007057db0                jrb_dl_Houses_SecondAge_3_Level1_003_mesh_layer_1_vtx_0
                0x0000000007058190                jrb_dl_Houses_SecondAge_3_Level1_003_mesh_layer_1_vtx_cull
                0x0000000007058210                jrb_dl_Houses_SecondAge_3_Level1_002_mesh_layer_1_tri_4
                0x0000000007058260                jrb_dl_Houses_SecondAge_3_Level1_002_mesh_layer_1_vtx_4
                0x0000000007058430                jrb_dl_Houses_SecondAge_3_Level1_002_mesh_layer_1_tri_3
                0x0000000007058730                jrb_dl_Houses_SecondAge_3_Level1_002_mesh_layer_1_vtx_3
                0x0000000007059c30                jrb_dl_Houses_SecondAge_3_Level1_002_mesh_layer_1_tri_2
                0x0000000007059f78                jrb_dl_Houses_SecondAge_3_Level1_002_mesh_layer_1_vtx_2
                0x000000000705b678                jrb_dl_Houses_SecondAge_3_Level1_002_mesh_layer_1_tri_1
                0x000000000705b698                jrb_dl_Houses_SecondAge_3_Level1_002_mesh_layer_1_vtx_1
                0x000000000705b718                jrb_dl_Houses_SecondAge_3_Level1_002_mesh_layer_1_tri_0
                0x000000000705b7b0                jrb_dl_Houses_SecondAge_3_Level1_002_mesh_layer_1_vtx_0
                0x000000000705bb90                jrb_dl_Houses_SecondAge_3_Level1_002_mesh_layer_1_vtx_cull
                0x000000000705bc10                jrb_dl_Houses_SecondAge_3_Level1_001_mesh_layer_1_tri_4
                0x000000000705bc60                jrb_dl_Houses_SecondAge_3_Level1_001_mesh_layer_1_vtx_4
                0x000000000705be30                jrb_dl_Houses_SecondAge_3_Level1_001_mesh_layer_1_tri_3
                0x000000000705c138                jrb_dl_Houses_SecondAge_3_Level1_001_mesh_layer_1_vtx_3
                0x000000000705d678                jrb_dl_Houses_SecondAge_3_Level1_001_mesh_layer_1_tri_2
                0x000000000705d9b8                jrb_dl_Houses_SecondAge_3_Level1_001_mesh_layer_1_vtx_2
                0x000000000705f078                jrb_dl_Houses_SecondAge_3_Level1_001_mesh_layer_1_tri_1
                0x000000000705f098                jrb_dl_Houses_SecondAge_3_Level1_001_mesh_layer_1_vtx_1
                0x000000000705f118                jrb_dl_Houses_SecondAge_3_Level1_001_mesh_layer_1_tri_0
                0x000000000705f1b0                jrb_dl_Houses_SecondAge_3_Level1_001_mesh_layer_1_vtx_0
                0x000000000705f590                jrb_dl_Houses_SecondAge_3_Level1_001_mesh_layer_1_vtx_cull
                0x000000000705f610                jrb_dl_Houses_SecondAge_3_Level1_mesh_layer_1_tri_4
                0x000000000705f660                jrb_dl_Houses_SecondAge_3_Level1_mesh_layer_1_vtx_4
                0x000000000705f830                jrb_dl_Houses_SecondAge_3_Level1_mesh_layer_1_tri_3
                0x000000000705fb30                jrb_dl_Houses_SecondAge_3_Level1_mesh_layer_1_vtx_3
                0x0000000007061030                jrb_dl_Houses_SecondAge_3_Level1_mesh_layer_1_tri_2
                0x0000000007061378                jrb_dl_Houses_SecondAge_3_Level1_mesh_layer_1_vtx_2
                0x0000000007062a78                jrb_dl_Houses_SecondAge_3_Level1_mesh_layer_1_tri_1
                0x0000000007062a98                jrb_dl_Houses_SecondAge_3_Level1_mesh_layer_1_vtx_1
                0x0000000007062b18                jrb_dl_Houses_SecondAge_3_Level1_mesh_layer_1_tri_0
                0x0000000007062bb0                jrb_dl_Houses_SecondAge_3_Level1_mesh_layer_1_vtx_0
                0x0000000007062f90                jrb_dl_Houses_SecondAge_3_Level1_mesh_layer_1_vtx_cull
                0x0000000007063010                jrb_dl_Houses_SecondAge_1_Level1_001_mesh_layer_1_tri_4
                0x00000000070630d0                jrb_dl_Houses_SecondAge_1_Level1_001_mesh_layer_1_vtx_4
                0x00000000070635d0                jrb_dl_Houses_SecondAge_1_Level1_001_mesh_layer_1_tri_3
                0x0000000007063620                jrb_dl_Houses_SecondAge_1_Level1_001_mesh_layer_1_vtx_3
                0x0000000007063800                jrb_dl_Houses_SecondAge_1_Level1_001_mesh_layer_1_tri_2
                0x0000000007063f68                jrb_dl_Houses_SecondAge_1_Level1_001_mesh_layer_1_vtx_2
                0x0000000007067388                jrb_dl_Houses_SecondAge_1_Level1_001_mesh_layer_1_tri_1
                0x00000000070673c8                jrb_dl_Houses_SecondAge_1_Level1_001_mesh_layer_1_vtx_1
                0x0000000007067538                jrb_dl_Houses_SecondAge_1_Level1_001_mesh_layer_1_tri_0
                0x0000000007067558                jrb_dl_Houses_SecondAge_1_Level1_001_mesh_layer_1_vtx_0
                0x00000000070675d8                jrb_dl_Houses_SecondAge_1_Level1_001_mesh_layer_1_vtx_cull
                0x0000000007067658                jrb_dl_flowers_002_mesh_layer_5_tri_0
                0x0000000007067708                jrb_dl_flowers_002_mesh_layer_5_vtx_0
                0x0000000007067a48                jrb_dl_flowers_002_mesh_layer_5_vtx_cull
                0x0000000007067ac8                jrb_dl_flowers_002_mesh_layer_4_tri_0
                0x0000000007067b18                jrb_dl_flowers_002_mesh_layer_4_vtx_0
                0x0000000007067cb8                jrb_dl_flowers_002_mesh_layer_4_vtx_cull
                0x0000000007067d38                jrb_dl_flowers_001_mesh_layer_5_tri_0
                0x0000000007067dd0                jrb_dl_flowers_001_mesh_layer_5_vtx_0
                0x00000000070680d0                jrb_dl_flowers_001_mesh_layer_5_vtx_cull
                0x0000000007068150                jrb_dl_flowers_001_mesh_layer_4_tri_0
                0x00000000070681a0                jrb_dl_flowers_001_mesh_layer_4_vtx_0
                0x0000000007068300                jrb_dl_flowers_001_mesh_layer_4_vtx_cull
                0x0000000007068380                jrb_dl_flowers_mesh_layer_5_tri_0
                0x0000000007068418                jrb_dl_flowers_mesh_layer_5_vtx_0
                0x0000000007068718                jrb_dl_flowers_mesh_layer_5_vtx_cull
                0x0000000007068798                jrb_dl_flowers_mesh_layer_4_tri_0
                0x00000000070687e8                jrb_dl_flowers_mesh_layer_4_vtx_0
                0x0000000007068948                jrb_dl_flowers_mesh_layer_4_vtx_cull
                0x00000000070689c8                jrb_dl_death_plane_mesh_layer_1_tri_0
                0x00000000070689e0                jrb_dl_death_plane_mesh_layer_1_vtx_0
                0x0000000007068a20                jrb_dl_death_plane_mesh_layer_1_vtx_cull
                0x0000000007068aa0                jrb_dl_Cylinder_006_mesh_layer_1_tri_2
                0x0000000007068b30                jrb_dl_Cylinder_006_mesh_layer_1_vtx_2
                0x0000000007068e20                jrb_dl_Cylinder_006_mesh_layer_1_tri_1
                0x0000000007068fd8                jrb_dl_Cylinder_006_mesh_layer_1_vtx_1
                0x00000000070698e8                jrb_dl_Cylinder_006_mesh_layer_1_tri_0
                0x0000000007069a20                jrb_dl_Cylinder_006_mesh_layer_1_vtx_0
                0x000000000706a050                jrb_dl_Cylinder_006_mesh_layer_1_vtx_cull
                0x000000000706a0d0                jrb_dl_Cylinder_005_mesh_layer_1_tri_1
                0x000000000706a498                jrb_dl_Cylinder_005_mesh_layer_1_vtx_1
                0x000000000706b7b8                jrb_dl_Cylinder_005_mesh_layer_1_tri_0
                0x000000000706bb50                jrb_dl_Cylinder_005_mesh_layer_1_vtx_0
                0x000000000706cde0                jrb_dl_Cylinder_005_mesh_layer_1_vtx_cull
                0x000000000706ce60                jrb_dl_Cylinder_004_mesh_layer_1_tri_1
                0x000000000706d208                jrb_dl_Cylinder_004_mesh_layer_1_vtx_1
                0x000000000706e478                jrb_dl_Cylinder_004_mesh_layer_1_tri_0
                0x000000000706e7e8                jrb_dl_Cylinder_004_mesh_layer_1_vtx_0
                0x000000000706f9b8                jrb_dl_Cylinder_004_mesh_layer_1_vtx_cull
                0x000000000706fa38                jrb_dl_Cylinder_003_mesh_layer_1_tri_1
                0x000000000706fac0                jrb_dl_Cylinder_003_mesh_layer_1_vtx_1
                0x000000000706fcc0                jrb_dl_Cylinder_003_mesh_layer_1_tri_0
                0x000000000706fe68                jrb_dl_Cylinder_003_mesh_layer_1_vtx_0
                0x0000000007070868                jrb_dl_Cylinder_003_mesh_layer_1_vtx_cull
                0x00000000070708e8                jrb_dl_Cylinder_002_mesh_layer_1_tri_1
                0x0000000007070970                jrb_dl_Cylinder_002_mesh_layer_1_vtx_1
                0x0000000007070b70                jrb_dl_Cylinder_002_mesh_layer_1_tri_0
                0x0000000007070d18                jrb_dl_Cylinder_002_mesh_layer_1_vtx_0
                0x0000000007071718                jrb_dl_Cylinder_002_mesh_layer_1_vtx_cull
                0x0000000007071798                jrb_dl_Cylinder_001_mesh_layer_6_tri_0
                0x00000000070717f0                jrb_dl_Cylinder_001_mesh_layer_6_vtx_0
                0x00000000070718e0                jrb_dl_Cylinder_001_mesh_layer_6_vtx_cull
                0x0000000007071960                jrb_dl_Cylinder_mesh_layer_1_tri_2
                0x00000000070719f0                jrb_dl_Cylinder_mesh_layer_1_vtx_2
                0x0000000007071db0                jrb_dl_Cylinder_mesh_layer_1_tri_1
                0x0000000007071f38                jrb_dl_Cylinder_mesh_layer_1_vtx_1
                0x0000000007072868                jrb_dl_Cylinder_mesh_layer_1_tri_0
                0x0000000007072930                jrb_dl_Cylinder_mesh_layer_1_vtx_0
                0x0000000007072c40                jrb_dl_Cylinder_mesh_layer_1_vtx_cull
                0x0000000007072cc0                jrb_dl_Cube_064_mesh_layer_1_tri_5
                0x0000000007072d10                jrb_dl_Cube_064_mesh_layer_1_vtx_5
                0x0000000007072e20                jrb_dl_Cube_064_mesh_layer_1_tri_4
                0x0000000007072e60                jrb_dl_Cube_064_mesh_layer_1_vtx_4
                0x0000000007072fe0                jrb_dl_Cube_064_mesh_layer_1_tri_3
                0x0000000007073020                jrb_dl_Cube_064_mesh_layer_1_vtx_3
                0x00000000070731a0                jrb_dl_Cube_064_mesh_layer_1_tri_2
                0x0000000007073208                jrb_dl_Cube_064_mesh_layer_1_vtx_2
                0x0000000007073488                jrb_dl_Cube_064_mesh_layer_1_tri_1
                0x0000000007073668                jrb_dl_Cube_064_mesh_layer_1_vtx_1
                0x00000000070742e8                jrb_dl_Cube_064_mesh_layer_1_tri_0
                0x0000000007075060                jrb_dl_Cube_064_mesh_layer_1_vtx_0
                0x0000000007079cc0                jrb_dl_Cube_064_mesh_layer_1_vtx_cull
                0x0000000007079d40                jrb_dl_Cube_058_mesh_layer_1_tri_0
                0x0000000007079f08                jrb_dl_Cube_058_mesh_layer_1_vtx_0
                0x000000000707aac8                jrb_dl_Cube_058_mesh_layer_1_vtx_cull
                0x000000000707ab48                jrb_dl_Cube_055_mesh_layer_1_tri_0
                0x000000000707ab88                jrb_dl_Cube_055_mesh_layer_1_vtx_0
                0x000000000707ad08                jrb_dl_Cube_055_mesh_layer_1_vtx_cull
                0x000000000707ad88                jrb_dl_Cube_054_mesh_layer_6_tri_0
                0x000000000707ae50                jrb_dl_Cube_054_mesh_layer_6_vtx_0
                0x000000000707b050                jrb_dl_Cube_054_mesh_layer_6_vtx_cull
                0x000000000707b0d0                jrb_dl_Cube_053_mesh_layer_6_tri_0
                0x000000000707b198                jrb_dl_Cube_053_mesh_layer_6_vtx_0
                0x000000000707b398                jrb_dl_Cube_053_mesh_layer_6_vtx_cull
                0x000000000707b418                jrb_dl_Cube_051_mesh_layer_1_tri_0
                0x000000000707b5e0                jrb_dl_Cube_051_mesh_layer_1_vtx_0
                0x000000000707c1a0                jrb_dl_Cube_051_mesh_layer_1_vtx_cull
                0x000000000707c220                jrb_dl_Cube_050_mesh_layer_1_tri_1
                0x000000000707c298                jrb_dl_Cube_050_mesh_layer_1_vtx_1
                0x000000000707c568                jrb_dl_Cube_050_mesh_layer_1_tri_0
                0x000000000707c5e0                jrb_dl_Cube_050_mesh_layer_1_vtx_0
                0x000000000707c8b0                jrb_dl_Cube_050_mesh_layer_1_vtx_cull
                0x000000000707c930                jrb_dl_Cube_049_mesh_layer_1_tri_1
                0x000000000707ca38                jrb_dl_Cube_049_mesh_layer_1_vtx_1
                0x000000000707d0c8                jrb_dl_Cube_049_mesh_layer_1_tri_0
                0x000000000707d188                jrb_dl_Cube_049_mesh_layer_1_vtx_0
                0x000000000707d628                jrb_dl_Cube_049_mesh_layer_1_vtx_cull
                0x000000000707d6a8                jrb_dl_Cube_048_mesh_layer_1_tri_0
                0x000000000707d6e8                jrb_dl_Cube_048_mesh_layer_1_vtx_0
                0x000000000707d868                jrb_dl_Cube_048_mesh_layer_1_vtx_cull
                0x000000000707d8e8                jrb_dl_Cube_047_mesh_layer_1_tri_0
                0x000000000707d928                jrb_dl_Cube_047_mesh_layer_1_vtx_0
                0x000000000707daa8                jrb_dl_Cube_047_mesh_layer_1_vtx_cull
                0x000000000707db28                jrb_dl_Cube_046_mesh_layer_6_tri_0
                0x000000000707dbf0                jrb_dl_Cube_046_mesh_layer_6_vtx_0
                0x000000000707ddf0                jrb_dl_Cube_046_mesh_layer_6_vtx_cull
                0x000000000707de70                jrb_dl_Cube_045_mesh_layer_1_tri_1
                0x000000000707dea0                jrb_dl_Cube_045_mesh_layer_1_vtx_1
                0x000000000707dfa0                jrb_dl_Cube_045_mesh_layer_1_tri_0
                0x000000000707dfc0                jrb_dl_Cube_045_mesh_layer_1_vtx_0
                0x000000000707e040                jrb_dl_Cube_045_mesh_layer_1_vtx_cull
                0x000000000707e0c0                jrb_dl_Cube_044_mesh_layer_1_tri_1
                0x000000000707e160                jrb_dl_Cube_044_mesh_layer_1_vtx_1
                0x000000000707e430                jrb_dl_Cube_044_mesh_layer_1_tri_0
                0x000000000707e550                jrb_dl_Cube_044_mesh_layer_1_vtx_0
                0x000000000707ea30                jrb_dl_Cube_044_mesh_layer_1_vtx_cull
                0x000000000707eab0                jrb_dl_Cube_043_mesh_layer_1_tri_0
                0x000000000707eae0                jrb_dl_Cube_043_mesh_layer_1_vtx_0
                0x000000000707ec00                jrb_dl_Cube_043_mesh_layer_1_vtx_cull
                0x000000000707ec80                jrb_dl_Cube_042_mesh_layer_1_tri_1
                0x000000000707ed78                jrb_dl_Cube_042_mesh_layer_1_vtx_1
                0x000000000707f298                jrb_dl_Cube_042_mesh_layer_1_tri_0
                0x000000000707f438                jrb_dl_Cube_042_mesh_layer_1_vtx_0
                0x000000000707fc68                jrb_dl_Cube_042_mesh_layer_1_vtx_cull
                0x000000000707fce8                jrb_dl_Cube_041_mesh_layer_1_tri_0
                0x000000000707fd28                jrb_dl_Cube_041_mesh_layer_1_vtx_0
                0x000000000707fea8                jrb_dl_Cube_041_mesh_layer_1_vtx_cull
                0x000000000707ff28                jrb_dl_Cube_040_mesh_layer_1_tri_0
                0x000000000707ff68                jrb_dl_Cube_040_mesh_layer_1_vtx_0
                0x00000000070800e8                jrb_dl_Cube_040_mesh_layer_1_vtx_cull
                0x0000000007080168                jrb_dl_Cube_039_mesh_layer_1_tri_0
                0x0000000007080198                jrb_dl_Cube_039_mesh_layer_1_vtx_0
                0x00000000070802b8                jrb_dl_Cube_039_mesh_layer_1_vtx_cull
                0x0000000007080338                jrb_dl_Cube_038_mesh_layer_5_tri_0
                0x0000000007080358                jrb_dl_Cube_038_mesh_layer_5_vtx_0
                0x00000000070803b8                jrb_dl_Cube_038_mesh_layer_5_vtx_cull
                0x0000000007080438                jrb_dl_Cube_037_mesh_layer_1_tri_0
                0x0000000007080478                jrb_dl_Cube_037_mesh_layer_1_vtx_0
                0x00000000070805f8                jrb_dl_Cube_037_mesh_layer_1_vtx_cull
                0x0000000007080678                jrb_dl_Cube_036_mesh_layer_1_tri_1
                0x00000000070806a8                jrb_dl_Cube_036_mesh_layer_1_vtx_1
                0x00000000070807a8                jrb_dl_Cube_036_mesh_layer_1_tri_0
                0x00000000070807c8                jrb_dl_Cube_036_mesh_layer_1_vtx_0
                0x0000000007080848                jrb_dl_Cube_036_mesh_layer_1_vtx_cull
                0x00000000070808c8                jrb_dl_Cube_035_mesh_layer_5_tri_0
                0x0000000007080908                jrb_dl_Cube_035_mesh_layer_5_vtx_0
                0x0000000007080a88                jrb_dl_Cube_035_mesh_layer_5_vtx_cull
                0x0000000007080b08                jrb_dl_Cube_035_mesh_layer_4_tri_0
                0x0000000007080b48                jrb_dl_Cube_035_mesh_layer_4_vtx_0
                0x0000000007080cc8                jrb_dl_Cube_035_mesh_layer_4_vtx_cull
                0x0000000007080d48                jrb_dl_Cube_035_mesh_layer_1_tri_9
                0x0000000007081cb0                jrb_dl_Cube_035_mesh_layer_1_vtx_9
                0x00000000070887a0                jrb_dl_Cube_035_mesh_layer_1_tri_8
                0x0000000007088970                jrb_dl_Cube_035_mesh_layer_1_vtx_8
                0x0000000007089430                jrb_dl_Cube_035_mesh_layer_1_tri_7
                0x0000000007089460                jrb_dl_Cube_035_mesh_layer_1_vtx_7
                0x0000000007089550                jrb_dl_Cube_035_mesh_layer_1_tri_6
                0x00000000070896e0                jrb_dl_Cube_035_mesh_layer_1_vtx_6
                0x0000000007089fc0                jrb_dl_Cube_035_mesh_layer_1_tri_5
                0x000000000708a070                jrb_dl_Cube_035_mesh_layer_1_vtx_5
                0x000000000708a4f0                jrb_dl_Cube_035_mesh_layer_1_tri_4
                0x000000000708a828                jrb_dl_Cube_035_mesh_layer_1_vtx_4
                0x000000000708bea8                jrb_dl_Cube_035_mesh_layer_1_tri_3
                0x000000000708bee0                jrb_dl_Cube_035_mesh_layer_1_vtx_3
                0x000000000708bff0                jrb_dl_Cube_035_mesh_layer_1_tri_2
                0x000000000708c030                jrb_dl_Cube_035_mesh_layer_1_vtx_2
                0x000000000708c1b0                jrb_dl_Cube_035_mesh_layer_1_tri_1
                0x000000000708c390                jrb_dl_Cube_035_mesh_layer_1_vtx_1
                0x000000000708ce20                jrb_dl_Cube_035_mesh_layer_1_tri_0
                0x000000000708ce80                jrb_dl_Cube_035_mesh_layer_1_vtx_0
                0x000000000708d040                jrb_dl_Cube_035_mesh_layer_1_vtx_cull
                0x000000000708d0c0                jrb_dl_Cube_034_mesh_layer_1_tri_1
                0x000000000708d0f0                jrb_dl_Cube_034_mesh_layer_1_vtx_1
                0x000000000708d1f0                jrb_dl_Cube_034_mesh_layer_1_tri_0
                0x000000000708d210                jrb_dl_Cube_034_mesh_layer_1_vtx_0
                0x000000000708d290                jrb_dl_Cube_034_mesh_layer_1_vtx_cull
                0x000000000708d310                jrb_dl_Cube_033_mesh_layer_6_tri_0
                0x000000000708d3d8                jrb_dl_Cube_033_mesh_layer_6_vtx_0
                0x000000000708d5d8                jrb_dl_Cube_033_mesh_layer_6_vtx_cull
                0x000000000708d658                jrb_dl_Cube_032_mesh_layer_1_tri_0
                0x000000000708d6d0                jrb_dl_Cube_032_mesh_layer_1_vtx_0
                0x000000000708d9d0                jrb_dl_Cube_032_mesh_layer_1_vtx_cull
                0x000000000708da50                jrb_dl_Cube_031_mesh_layer_1_tri_1
                0x000000000708da80                jrb_dl_Cube_031_mesh_layer_1_vtx_1
                0x000000000708db80                jrb_dl_Cube_031_mesh_layer_1_tri_0
                0x000000000708dba0                jrb_dl_Cube_031_mesh_layer_1_vtx_0
                0x000000000708dc20                jrb_dl_Cube_031_mesh_layer_1_vtx_cull
                0x000000000708dca0                jrb_dl_Cube_030_mesh_layer_1_tri_0
                0x000000000708de68                jrb_dl_Cube_030_mesh_layer_1_vtx_0
                0x000000000708ea28                jrb_dl_Cube_030_mesh_layer_1_vtx_cull
                0x000000000708eaa8                jrb_dl_Cube_029_mesh_layer_1_tri_0
                0x000000000708ec70                jrb_dl_Cube_029_mesh_layer_1_vtx_0
                0x000000000708f830                jrb_dl_Cube_029_mesh_layer_1_vtx_cull
                0x000000000708f8b0                jrb_dl_Cube_028_mesh_layer_1_tri_0
                0x000000000708fa78                jrb_dl_Cube_028_mesh_layer_1_vtx_0
                0x0000000007090638                jrb_dl_Cube_028_mesh_layer_1_vtx_cull
                0x00000000070906b8                jrb_dl_Cube_027_mesh_layer_6_tri_0
                0x0000000007090780                jrb_dl_Cube_027_mesh_layer_6_vtx_0
                0x0000000007090980                jrb_dl_Cube_027_mesh_layer_6_vtx_cull
                0x0000000007090a00                jrb_dl_Cube_026_mesh_layer_1_tri_1
                0x0000000007090a30                jrb_dl_Cube_026_mesh_layer_1_vtx_1
                0x0000000007090b30                jrb_dl_Cube_026_mesh_layer_1_tri_0
                0x0000000007090b50                jrb_dl_Cube_026_mesh_layer_1_vtx_0
                0x0000000007090bd0                jrb_dl_Cube_026_mesh_layer_1_vtx_cull
                0x0000000007090c50                jrb_dl_Cube_024_mesh_layer_1_tri_1
                0x0000000007090c80                jrb_dl_Cube_024_mesh_layer_1_vtx_1
                0x0000000007090d80                jrb_dl_Cube_024_mesh_layer_1_tri_0
                0x0000000007090da0                jrb_dl_Cube_024_mesh_layer_1_vtx_0
                0x0000000007090e20                jrb_dl_Cube_024_mesh_layer_1_vtx_cull
                0x0000000007090ea0                jrb_dl_Cube_023_mesh_layer_5_tri_0
                0x0000000007090f28                jrb_dl_Cube_023_mesh_layer_5_vtx_0
                0x00000000070912a8                jrb_dl_Cube_023_mesh_layer_5_vtx_cull
                0x0000000007091328                jrb_dl_Cube_022_mesh_layer_6_tri_0
                0x0000000007091360                jrb_dl_Cube_022_mesh_layer_6_vtx_0
                0x00000000070913f0                jrb_dl_Cube_022_mesh_layer_6_vtx_cull
                0x0000000007091470                jrb_dl_Cube_021_mesh_layer_1_tri_1
                0x00000000070914a0                jrb_dl_Cube_021_mesh_layer_1_vtx_1
                0x00000000070915a0                jrb_dl_Cube_021_mesh_layer_1_tri_0
                0x00000000070915c0                jrb_dl_Cube_021_mesh_layer_1_vtx_0
                0x0000000007091640                jrb_dl_Cube_021_mesh_layer_1_vtx_cull
                0x00000000070916c0                jrb_dl_Cube_020_mesh_layer_5_tri_0
                0x0000000007091748                jrb_dl_Cube_020_mesh_layer_5_vtx_0
                0x0000000007091a48                jrb_dl_Cube_020_mesh_layer_5_vtx_cull
                0x0000000007091ac8                jrb_dl_Cube_019_mesh_layer_1_tri_3
                0x0000000007091b00                jrb_dl_Cube_019_mesh_layer_1_vtx_3
                0x0000000007091c40                jrb_dl_Cube_019_mesh_layer_1_tri_2
                0x0000000007091c78                jrb_dl_Cube_019_mesh_layer_1_vtx_2
                0x0000000007091d38                jrb_dl_Cube_019_mesh_layer_1_tri_1
                0x0000000007091d80                jrb_dl_Cube_019_mesh_layer_1_vtx_1
                0x0000000007091ee0                jrb_dl_Cube_019_mesh_layer_1_tri_0
                0x0000000007091f18                jrb_dl_Cube_019_mesh_layer_1_vtx_0
                0x0000000007092018                jrb_dl_Cube_019_mesh_layer_1_vtx_cull
                0x0000000007092098                jrb_dl_Cube_018_mesh_layer_5_tri_1
                0x00000000070920b8                jrb_dl_Cube_018_mesh_layer_5_vtx_1
                0x0000000007092138                jrb_dl_Cube_018_mesh_layer_5_tri_0
                0x00000000070921b0                jrb_dl_Cube_018_mesh_layer_5_vtx_0
                0x00000000070924b0                jrb_dl_Cube_018_mesh_layer_5_vtx_cull
                0x0000000007092530                jrb_dl_Cube_017_mesh_layer_1_tri_0
                0x00000000070926f8                jrb_dl_Cube_017_mesh_layer_1_vtx_0
                0x00000000070932b8                jrb_dl_Cube_017_mesh_layer_1_vtx_cull
                0x0000000007093338                jrb_dl_Cube_016_mesh_layer_1_tri_0
                0x0000000007093378                jrb_dl_Cube_016_mesh_layer_1_vtx_0
                0x00000000070934f8                jrb_dl_Cube_016_mesh_layer_1_vtx_cull
                0x0000000007093578                jrb_dl_Cube_015_mesh_layer_1_tri_1
                0x0000000007093590                jrb_dl_Cube_015_mesh_layer_1_vtx_1
                0x00000000070935d0                jrb_dl_Cube_015_mesh_layer_1_tri_0
                0x0000000007093608                jrb_dl_Cube_015_mesh_layer_1_vtx_0
                0x0000000007093748                jrb_dl_Cube_015_mesh_layer_1_vtx_cull
                0x00000000070937c8                jrb_dl_Cube_014_mesh_layer_1_tri_0
                0x0000000007093830                jrb_dl_Cube_014_mesh_layer_1_vtx_0
                0x0000000007093ab0                jrb_dl_Cube_014_mesh_layer_1_vtx_cull
                0x0000000007093b30                jrb_dl_Cube_013_mesh_layer_1_tri_4
                0x0000000007093b80                jrb_dl_Cube_013_mesh_layer_1_vtx_4
                0x0000000007093ca0                jrb_dl_Cube_013_mesh_layer_1_tri_3
                0x0000000007093e20                jrb_dl_Cube_013_mesh_layer_1_vtx_3
                0x0000000007094710                jrb_dl_Cube_013_mesh_layer_1_tri_2
                0x0000000007094758                jrb_dl_Cube_013_mesh_layer_1_vtx_2
                0x0000000007094898                jrb_dl_Cube_013_mesh_layer_1_tri_1
                0x0000000007094a68                jrb_dl_Cube_013_mesh_layer_1_vtx_1
                0x0000000007095618                jrb_dl_Cube_013_mesh_layer_1_tri_0
                0x0000000007095b48                jrb_dl_Cube_013_mesh_layer_1_vtx_0
                0x00000000070971e8                jrb_dl_Cube_013_mesh_layer_1_vtx_cull
                0x0000000007097268                jrb_dl_Cube_012_mesh_layer_1_tri_1
                0x0000000007097280                jrb_dl_Cube_012_mesh_layer_1_vtx_1
                0x00000000070972c0                jrb_dl_Cube_012_mesh_layer_1_tri_0
                0x0000000007097318                jrb_dl_Cube_012_mesh_layer_1_vtx_0
                0x00000000070974d8                jrb_dl_Cube_012_mesh_layer_1_vtx_cull
                0x0000000007097558                jrb_dl_Cube_011_mesh_layer_1_tri_0
                0x0000000007097598                jrb_dl_Cube_011_mesh_layer_1_vtx_0
                0x0000000007097718                jrb_dl_Cube_011_mesh_layer_1_vtx_cull
                0x0000000007097798                jrb_dl_Cube_010_mesh_layer_5_tri_0
                0x00000000070977e8                jrb_dl_Cube_010_mesh_layer_5_vtx_0
                0x0000000007097908                jrb_dl_Cube_010_mesh_layer_5_vtx_cull
                0x0000000007097988                jrb_dl_Cube_009_mesh_layer_1_tri_0
                0x00000000070979c8                jrb_dl_Cube_009_mesh_layer_1_vtx_0
                0x0000000007097b48                jrb_dl_Cube_009_mesh_layer_1_vtx_cull
                0x0000000007097bc8                jrb_dl_Cube_008_mesh_layer_5_tri_0
                0x0000000007097c10                jrb_dl_Cube_008_mesh_layer_5_vtx_0
                0x0000000007097d30                jrb_dl_Cube_008_mesh_layer_5_vtx_cull
                0x0000000007097db0                jrb_dl_Cube_007_mesh_layer_1_tri_0
                0x0000000007097f78                jrb_dl_Cube_007_mesh_layer_1_vtx_0
                0x0000000007098b38                jrb_dl_Cube_007_mesh_layer_1_vtx_cull
                0x0000000007098bb8                jrb_dl_Cube_006_mesh_layer_1_tri_0
                0x0000000007098d80                jrb_dl_Cube_006_mesh_layer_1_vtx_0
                0x0000000007099940                jrb_dl_Cube_006_mesh_layer_1_vtx_cull
                0x00000000070999c0                jrb_dl_Cube_005_mesh_layer_1_tri_0
                0x0000000007099b88                jrb_dl_Cube_005_mesh_layer_1_vtx_0
                0x000000000709a748                jrb_dl_Cube_005_mesh_layer_1_vtx_cull
                0x000000000709a7c8                jrb_dl_Cube_004_mesh_layer_1_tri_0
                0x000000000709a808                jrb_dl_Cube_004_mesh_layer_1_vtx_0
                0x000000000709a988                jrb_dl_Cube_004_mesh_layer_1_vtx_cull
                0x000000000709aa08                jrb_dl_Cube_003_mesh_layer_1_tri_0
                0x000000000709ab58                jrb_dl_Cube_003_mesh_layer_1_vtx_0
                0x000000000709b2e8                jrb_dl_Cube_003_mesh_layer_1_vtx_cull
                0x000000000709b368                jrb_dl_Cube_002_mesh_layer_1_tri_0
                0x000000000709b480                jrb_dl_Cube_002_mesh_layer_1_vtx_0
                0x000000000709bc00                jrb_dl_Cube_002_mesh_layer_1_vtx_cull
                0x000000000709bc80                jrb_dl_Cube_001_mesh_layer_5_tri_0
                0x000000000709bcc0                jrb_dl_Cube_001_mesh_layer_5_vtx_0
                0x000000000709be40                jrb_dl_Cube_001_mesh_layer_5_vtx_cull
                0x000000000709bec0                jrb_dl_Cube_mesh_layer_1_tri_4
                0x000000000709bf10                jrb_dl_Cube_mesh_layer_1_vtx_4
                0x000000000709c070                jrb_dl_Cube_mesh_layer_1_tri_3
                0x000000000709c0b8                jrb_dl_Cube_mesh_layer_1_vtx_3
                0x000000000709c238                jrb_dl_Cube_mesh_layer_1_tri_2
                0x000000000709c258                jrb_dl_Cube_mesh_layer_1_vtx_2
                0x000000000709c2a8                jrb_dl_Cube_mesh_layer_1_tri_1
                0x000000000709c3c8                jrb_dl_Cube_mesh_layer_1_vtx_1
                0x000000000709caf8                jrb_dl_Cube_mesh_layer_1_tri_0
                0x000000000709cc40                jrb_dl_Cube_mesh_layer_1_vtx_0
                0x000000000709d2d0                jrb_dl_Cube_mesh_layer_1_vtx_cull
                0x000000000709d350                jrb_dl_bridge_mesh_layer_1_tri_0
                0x000000000709d488                jrb_dl_bridge_mesh_layer_1_vtx_0
                0x000000000709d9f8                jrb_dl_bridge_mesh_layer_1_vtx_cull
                0x000000000709da78                jrb_dl_Alpha_002_mesh_layer_6_tri_0
                0x000000000709dac0                jrb_dl_Alpha_002_mesh_layer_6_vtx_0
                0x000000000709dc50                jrb_dl_Alpha_002_mesh_layer_6_vtx_cull
                0x000000000709dcd0                jrb_dl_Alpha_001_mesh_layer_6_tri_0
                0x000000000709de88                jrb_dl_Alpha_001_mesh_layer_6_vtx_0
                0x000000000709e938                jrb_dl_Alpha_001_mesh_layer_6_vtx_cull
                0x000000000709e9b8                jrb_dl_Alpha_mesh_layer_1_tri_2
                0x000000000709ea30                jrb_dl_Alpha_mesh_layer_1_vtx_2
                0x000000000709ed30                jrb_dl_Alpha_mesh_layer_1_tri_1
                0x000000000709ee18                jrb_dl_Alpha_mesh_layer_1_vtx_1
                0x000000000709f3d8                jrb_dl_Alpha_mesh_layer_1_tri_0
                0x000000000709f768                jrb_dl_Alpha_mesh_layer_1_vtx_0
                0x00000000070a0be8                jrb_dl_Alpha_mesh_layer_1_vtx_cull
                0x00000000070a0c68                jrb_dl_grate_pal_rgba16
                0x00000000070a0d50                jrb_dl_grate_pal_rgba16_aligner
                0x00000000070a0d58                jrb_dl_grate_ci8
                0x00000000070a1158                jrb_dl_grate_ci8_aligner
                0x00000000070a1160                jrb_dl_rgba16_anonmoose_GreenishSquare_pal_rgba16
                0x00000000070a1188                jrb_dl_rgba16_anonmoose_GreenishSquare_pal_rgba16_aligner
                0x00000000070a1190                jrb_dl_rgba16_anonmoose_GreenishSquare_ci8
                0x00000000070a1590                jrb_dl_rgba16_anonmoose_GreenishSquare_ci8_aligner
                0x00000000070a1598                jrb_dl_flower_pal_rgba16_copy
                0x00000000070a15f8                jrb_dl_flower_pal_rgba16_copy_aligner
                0x00000000070a1600                jrb_dl_flower_ci8_copy
                0x00000000070a1a00                jrb_dl_flower_ci8_copy_aligner
                0x00000000070a1a08                jrb_dl__7_pal_rgba16
                0x00000000070a1ac8                jrb_dl__7_pal_rgba16_aligner
                0x00000000070a1ad0                jrb_dl__7_ci8
                0x00000000070a1ed0                jrb_dl__7_ci8_aligner
                0x00000000070a1ed8                jrb_dl_flower_pal_rgba16
                0x00000000070a1f38                jrb_dl_flower_pal_rgba16_aligner
                0x00000000070a1f40                jrb_dl_flower_ci8
                0x00000000070a2340                jrb_dl_flower_ci8_aligner
                0x00000000070a2348                jrb_dl_i4_sophie_static_i8
                0x00000000070a3348                jrb_dl_i4_sophie_static_i8_aligner
                0x00000000070a3350                jrb_dl_ci4_sophie_hay_pal_rgba16
                0x00000000070a3370                jrb_dl_ci4_sophie_hay_pal_rgba16_aligner
                0x00000000070a3378                jrb_dl_ci4_sophie_hay_ci4
                0x00000000070a3b78                jrb_dl_ci4_sophie_hay_ci4_aligner
                0x00000000070a3b80                jrb_dl_rgba16_anonmoose_swirl1_pal_rgba16
                0x00000000070a3bd0                jrb_dl_rgba16_anonmoose_swirl1_pal_rgba16_aligner
                0x00000000070a3bd8                jrb_dl_rgba16_anonmoose_swirl1_ci8
                0x00000000070a3fd8                jrb_dl_rgba16_anonmoose_swirl1_ci8_aligner
                0x00000000070a3fe0                jrb_dl_ci4_sophie_tablecloth_pal_rgba16
                0x00000000070a4000                jrb_dl_ci4_sophie_tablecloth_pal_rgba16_aligner
                0x00000000070a4008                jrb_dl_ci4_sophie_tablecloth_ci4
                0x00000000070a4808                jrb_dl_ci4_sophie_tablecloth_ci4_aligner
                0x00000000070a4810                jrb_dl_rings_pal_rgba16
                0x00000000070a48f0                jrb_dl_rings_pal_rgba16_aligner
                0x00000000070a48f8                jrb_dl_rings_ci8
                0x00000000070a4cf8                jrb_dl_rings_ci8_aligner
                0x00000000070a4d00                jrb_dl_yucky_pal_rgba16
                0x00000000070a4d60                jrb_dl_yucky_pal_rgba16_aligner
                0x00000000070a4d68                jrb_dl_yucky_ci8
                0x00000000070a5168                jrb_dl_yucky_ci8_aligner
                0x00000000070a5170                jrb_dl_KKIIDDZZ_DAT_964__p00_pal_rgba16_copy
                0x00000000070a5250                jrb_dl_KKIIDDZZ_DAT_964__p00_pal_rgba16_copy_aligner
                0x00000000070a5258                jrb_dl_KKIIDDZZ_DAT_964__p00_ci8_copy
                0x00000000070a5658                jrb_dl_KKIIDDZZ_DAT_964__p00_ci8_copy_aligner
                0x00000000070a5660                jrb_dl_GM4E01_3b9bd952_14_pal_rgba16
                0x00000000070a5688                jrb_dl_GM4E01_3b9bd952_14_pal_rgba16_aligner
                0x00000000070a5690                jrb_dl_GM4E01_3b9bd952_14_ci8
                0x00000000070a5a90                jrb_dl_GM4E01_3b9bd952_14_ci8_aligner
                0x00000000070a5a98                jrb_dl_light_pal_rgba16
                0x00000000070a5aa0                jrb_dl_light_pal_rgba16_aligner
                0x00000000070a5aa8                jrb_dl_light_ci4
                0x00000000070a5ca8                jrb_dl_light_ci4_aligner
                0x00000000070a5cb0                jrb_dl_KKIIDDZZ_DAT_1060__p00_pal_rgba16
                0x00000000070a5d50                jrb_dl_KKIIDDZZ_DAT_1060__p00_pal_rgba16_aligner
                0x00000000070a5d58                jrb_dl_KKIIDDZZ_DAT_1060__p00_ci8
                0x00000000070a6158                jrb_dl_KKIIDDZZ_DAT_1060__p00_ci8_aligner
                0x00000000070a6160                jrb_dl_ci4_sophie_wall_pal_rgba16
                0x00000000070a6180                jrb_dl_ci4_sophie_wall_pal_rgba16_aligner
                0x00000000070a6188                jrb_dl_ci4_sophie_wall_ci4
                0x00000000070a6988                jrb_dl_ci4_sophie_wall_ci4_aligner
                0x00000000070a6990                jrb_dl_ci4_sophie_metal2_pal_rgba16
                0x00000000070a69b0                jrb_dl_ci4_sophie_metal2_pal_rgba16_aligner
                0x00000000070a69b8                jrb_dl_ci4_sophie_metal2_ci4
                0x00000000070a71b8                jrb_dl_ci4_sophie_metal2_ci4_aligner
                0x00000000070a71c0                jrb_dl_rgba16_anonmoose_envmap_gold1_pal_rgba16
                0x00000000070a7330                jrb_dl_rgba16_anonmoose_envmap_gold1_pal_rgba16_aligner
                0x00000000070a7338                jrb_dl_rgba16_anonmoose_envmap_gold1_ci8
                0x00000000070a7738                jrb_dl_rgba16_anonmoose_envmap_gold1_ci8_aligner
                0x00000000070a7740                jrb_dl_ci4_anonmoose_whiteblock_pal_rgba16
                0x00000000070a7760                jrb_dl_ci4_anonmoose_whiteblock_pal_rgba16_aligner
                0x00000000070a7768                jrb_dl_ci4_anonmoose_whiteblock_ci4
                0x00000000070a7f68                jrb_dl_ci4_anonmoose_whiteblock_ci4_aligner
                0x00000000070a7f70                jrb_dl_tempImgEd032C_pal_rgba16
                0x00000000070a80f0                jrb_dl_tempImgEd032C_pal_rgba16_aligner
                0x00000000070a80f8                jrb_dl_tempImgEd032C_ci8
                0x00000000070a84f8                jrb_dl_tempImgEd032C_ci8_aligner
                0x00000000070a8500                jrb_dl_KKIIDDZZ_DAT_972__p00_pal_rgba16
                0x00000000070a8630                jrb_dl_KKIIDDZZ_DAT_972__p00_pal_rgba16_aligner
                0x00000000070a8638                jrb_dl_KKIIDDZZ_DAT_972__p00_ci8
                0x00000000070a8a38                jrb_dl_KKIIDDZZ_DAT_972__p00_ci8_aligner
                0x00000000070a8a40                jrb_dl_invisible_ia8
                0x00000000070a8e40                jrb_dl_invisible_ia8_aligner
                0x00000000070a8e48                jrb_dl_KKIIDDZZ_DAT_1061__p00_pal_rgba16
                0x00000000070a8f10                jrb_dl_KKIIDDZZ_DAT_1061__p00_pal_rgba16_aligner
                0x00000000070a8f18                jrb_dl_KKIIDDZZ_DAT_1061__p00_ci8
                0x00000000070a9318                jrb_dl_KKIIDDZZ_DAT_1061__p00_ci8_aligner
                0x00000000070a9320                jrb_dl_KKIIDDZZ_DAT_971__p00_pal_rgba16
                0x00000000070a9448                jrb_dl_KKIIDDZZ_DAT_971__p00_pal_rgba16_aligner
                0x00000000070a9450                jrb_dl_KKIIDDZZ_DAT_971__p00_ci8
                0x00000000070a9850                jrb_dl_KKIIDDZZ_DAT_971__p00_ci8_aligner
                0x00000000070a9858                jrb_dl_KKIIDDZZ_DAT_1059__p00_pal_rgba16
                0x00000000070a98e0                jrb_dl_KKIIDDZZ_DAT_1059__p00_pal_rgba16_aligner
                0x00000000070a98e8                jrb_dl_KKIIDDZZ_DAT_1059__p00_ci8
                0x00000000070a9ce8                jrb_dl_KKIIDDZZ_DAT_1059__p00_ci8_aligner
                0x00000000070a9cf0                jrb_dl_ci4_anonmoose_treebark1_pal_rgba16
                0x00000000070a9d10                jrb_dl_ci4_anonmoose_treebark1_pal_rgba16_aligner
                0x00000000070a9d18                jrb_dl_ci4_anonmoose_treebark1_ci4
                0x00000000070aa518                jrb_dl_ci4_anonmoose_treebark1_ci4_aligner
                0x00000000070aa520                jrb_dl__25_pal_rgba16
                0x00000000070aa590                jrb_dl__25_pal_rgba16_aligner
                0x00000000070aa598                jrb_dl__25_ci8
                0x00000000070aa998                jrb_dl__25_ci8_aligner
                0x00000000070aa9a0                jrb_dl_KKIIDDZZ_DAT_964__p00_pal_rgba16
                0x00000000070aaa80                jrb_dl_KKIIDDZZ_DAT_964__p00_pal_rgba16_aligner
                0x00000000070aaa88                jrb_dl_KKIIDDZZ_DAT_964__p00_ci8
                0x00000000070aae88                jrb_dl_KKIIDDZZ_DAT_964__p00_ci8_aligner
                0x00000000070aae90                jrb_dl_ci4_zeina_water_1_pal_rgba16
                0x00000000070aaeb0                jrb_dl_ci4_zeina_water_1_pal_rgba16_aligner
                0x00000000070aaeb8                jrb_dl_ci4_zeina_water_1_ci4
                0x00000000070ab6b8                jrb_dl_ci4_zeina_water_1_ci4_aligner
                0x00000000070ab6c0                jrb_dl_ci4_sophie_rooftile_pal_rgba16
                0x00000000070ab6e0                jrb_dl_ci4_sophie_rooftile_pal_rgba16_aligner
                0x00000000070ab6e8                jrb_dl_ci4_sophie_rooftile_ci4
                0x00000000070abee8                jrb_dl_ci4_sophie_rooftile_ci4_aligner
                0x00000000070abef0                jrb_dl_ci4_sophie_broom_pal_rgba16
                0x00000000070abf10                jrb_dl_ci4_sophie_broom_pal_rgba16_aligner
                0x00000000070abf18                jrb_dl_ci4_sophie_broom_ci4
                0x00000000070ac718                jrb_dl_ci4_sophie_broom_ci4_aligner
                0x00000000070ac720                jrb_dl_ci4_sophie_wood2_pal_rgba16
                0x00000000070ac740                jrb_dl_ci4_sophie_wood2_pal_rgba16_aligner
                0x00000000070ac748                jrb_dl_ci4_sophie_wood2_ci4
                0x00000000070acf48                jrb_dl_ci4_sophie_wood2_ci4_aligner
                0x00000000070acf50                jrb_dl_ci4_sophie_interiorwall_pal_rgba16
                0x00000000070acf68                jrb_dl_ci4_sophie_interiorwall_pal_rgba16_aligner
                0x00000000070acf70                jrb_dl_ci4_sophie_interiorwall_ci4
                0x00000000070ad770                jrb_dl_ci4_sophie_interiorwall_ci4_aligner
                0x00000000070ad778                jrb_dl_KKIIDDZZ_DAT_1818__p00_pal_rgba16
                0x00000000070ad850                jrb_dl_KKIIDDZZ_DAT_1818__p00_pal_rgba16_aligner
                0x00000000070ad858                jrb_dl_KKIIDDZZ_DAT_1818__p00_ci8
                0x00000000070adc58                jrb_dl_KKIIDDZZ_DAT_1818__p00_ci8_aligner
                0x00000000070adc60                jrb_dl_ci4_anonmoose_Dirt1_pal_rgba16
                0x00000000070adc98                jrb_dl_ci4_anonmoose_Dirt1_pal_rgba16_aligner
                0x00000000070adca0                jrb_dl_ci4_anonmoose_Dirt1_ci8
                0x00000000070ae0a0                jrb_dl_ci4_anonmoose_Dirt1_ci8_aligner
                0x00000000070ae0a8                jrb_dl_YOSHIS_ISLAND_6467B7C8B140_all_ia8
                0x00000000070af0a8                jrb_dl_YOSHIS_ISLAND_6467B7C8B140_all_ia8_aligner
                0x00000000070af0b0                jrb_dl_KKIIDDZZ_DAT_2237__p00_pal_rgba16
                0x00000000070af0d0                jrb_dl_KKIIDDZZ_DAT_2237__p00_pal_rgba16_aligner
                0x00000000070af0d8                jrb_dl_KKIIDDZZ_DAT_2237__p00_ci4
                0x00000000070af8d8                jrb_dl_KKIIDDZZ_DAT_2237__p00_ci4_aligner
                0x00000000070af8e0                jrb_dl_KKIIDDZZ_DAT_2238__p00_pal_rgba16
                0x00000000070af900                jrb_dl_KKIIDDZZ_DAT_2238__p00_pal_rgba16_aligner
                0x00000000070af908                jrb_dl_KKIIDDZZ_DAT_2238__p00_ci4
                0x00000000070b0108                jrb_dl_KKIIDDZZ_DAT_2238__p00_ci4_aligner
                0x00000000070b0110                jrb_dl_KKIIDDZZ_DAT_684__p00_pal_rgba16
                0x00000000070b0128                jrb_dl_KKIIDDZZ_DAT_684__p00_pal_rgba16_aligner
                0x00000000070b0130                jrb_dl_KKIIDDZZ_DAT_684__p00_ci4
                0x00000000070b0930                jrb_dl_KKIIDDZZ_DAT_684__p00_ci4_aligner
                0x00000000070b0938                jrb_area_1_macro_objs
                0x00000000070b093c                jrb_area_1_collision
                0x00000000070df3e4                jrb_movtex_sunken_ship_water
                0x00000000070df414                jrb_seg7_area_2_macro_objs
                0x00000000070df420                jrb_seg7_area_2_collision
                0x00000000070e04d0                jrb_seg7_dl_07010548
                0x00000000070e0b20                jrb_seg7_dl_0700FE48
                0x00000000070e1900                jrb_seg7_dl_0700EF00
                0x00000000070e32c8                jrb_movtex_initial_mist
                0x00000000070e32f8                jrb_movtex_water
                0x00000000070e3350                jrb_seg7_trajectory_unagi_2
                0x00000000070e339c                jrb_seg7_trajectory_unagi_1
                0x00000000070e33d0                jrb_seg7_collision_0700D1DC
                0x00000000070e3404                jrb_seg7_collision_pillar_base
                0x00000000070e3450                jrb_seg7_collision_in_sunken_ship_2
                0x00000000070e36d4                jrb_seg7_collision_0700CEF0
                0x00000000070e377c                jrb_seg7_collision_in_sunken_ship
                0x00000000070e3828                jrb_seg7_collision_in_sunken_ship_3
                0x00000000070e3e70                jrb_seg7_collision_floating_box
                0x00000000070e3f0c                jrb_seg7_collision_floating_platform
                0x00000000070e3fa8                jrb_seg7_collision_rock_solid
                0x00000000070e409c                jrb_seg7_area_1_macro_objs
                0x00000000070e430c                jrb_seg7_area_1_collision
                0x00000000070e5bd0                jrb_seg7_dl_0700AFB0
                0x00000000070e5d20                jrb_seg7_dl_0700AE48
                0x00000000070e5eb0                jrb_seg7_dl_0700AC68
                0x00000000070e6470                jrb_seg7_dl_0700A608
                0x00000000070e6e28                jrb_seg7_dl_07009B30
                0x00000000070e6f08                jrb_seg7_dl_07009A58
                0x00000000070e77b8                jrb_seg7_dl_070090B0
                0x00000000070e7898                jrb_seg7_dl_07008FD8
                0x00000000070e8600                jrb_seg7_dl_070080F8
                0x00000000070e88d0                jrb_seg7_dl_07007DC8
                0x00000000070e8bc8                jrb_seg7_dl_07007AC8
                0x00000000070e8ef0                jrb_seg7_dl_07007718
                0x00000000070e90a8                jrb_seg7_dl_07007570
                0x00000000070e9b38                jrb_seg7_dl_070069B0
                0x00000000070eaa90                jrb_seg7_dl_070058C8
                0x00000000070eb578                jrb_seg7_dl_07004C78
                0x00000000070eb850                jrb_seg7_dl_07004940
                0x00000000070ecef0                jrb_seg7_dl_07002FD0

.data1
 *(.data1)

.got.plt
 *(.got.plt)
                0x00000000070efec8                . = .
                0x00000000070efec8                . = .
                0x00000000070f7ec0                _gp = (ALIGN (0x10) + 0x7ff0)

.got
 *(.got)

.sdata
 *(.sdata .sdata.* .gnu.linkonce.s.*)

.lit8
 *(.lit8)

.lit4
 *(.lit4)
                0x00000000070efec8                _edata = .
                [!provide]                        PROVIDE (edata = .)
                0x00000000070efec8                . = .
                0x00000000070efec8                __bss_start = .
                0x00000000070efec8                _fbss = .

.sbss
 *(.dynsbss)
 *(.sbss .sbss.* .gnu.linkonce.sb.*)
 *(.scommon)

.bss            0x00000000070efec8        0x0 load address 0x00000000070efee0
 *(.dynbss)
 *(.bss .bss.* .gnu.linkonce.b.*)
 .bss           0x00000000070efec8        0x0 build/us_n64/levels/jrb/leveldata.o
 *(COMMON)
                0x00000000070efec8                . = ALIGN ((. != 0x0)?0x4:0x1)
                0x00000000070efec8                . = ALIGN (0x4)
                0x00000000070efec8                . = SEGMENT_START ("ldata-segment", .)
                0x00000000070efec8                . = ALIGN (0x4)
                0x00000000070efec8                _end = .
                [!provide]                        PROVIDE (end = .)
                0x00000000070efec8                . = DATA_SEGMENT_END (.)

.stab
 *(.stab)

.stabstr
 *(.stabstr)

.stab.excl
 *(.stab.excl)

.stab.exclstr
 *(.stab.exclstr)

.stab.index
 *(.stab.index)

.stab.indexstr
 *(.stab.indexstr)

.comment        0x0000000000000000       0x12
 *(.comment)
 .comment       0x0000000000000000       0x12 build/us_n64/levels/jrb/leveldata.o
                                         0x13 (size before relaxing)

.pdr            0x0000000000000000        0x0
 .pdr           0x0000000000000000        0x0 build/us_n64/levels/jrb/leveldata.o

.debug
 *(.debug)

.line
 *(.line)

.debug_srcinfo
 *(.debug_srcinfo)

.debug_sfnames
 *(.debug_sfnames)

.debug_aranges
 *(.debug_aranges)

.debug_pubnames
 *(.debug_pubnames)

.debug_info
 *(.debug_info .gnu.linkonce.wi.*)

.debug_abbrev
 *(.debug_abbrev)

.debug_line
 *(.debug_line .debug_line.* .debug_line_end)

.debug_frame
 *(.debug_frame)

.debug_str
 *(.debug_str)

.debug_loc
 *(.debug_loc)

.debug_macinfo
 *(.debug_macinfo)

.debug_weaknames
 *(.debug_weaknames)

.debug_funcnames
 *(.debug_funcnames)

.debug_typenames
 *(.debug_typenames)

.debug_varnames
 *(.debug_varnames)

.debug_pubtypes
 *(.debug_pubtypes)

.debug_ranges
 *(.debug_ranges)

.debug_macro
 *(.debug_macro)

.debug_addr
 *(.debug_addr)

.gnu.attributes
                0x0000000000000000       0x10
 *(.gnu.attributes)
 .gnu.attributes
                0x0000000000000000       0x10 build/us_n64/levels/jrb/leveldata.o

.gptab.sdata
 *(.gptab.data)
 *(.gptab.sdata)

.gptab.sbss
 *(.gptab.bss)
 *(.gptab.sbss)

.mdebug.abi32   0x0000000000000000        0x0
 *(.mdebug.abi32)
 .mdebug.abi32  0x0000000000000000        0x0 build/us_n64/levels/jrb/leveldata.o

.mdebug.abiN32
 *(.mdebug.abiN32)

.mdebug.abi64
 *(.mdebug.abi64)

.mdebug.abiO64
 *(.mdebug.abiO64)

.mdebug.eabi32
 *(.mdebug.eabi32)

.mdebug.eabi64
 *(.mdebug.eabi64)

.gcc_compiled_long32
 *(.gcc_compiled_long32)

.gcc_compiled_long64
 *(.gcc_compiled_long64)

/DISCARD/
 *(.note.GNU-stack)
 *(.gnu_debuglink)
 *(.gnu.lto_*)
OUTPUT(build/us_n64/levels/jrb/leveldata.elf elf32-bigmips)
