
Memory Configuration

Name             Origin             Length             Attributes
*default*        0x0000000000000000 0xffffffffffffffff

Linker script and memory map

Address of section .text set to 0x7000000
LOAD build/us_n64/bin/water.elf
LOAD build/us_n64/levels/jrb/leveldata.o
                [!provide]                        PROVIDE (__executable_start = SEGMENT_START ("text-segment", 0x400000))
                0x0000000000400000                . = SEGMENT_START ("text-segment", 0x400000)

.interp
 *(.interp)

.MIPS.abiflags  0x0000000000400000       0x18
 *(.MIPS.abiflags)
 .MIPS.abiflags
                0x0000000000400000       0x18 build/us_n64/levels/jrb/leveldata.o

.reginfo        0x0000000000400018       0x18
 *(.reginfo)
 .reginfo       0x0000000000400018       0x18 build/us_n64/levels/jrb/leveldata.o

.note.gnu.build-id
 *(.note.gnu.build-id)

.dynamic
 *(.dynamic)

.hash
 *(.hash)

.gnu.hash
 *(.gnu.hash)

.dynsym
 *(.dynsym)

.dynstr
 *(.dynstr)

.gnu.version
 *(.gnu.version)

.gnu.version_d
 *(.gnu.version_d)

.gnu.version_r
 *(.gnu.version_r)

.rel.dyn        0x0000000000400018        0x0 load address 0x0000000000400030
 *(.rel.init)
 *(.rel.text .rel.text.* .rel.gnu.linkonce.t.*)
 *(.rel.fini)
 *(.rel.rodata .rel.rodata.* .rel.gnu.linkonce.r.*)
 *(.rel.data.rel.ro .rel.data.rel.ro.* .rel.gnu.linkonce.d.rel.ro.*)
 *(.rel.data .rel.data.* .rel.gnu.linkonce.d.*)
 *(.rel.tdata .rel.tdata.* .rel.gnu.linkonce.td.*)
 *(.rel.tbss .rel.tbss.* .rel.gnu.linkonce.tb.*)
 *(.rel.ctors)
 *(.rel.dtors)
 *(.rel.got)
 *(.rel.dyn)
 .rel.dyn       0x0000000000400018        0x0 build/us_n64/levels/jrb/leveldata.o
 *(.rel.sdata .rel.sdata.* .rel.gnu.linkonce.s.*)
 *(.rel.sbss .rel.sbss.* .rel.gnu.linkonce.sb.*)
 *(.rel.sdata2 .rel.sdata2.* .rel.gnu.linkonce.s2.*)
 *(.rel.sbss2 .rel.sbss2.* .rel.gnu.linkonce.sb2.*)
 *(.rel.bss .rel.bss.* .rel.gnu.linkonce.b.*)
                [!provide]                        PROVIDE (__rel_iplt_start = .)
 *(.rel.iplt)
                [!provide]                        PROVIDE (__rel_iplt_end = .)

.rela.dyn       0x0000000000400018        0x0
 *(.rela.init)
 *(.rela.text .rela.text.* .rela.gnu.linkonce.t.*)
 *(.rela.fini)
 *(.rela.rodata .rela.rodata.* .rela.gnu.linkonce.r.*)
 *(.rela.data .rela.data.* .rela.gnu.linkonce.d.*)
 *(.rela.tdata .rela.tdata.* .rela.gnu.linkonce.td.*)
 *(.rela.tbss .rela.tbss.* .rela.gnu.linkonce.tb.*)
 *(.rela.ctors)
 *(.rela.dtors)
 *(.rela.got)
 *(.rela.sdata .rela.sdata.* .rela.gnu.linkonce.s.*)
 *(.rela.sbss .rela.sbss.* .rela.gnu.linkonce.sb.*)
 *(.rela.sdata2 .rela.sdata2.* .rela.gnu.linkonce.s2.*)
 *(.rela.sbss2 .rela.sbss2.* .rela.gnu.linkonce.sb2.*)
 *(.rela.bss .rela.bss.* .rela.gnu.linkonce.b.*)
                [!provide]                        PROVIDE (__rela_iplt_start = .)
 *(.rela.iplt)
                [!provide]                        PROVIDE (__rela_iplt_end = .)

.rel.plt
 *(.rel.plt)

.rela.plt
 *(.rela.plt)

.init
 *(SORT_NONE(.init))

.plt
 *(.plt)

.iplt
 *(.iplt)

.text           0x0000000007000000        0x0 load address 0x0000000007000018
                0x0000000007000000                _ftext = .
 *(.text.unlikely .text.*_unlikely .text.unlikely.*)
 *(.text.exit .text.exit.*)
 *(.text.startup .text.startup.*)
 *(.text.hot .text.hot.*)
 *(.text .stub .text.* .gnu.linkonce.t.*)
 .text          0x0000000007000000        0x0 build/us_n64/levels/jrb/leveldata.o
 *(.gnu.warning)
 *(.mips16.fn.*)
 *(.mips16.call.*)

.fini
 *(SORT_NONE(.fini))
                [!provide]                        PROVIDE (__etext = .)
                [!provide]                        PROVIDE (_etext = .)
                [!provide]                        PROVIDE (etext = .)

.rodata
 *(.rodata .rodata.* .gnu.linkonce.r.*)

.rodata1
 *(.rodata1)

.sdata2
 *(.sdata2 .sdata2.* .gnu.linkonce.s2.*)

.sbss2
 *(.sbss2 .sbss2.* .gnu.linkonce.sb2.*)

.eh_frame_hdr
 *(.eh_frame_hdr)
 *(.eh_frame_entry .eh_frame_entry.*)

.eh_frame
 *(.eh_frame)
 *(.eh_frame.*)

.gcc_except_table
 *(.gcc_except_table .gcc_except_table.*)

.gnu_extab
 *(.gnu_extab*)

.exception_ranges
 *(.exception_ranges .exception_ranges*)
                0x0000000007000000                . = DATA_SEGMENT_ALIGN (CONSTANT (MAXPAGESIZE), CONSTANT (COMMONPAGESIZE))

.eh_frame
 *(.eh_frame)
 *(.eh_frame.*)

.gnu_extab
 *(.gnu_extab)

.gcc_except_table
 *(.gcc_except_table .gcc_except_table.*)

.exception_ranges
 *(.exception_ranges .exception_ranges*)

.tdata
 *(.tdata .tdata.* .gnu.linkonce.td.*)

.tbss
 *(.tbss .tbss.* .gnu.linkonce.tb.*)
 *(.tcommon)

.preinit_array  0x0000000007000000        0x0
                [!provide]                        PROVIDE (__preinit_array_start = .)
 *(.preinit_array)
                [!provide]                        PROVIDE (__preinit_array_end = .)

.init_array     0x0000000007000000        0x0
                [!provide]                        PROVIDE (__init_array_start = .)
 *(SORT_BY_INIT_PRIORITY(.init_array.*) SORT_BY_INIT_PRIORITY(.ctors.*))
 *(.init_array EXCLUDE_FILE(*crtend?.o *crtend.o *crtbegin?.o *crtbegin.o) .ctors)
                [!provide]                        PROVIDE (__init_array_end = .)

.fini_array     0x0000000007000000        0x0
                [!provide]                        PROVIDE (__fini_array_start = .)
 *(SORT_BY_INIT_PRIORITY(.fini_array.*) SORT_BY_INIT_PRIORITY(.dtors.*))
 *(.fini_array EXCLUDE_FILE(*crtend?.o *crtend.o *crtbegin?.o *crtbegin.o) .dtors)
                [!provide]                        PROVIDE (__fini_array_end = .)

.ctors
 *crtbegin.o(.ctors)
 *crtbegin?.o(.ctors)
 *(EXCLUDE_FILE(*crtend?.o *crtend.o) .ctors)
 *(SORT_BY_NAME(.ctors.*))
 *(.ctors)

.dtors
 *crtbegin.o(.dtors)
 *crtbegin?.o(.dtors)
 *(EXCLUDE_FILE(*crtend?.o *crtend.o) .dtors)
 *(SORT_BY_NAME(.dtors.*))
 *(.dtors)

.jcr
 *(.jcr)

.data.rel.ro
 *(.data.rel.ro.local* .gnu.linkonce.d.rel.ro.local.*)
 *(.data.rel.ro .data.rel.ro.* .gnu.linkonce.d.rel.ro.*)
                0x0000000007000000                . = DATA_SEGMENT_RELRO_END (., 0x0)

.data           0x0000000007000000    0xf1038 load address 0x0000000007000018
                0x0000000007000000                _fdata = .
 *(.data .data.* .gnu.linkonce.d.*)
 .data          0x0000000007000000    0xf1038 build/us_n64/levels/jrb/leveldata.o
                0x0000000007000000                jrb_dl_final_revert_mesh_layer_4
                0x0000000007000040                jrb_dl_final_revert_mesh_layer_5
                0x0000000007000080                jrb_dl_final_revert_mesh_layer_6
                0x00000000070000c0                jrb_dl_final_revert_mesh_layer_1
                0x0000000007000100                jrb_dl_wind_grate_010_mesh_layer_4
                0x0000000007000140                jrb_dl_wind_grate_009_mesh_layer_4
                0x0000000007000180                jrb_dl_wind_grate_008_mesh_layer_4
                0x00000000070001c0                jrb_dl_wind_grate_007_mesh_layer_4
                0x0000000007000200                jrb_dl_wind_grate_006_mesh_layer_4
                0x0000000007000240                jrb_dl_wind_grate_005_mesh_layer_4
                0x0000000007000280                jrb_dl_wind_grate_004_mesh_layer_4
                0x00000000070002c0                jrb_dl_wind_grate_003_mesh_layer_4
                0x0000000007000300                jrb_dl_wind_grate_002_mesh_layer_4
                0x0000000007000340                jrb_dl_wind_grate_001_mesh_layer_4
                0x0000000007000380                jrb_dl_waterfall_mesh_layer_5
                0x00000000070003c0                jrb_dl_wall_002_mesh_layer_1
                0x0000000007000400                jrb_dl_wall_001_mesh_layer_1
                0x0000000007000458                jrb_dl_wall_mesh_layer_1
                0x0000000007000498                jrb_dl_small_fan_004_mesh_layer_1
                0x00000000070004f0                jrb_dl_small_fan_003_mesh_layer_1
                0x0000000007000548                jrb_dl_small_fan_002_mesh_layer_1
                0x00000000070005a0                jrb_dl_small_fan_001_mesh_layer_1
                0x00000000070005f8                jrb_dl_SM_Fountain_02_mesh_layer_1
                0x0000000007000668                jrb_dl_rock_012_mesh_layer_1
                0x00000000070006d8                jrb_dl_rock_011_mesh_layer_1
                0x0000000007000718                jrb_dl_rock_010_mesh_layer_1
                0x0000000007000758                jrb_dl_rock_009_mesh_layer_1
                0x0000000007000798                jrb_dl_rock_008_mesh_layer_1
                0x0000000007000808                jrb_dl_rock_007_mesh_layer_1
                0x0000000007000878                jrb_dl_rock_006_mesh_layer_1
                0x00000000070008e8                jrb_dl_rock_005_mesh_layer_1
                0x0000000007000928                jrb_dl_rock_004_mesh_layer_1
                0x0000000007000968                jrb_dl_rock_003_mesh_layer_1
                0x00000000070009a8                jrb_dl_rock_002_mesh_layer_1
                0x00000000070009e8                jrb_dl_rock_001_mesh_layer_1
                0x0000000007000a28                jrb_dl_rock_mesh_layer_1
                0x0000000007000a68                jrb_dl_render_048_mesh_layer_1
                0x0000000007000ac0                jrb_dl_Plane_mesh_layer_6
                0x0000000007000b00                jrb_dl_pillar_030_mesh_layer_1
                0x0000000007000b40                jrb_dl_pillar_029_mesh_layer_1
                0x0000000007000b80                jrb_dl_pillar_028_mesh_layer_1
                0x0000000007000bc0                jrb_dl_pillar_027_mesh_layer_1
                0x0000000007000c00                jrb_dl_pillar_026_mesh_layer_1
                0x0000000007000c40                jrb_dl_pillar_025_mesh_layer_1
                0x0000000007000c80                jrb_dl_pillar_024_mesh_layer_1
                0x0000000007000cc0                jrb_dl_pillar_019_mesh_layer_1
                0x0000000007000d00                jrb_dl_pillar_014_mesh_layer_1
                0x0000000007000d40                jrb_dl_pillar_013_mesh_layer_1
                0x0000000007000d80                jrb_dl_pillar_012_mesh_layer_1
                0x0000000007000dc0                jrb_dl_pillar_011_mesh_layer_1
                0x0000000007000e00                jrb_dl_pillar_010_mesh_layer_1
                0x0000000007000e40                jrb_dl_pillar_009_mesh_layer_1
                0x0000000007000e80                jrb_dl_pillar_008_mesh_layer_1
                0x0000000007000ec0                jrb_dl_pillar_007_mesh_layer_1
                0x0000000007000f00                jrb_dl_pillar_006_mesh_layer_1
                0x0000000007000f40                jrb_dl_pillar_005_mesh_layer_1
                0x0000000007000f80                jrb_dl_pillar_004_mesh_layer_1
                0x0000000007000fc0                jrb_dl_pillar_003_mesh_layer_1
                0x0000000007001000                jrb_dl_pillar_002_mesh_layer_1
                0x0000000007001040                jrb_dl_pillar_001_mesh_layer_1
                0x0000000007001080                jrb_dl_pillar_mesh_layer_1
                0x00000000070010f0                jrb_dl_path_002_mesh_layer_6
                0x0000000007001130                jrb_dl_path_001_mesh_layer_6
                0x0000000007001170                jrb_dl_path_mesh_layer_6
                0x00000000070011b0                jrb_dl_mossy_stone_019_mesh_layer_1
                0x00000000070011f0                jrb_dl_mossy_stone_018_mesh_layer_1
                0x0000000007001230                jrb_dl_mossy_stone_017_mesh_layer_1
                0x0000000007001270                jrb_dl_mossy_stone_016_mesh_layer_1
                0x00000000070012b0                jrb_dl_mossy_stone_015_mesh_layer_1
                0x00000000070012f0                jrb_dl_mossy_stone_014_mesh_layer_1
                0x0000000007001330                jrb_dl_mossy_stone_013_mesh_layer_1
                0x0000000007001370                jrb_dl_mossy_stone_012_mesh_layer_1
                0x00000000070013b0                jrb_dl_mossy_stone_011_mesh_layer_1
                0x00000000070013f0                jrb_dl_mossy_stone_010_mesh_layer_1
                0x0000000007001430                jrb_dl_mossy_stone_009_mesh_layer_1
                0x0000000007001470                jrb_dl_mossy_stone_008_mesh_layer_1
                0x00000000070014b0                jrb_dl_mossy_stone_007_mesh_layer_1
                0x00000000070014f0                jrb_dl_mossy_stone_006_mesh_layer_1
                0x0000000007001530                jrb_dl_mossy_stone_005_mesh_layer_1
                0x0000000007001570                jrb_dl_mossy_stone_004_mesh_layer_1
                0x00000000070015b0                jrb_dl_mossy_stone_003_mesh_layer_1
                0x00000000070015f0                jrb_dl_mossy_stone_002_mesh_layer_1
                0x0000000007001630                jrb_dl_mossy_stone_001_mesh_layer_1
                0x0000000007001670                jrb_dl_mossy_stone_mesh_layer_1
                0x00000000070016b0                jrb_dl_Mesh_Owl_mesh_layer_1
                0x00000000070016f0                jrb_dl_massive_pillar_003_mesh_layer_4
                0x0000000007001730                jrb_dl_massive_pillar_mesh_layer_1
                0x00000000070017d0                jrb_dl_Icosphere_015_mesh_layer_1
                0x0000000007001810                jrb_dl_Icosphere_008_mesh_layer_1
                0x0000000007001850                jrb_dl_Icosphere_007_mesh_layer_1
                0x0000000007001890                jrb_dl_Icosphere_006_mesh_layer_1
                0x00000000070018d0                jrb_dl_Icosphere_005_mesh_layer_1
                0x0000000007001910                jrb_dl_Icosphere_004_mesh_layer_1
                0x0000000007001950                jrb_dl_Icosphere_003_mesh_layer_1
                0x0000000007001990                jrb_dl_Icosphere_002_mesh_layer_1
                0x00000000070019d0                jrb_dl_Icosphere_001_mesh_layer_1
                0x0000000007001a10                jrb_dl_Houses_SecondAge_3_Level1_004_mesh_layer_1
                0x0000000007001ab0                jrb_dl_Houses_SecondAge_3_Level1_003_mesh_layer_1
                0x0000000007001b50                jrb_dl_Houses_SecondAge_3_Level1_002_mesh_layer_1
                0x0000000007001bf0                jrb_dl_Houses_SecondAge_3_Level1_001_mesh_layer_1
                0x0000000007001c90                jrb_dl_Houses_SecondAge_3_Level1_mesh_layer_1
                0x0000000007001d30                jrb_dl_Houses_SecondAge_1_Level1_001_mesh_layer_1
                0x0000000007001dd0                jrb_dl_flowers_002_mesh_layer_5
                0x0000000007001e10                jrb_dl_flowers_002_mesh_layer_4
                0x0000000007001e50                jrb_dl_flowers_001_mesh_layer_5
                0x0000000007001e90                jrb_dl_flowers_001_mesh_layer_4
                0x0000000007001ed0                jrb_dl_flowers_mesh_layer_5
                0x0000000007001f10                jrb_dl_flowers_mesh_layer_4
                0x0000000007001f50                jrb_dl_death_plane_mesh_layer_1
                0x0000000007001f90                jrb_dl_Cylinder_006_mesh_layer_1
                0x0000000007002000                jrb_dl_Cylinder_005_mesh_layer_1
                0x0000000007002058                jrb_dl_Cylinder_004_mesh_layer_1
                0x00000000070020b0                jrb_dl_Cylinder_003_mesh_layer_1
                0x0000000007002108                jrb_dl_Cylinder_002_mesh_layer_1
                0x0000000007002160                jrb_dl_Cylinder_001_mesh_layer_6
                0x00000000070021a0                jrb_dl_Cylinder_mesh_layer_1
                0x0000000007002210                jrb_dl_Cube_064_mesh_layer_1
                0x00000000070022c8                jrb_dl_Cube_058_mesh_layer_1
                0x0000000007002308                jrb_dl_Cube_054_mesh_layer_6
                0x0000000007002348                jrb_dl_Cube_053_mesh_layer_6
                0x0000000007002388                jrb_dl_Cube_051_mesh_layer_1
                0x00000000070023c8                jrb_dl_Cube_050_mesh_layer_1
                0x0000000007002420                jrb_dl_Cube_049_mesh_layer_1
                0x0000000007002478                jrb_dl_Cube_048_mesh_layer_1
                0x00000000070024b8                jrb_dl_Cube_047_mesh_layer_1
                0x00000000070024f8                jrb_dl_Cube_046_mesh_layer_6
                0x0000000007002538                jrb_dl_Cube_045_mesh_layer_1
                0x0000000007002590                jrb_dl_Cube_044_mesh_layer_1
                0x00000000070025e8                jrb_dl_Cube_043_mesh_layer_1
                0x0000000007002628                jrb_dl_Cube_042_mesh_layer_1
                0x0000000007002680                jrb_dl_Cube_041_mesh_layer_1
                0x00000000070026c0                jrb_dl_Cube_040_mesh_layer_1
                0x0000000007002700                jrb_dl_Cube_039_mesh_layer_1
                0x0000000007002740                jrb_dl_Cube_038_mesh_layer_5
                0x0000000007002780                jrb_dl_Cube_037_mesh_layer_1
                0x00000000070027c0                jrb_dl_Cube_036_mesh_layer_1
                0x0000000007002818                jrb_dl_Cube_035_mesh_layer_5
                0x0000000007002858                jrb_dl_Cube_035_mesh_layer_4
                0x0000000007002898                jrb_dl_Cube_035_mesh_layer_1
                0x00000000070029b0                jrb_dl_Cube_034_mesh_layer_1
                0x0000000007002a08                jrb_dl_Cube_033_mesh_layer_6
                0x0000000007002a48                jrb_dl_Cube_032_mesh_layer_1
                0x0000000007002a88                jrb_dl_Cube_031_mesh_layer_1
                0x0000000007002ae0                jrb_dl_Cube_030_mesh_layer_1
                0x0000000007002b20                jrb_dl_Cube_029_mesh_layer_1
                0x0000000007002b60                jrb_dl_Cube_028_mesh_layer_1
                0x0000000007002ba0                jrb_dl_Cube_027_mesh_layer_6
                0x0000000007002be0                jrb_dl_Cube_026_mesh_layer_1
                0x0000000007002c38                jrb_dl_Cube_024_mesh_layer_1
                0x0000000007002c90                jrb_dl_Cube_023_mesh_layer_5
                0x0000000007002cd0                jrb_dl_Cube_022_mesh_layer_6
                0x0000000007002d10                jrb_dl_Cube_021_mesh_layer_1
                0x0000000007002d68                jrb_dl_Cube_020_mesh_layer_5
                0x0000000007002da8                jrb_dl_Cube_019_mesh_layer_1
                0x0000000007002e30                jrb_dl_Cube_018_mesh_layer_5
                0x0000000007002e88                jrb_dl_Cube_017_mesh_layer_1
                0x0000000007002ec8                jrb_dl_Cube_016_mesh_layer_1
                0x0000000007002f08                jrb_dl_Cube_015_mesh_layer_1
                0x0000000007002f60                jrb_dl_Cube_014_mesh_layer_1
                0x0000000007002fa0                jrb_dl_Cube_013_mesh_layer_1
                0x0000000007003040                jrb_dl_Cube_012_mesh_layer_1
                0x0000000007003098                jrb_dl_Cube_011_mesh_layer_1
                0x00000000070030d8                jrb_dl_Cube_010_mesh_layer_5
                0x0000000007003118                jrb_dl_Cube_009_mesh_layer_1
                0x0000000007003158                jrb_dl_Cube_008_mesh_layer_5
                0x0000000007003198                jrb_dl_Cube_007_mesh_layer_1
                0x00000000070031d8                jrb_dl_Cube_006_mesh_layer_1
                0x0000000007003218                jrb_dl_Cube_005_mesh_layer_1
                0x0000000007003258                jrb_dl_Cube_004_mesh_layer_1
                0x0000000007003298                jrb_dl_Cube_003_mesh_layer_1
                0x00000000070032d8                jrb_dl_Cube_002_mesh_layer_1
                0x0000000007003318                jrb_dl_Cube_001_mesh_layer_5
                0x0000000007003358                jrb_dl_Cube_mesh_layer_1
                0x00000000070033f8                jrb_dl_bridge_mesh_layer_1
                0x0000000007003438                jrb_dl_Alpha_002_mesh_layer_6
                0x0000000007003478                jrb_dl_Alpha_001_mesh_layer_6
                0x00000000070034b8                jrb_dl_Alpha_mesh_layer_1
                0x0000000007003528                mat_revert_jrb_dl_greate_wind
                0x0000000007003550                mat_jrb_dl_greate_wind
                0x00000000070035e8                mat_revert_jrb_dl_metal_2
                0x0000000007003608                mat_jrb_dl_metal_2
                0x0000000007003698                mat_revert_jrb_dl_flowers_002
                0x00000000070036c0                mat_jrb_dl_flowers_002
                0x0000000007003758                mat_revert_jrb_dl_bricks_001
                0x0000000007003778                mat_jrb_dl_bricks_001
                0x0000000007003808                mat_revert_jrb_dl_flowers
                0x0000000007003830                mat_jrb_dl_flowers
                0x00000000070038c8                mat_revert_jrb_dl_f3dlite_material_004
                0x00000000070038e0                mat_jrb_dl_f3dlite_material_004
                0x0000000007003950                mat_revert_jrb_dl_hay
                0x0000000007003970                mat_jrb_dl_hay
                0x0000000007003a00                mat_revert_jrb_dl_swirl
                0x0000000007003a20                mat_jrb_dl_swirl
                0x0000000007003ab0                mat_revert_jrb_dl_picnic
                0x0000000007003ad0                mat_jrb_dl_picnic
                0x0000000007003b60                mat_revert_jrb_dl_tree_rings
                0x0000000007003b80                mat_jrb_dl_tree_rings
                0x0000000007003c10                mat_revert_jrb_dl_bark
                0x0000000007003c30                mat_jrb_dl_bark
                0x0000000007003cc0                mat_revert_jrb_dl_death
                0x0000000007003ce0                mat_jrb_dl_death
                0x0000000007003d70                mat_revert_jrb_dl_stone_star_002
                0x0000000007003d90                mat_jrb_dl_stone_star_002
                0x0000000007003e20                mat_revert_jrb_dl_caution
                0x0000000007003e40                mat_jrb_dl_caution
                0x0000000007003ed0                mat_revert_jrb_dl_light
                0x0000000007003ef8                mat_jrb_dl_light
                0x0000000007003f98                mat_revert_jrb_dl_old_checker
                0x0000000007003fb8                mat_jrb_dl_old_checker
                0x0000000007004048                mat_revert_jrb_dl_f3dlite_material
                0x0000000007004068                mat_jrb_dl_f3dlite_material
                0x00000000070040f8                mat_revert_jrb_dl_metal_1
                0x0000000007004118                mat_jrb_dl_metal_1
                0x00000000070041a8                mat_revert_jrb_dl_gold
                0x00000000070041c8                mat_jrb_dl_gold
                0x0000000007004258                mat_revert_jrb_dl_white_bevel
                0x0000000007004280                mat_jrb_dl_white_bevel
                0x0000000007004318                mat_revert_jrb_dl_f3dlite_material_001
                0x0000000007004338                mat_jrb_dl_f3dlite_material_001
                0x00000000070043c8                mat_revert_jrb_dl_f3dlite_material_003
                0x00000000070043e8                mat_jrb_dl_f3dlite_material_003
                0x0000000007004478                mat_revert_jrb_dl_invisible
                0x0000000007004498                mat_jrb_dl_invisible
                0x0000000007004518                mat_revert_jrb_dl_fake_water
                0x0000000007004540                mat_jrb_dl_fake_water
                0x00000000070045e0                mat_revert_jrb_dl_f3dlite_material_002
                0x0000000007004600                mat_jrb_dl_f3dlite_material_002
                0x0000000007004690                mat_revert_jrb_dl_mossy_stone
                0x00000000070046b0                mat_jrb_dl_mossy_stone
                0x0000000007004740                mat_revert_jrb_dl_fast_water
                0x0000000007004760                mat_jrb_dl_fast_water
                0x00000000070047f0                mat_revert_jrb_dl_moving_water
                0x0000000007004810                mat_jrb_dl_moving_water
                0x00000000070048a0                mat_revert_jrb_dl_old_stone
                0x00000000070048c0                mat_jrb_dl_old_stone
                0x0000000007004950                mat_revert_jrb_dl_bark_small
                0x0000000007004970                mat_jrb_dl_bark_small
                0x0000000007004a00                mat_revert_jrb_dl_black
                0x0000000007004a18                mat_jrb_dl_black
                0x0000000007004a60                mat_revert_jrb_dl_rock
                0x0000000007004a80                mat_jrb_dl_rock
                0x0000000007004b10                mat_revert_jrb_dl_stone_star
                0x0000000007004b30                mat_jrb_dl_stone_star
                0x0000000007004bc0                mat_revert_jrb_dl_water
                0x0000000007004be8                mat_jrb_dl_water
                0x0000000007004c88                mat_revert_jrb_dl_shingles
                0x0000000007004ca8                mat_jrb_dl_shingles
                0x0000000007004d38                mat_revert_jrb_dl_wood
                0x0000000007004d58                mat_jrb_dl_wood
                0x0000000007004de8                mat_revert_jrb_dl_wood2
                0x0000000007004e08                mat_jrb_dl_wood2
                0x0000000007004e98                mat_revert_jrb_dl_interior
                0x0000000007004eb8                mat_jrb_dl_interior
                0x0000000007004f48                mat_revert_jrb_dl_bricks
                0x0000000007004f68                mat_jrb_dl_bricks
                0x0000000007004ff8                mat_revert_jrb_dl_dirt
                0x0000000007005018                mat_jrb_dl_dirt
                0x00000000070050a8                mat_revert_jrb_dl_stone_path
                0x00000000070050c0                mat_jrb_dl_stone_path
                0x0000000007005130                mat_revert_jrb_dl_dirt2
                0x0000000007005150                mat_jrb_dl_dirt2
                0x00000000070051e0                mat_revert_jrb_dl_dirt_with_grass
                0x0000000007005200                mat_jrb_dl_dirt_with_grass
                0x0000000007005290                mat_revert_jrb_dl_grass
                0x00000000070052b0                mat_jrb_dl_grass
                0x0000000007005340                jrb_dl_wind_grate_010_mesh_layer_4_tri_0
                0x0000000007005358                jrb_dl_wind_grate_010_mesh_layer_4_vtx_0
                0x0000000007005398                jrb_dl_wind_grate_010_mesh_layer_4_vtx_cull
                0x0000000007005418                jrb_dl_wind_grate_009_mesh_layer_4_tri_0
                0x0000000007005430                jrb_dl_wind_grate_009_mesh_layer_4_vtx_0
                0x0000000007005470                jrb_dl_wind_grate_009_mesh_layer_4_vtx_cull
                0x00000000070054f0                jrb_dl_wind_grate_008_mesh_layer_4_tri_0
                0x0000000007005508                jrb_dl_wind_grate_008_mesh_layer_4_vtx_0
                0x0000000007005548                jrb_dl_wind_grate_008_mesh_layer_4_vtx_cull
                0x00000000070055c8                jrb_dl_wind_grate_007_mesh_layer_4_tri_0
                0x00000000070055e0                jrb_dl_wind_grate_007_mesh_layer_4_vtx_0
                0x0000000007005620                jrb_dl_wind_grate_007_mesh_layer_4_vtx_cull
                0x00000000070056a0                jrb_dl_wind_grate_006_mesh_layer_4_tri_0
                0x00000000070056e0                jrb_dl_wind_grate_006_mesh_layer_4_vtx_0
                0x0000000007005860                jrb_dl_wind_grate_006_mesh_layer_4_vtx_cull
                0x00000000070058e0                jrb_dl_wind_grate_005_mesh_layer_4_tri_0
                0x00000000070058f8                jrb_dl_wind_grate_005_mesh_layer_4_vtx_0
                0x0000000007005938                jrb_dl_wind_grate_005_mesh_layer_4_vtx_cull
                0x00000000070059b8                jrb_dl_wind_grate_004_mesh_layer_4_tri_0
                0x00000000070059d0                jrb_dl_wind_grate_004_mesh_layer_4_vtx_0
                0x0000000007005a10                jrb_dl_wind_grate_004_mesh_layer_4_vtx_cull
                0x0000000007005a90                jrb_dl_wind_grate_003_mesh_layer_4_tri_0
                0x0000000007005aa8                jrb_dl_wind_grate_003_mesh_layer_4_vtx_0
                0x0000000007005ae8                jrb_dl_wind_grate_003_mesh_layer_4_vtx_cull
                0x0000000007005b68                jrb_dl_wind_grate_002_mesh_layer_4_tri_0
                0x0000000007005b80                jrb_dl_wind_grate_002_mesh_layer_4_vtx_0
                0x0000000007005bc0                jrb_dl_wind_grate_002_mesh_layer_4_vtx_cull
                0x0000000007005c40                jrb_dl_wind_grate_001_mesh_layer_4_tri_0
                0x0000000007005c58                jrb_dl_wind_grate_001_mesh_layer_4_vtx_0
                0x0000000007005c98                jrb_dl_wind_grate_001_mesh_layer_4_vtx_cull
                0x0000000007005d18                jrb_dl_waterfall_mesh_layer_5_tri_0
                0x0000000007005da0                jrb_dl_waterfall_mesh_layer_5_vtx_0
                0x0000000007006120                jrb_dl_waterfall_mesh_layer_5_vtx_cull
                0x00000000070061a0                jrb_dl_wall_002_mesh_layer_1_tri_0
                0x00000000070062b8                jrb_dl_wall_002_mesh_layer_1_vtx_0
                0x0000000007006918                jrb_dl_wall_002_mesh_layer_1_vtx_cull
                0x0000000007006998                jrb_dl_wall_001_mesh_layer_1_tri_1
                0x00000000070069b8                jrb_dl_wall_001_mesh_layer_1_vtx_1
                0x0000000007006a58                jrb_dl_wall_001_mesh_layer_1_tri_0
                0x0000000007006c58                jrb_dl_wall_001_mesh_layer_1_vtx_0
                0x0000000007007788                jrb_dl_wall_001_mesh_layer_1_vtx_cull
                0x0000000007007808                jrb_dl_wall_mesh_layer_1_tri_0
                0x00000000070078f8                jrb_dl_wall_mesh_layer_1_vtx_0
                0x0000000007007e98                jrb_dl_wall_mesh_layer_1_vtx_cull
                0x0000000007007f18                jrb_dl_small_fan_004_mesh_layer_1_tri_1
                0x0000000007007f58                jrb_dl_small_fan_004_mesh_layer_1_vtx_1
                0x00000000070080d8                jrb_dl_small_fan_004_mesh_layer_1_tri_0
                0x0000000007008150                jrb_dl_small_fan_004_mesh_layer_1_vtx_0
                0x0000000007008450                jrb_dl_small_fan_004_mesh_layer_1_vtx_cull
                0x00000000070084d0                jrb_dl_small_fan_003_mesh_layer_1_tri_1
                0x0000000007008510                jrb_dl_small_fan_003_mesh_layer_1_vtx_1
                0x0000000007008690                jrb_dl_small_fan_003_mesh_layer_1_tri_0
                0x0000000007008708                jrb_dl_small_fan_003_mesh_layer_1_vtx_0
                0x0000000007008a08                jrb_dl_small_fan_003_mesh_layer_1_vtx_cull
                0x0000000007008a88                jrb_dl_small_fan_002_mesh_layer_1_tri_1
                0x0000000007008ac8                jrb_dl_small_fan_002_mesh_layer_1_vtx_1
                0x0000000007008c48                jrb_dl_small_fan_002_mesh_layer_1_tri_0
                0x0000000007008cc0                jrb_dl_small_fan_002_mesh_layer_1_vtx_0
                0x0000000007008fc0                jrb_dl_small_fan_002_mesh_layer_1_vtx_cull
                0x0000000007009040                jrb_dl_small_fan_001_mesh_layer_1_tri_1
                0x0000000007009080                jrb_dl_small_fan_001_mesh_layer_1_vtx_1
                0x0000000007009200                jrb_dl_small_fan_001_mesh_layer_1_tri_0
                0x0000000007009278                jrb_dl_small_fan_001_mesh_layer_1_vtx_0
                0x0000000007009578                jrb_dl_small_fan_001_mesh_layer_1_vtx_cull
                0x00000000070095f8                jrb_dl_SM_Fountain_02_mesh_layer_1_tri_2
                0x0000000007009910                jrb_dl_SM_Fountain_02_mesh_layer_1_vtx_2
                0x000000000700ae80                jrb_dl_SM_Fountain_02_mesh_layer_1_tri_1
                0x000000000700afb8                jrb_dl_SM_Fountain_02_mesh_layer_1_vtx_1
                0x000000000700b9b8                jrb_dl_SM_Fountain_02_mesh_layer_1_tri_0
                0x000000000700cb40                jrb_dl_SM_Fountain_02_mesh_layer_1_vtx_0
                0x0000000007014660                jrb_dl_SM_Fountain_02_mesh_layer_1_vtx_cull
                0x00000000070146e0                jrb_dl_rock_012_mesh_layer_1_tri_2
                0x0000000007014730                jrb_dl_rock_012_mesh_layer_1_vtx_2
                0x0000000007014930                jrb_dl_rock_012_mesh_layer_1_tri_1
                0x0000000007014960                jrb_dl_rock_012_mesh_layer_1_vtx_1
                0x0000000007014a20                jrb_dl_rock_012_mesh_layer_1_tri_0
                0x0000000007014ae0                jrb_dl_rock_012_mesh_layer_1_vtx_0
                0x0000000007014fe0                jrb_dl_rock_012_mesh_layer_1_vtx_cull
                0x0000000007015060                jrb_dl_rock_011_mesh_layer_1_tri_0
                0x0000000007015148                jrb_dl_rock_011_mesh_layer_1_vtx_0
                0x00000000070156a8                jrb_dl_rock_011_mesh_layer_1_vtx_cull
                0x0000000007015728                jrb_dl_rock_010_mesh_layer_1_tri_0
                0x0000000007015810                jrb_dl_rock_010_mesh_layer_1_vtx_0
                0x0000000007015d70                jrb_dl_rock_010_mesh_layer_1_vtx_cull
                0x0000000007015df0                jrb_dl_rock_009_mesh_layer_1_tri_0
                0x0000000007015ed8                jrb_dl_rock_009_mesh_layer_1_vtx_0
                0x0000000007016438                jrb_dl_rock_009_mesh_layer_1_vtx_cull
                0x00000000070164b8                jrb_dl_rock_008_mesh_layer_1_tri_2
                0x0000000007016508                jrb_dl_rock_008_mesh_layer_1_vtx_2
                0x0000000007016708                jrb_dl_rock_008_mesh_layer_1_tri_1
                0x0000000007016738                jrb_dl_rock_008_mesh_layer_1_vtx_1
                0x00000000070167f8                jrb_dl_rock_008_mesh_layer_1_tri_0
                0x00000000070168b8                jrb_dl_rock_008_mesh_layer_1_vtx_0
                0x0000000007016db8                jrb_dl_rock_008_mesh_layer_1_vtx_cull
                0x0000000007016e38                jrb_dl_rock_007_mesh_layer_1_tri_2
                0x0000000007016e88                jrb_dl_rock_007_mesh_layer_1_vtx_2
                0x0000000007017088                jrb_dl_rock_007_mesh_layer_1_tri_1
                0x00000000070170b8                jrb_dl_rock_007_mesh_layer_1_vtx_1
                0x0000000007017178                jrb_dl_rock_007_mesh_layer_1_tri_0
                0x0000000007017238                jrb_dl_rock_007_mesh_layer_1_vtx_0
                0x0000000007017738                jrb_dl_rock_007_mesh_layer_1_vtx_cull
                0x00000000070177b8                jrb_dl_rock_006_mesh_layer_1_tri_2
                0x0000000007017808                jrb_dl_rock_006_mesh_layer_1_vtx_2
                0x0000000007017a08                jrb_dl_rock_006_mesh_layer_1_tri_1
                0x0000000007017a38                jrb_dl_rock_006_mesh_layer_1_vtx_1
                0x0000000007017af8                jrb_dl_rock_006_mesh_layer_1_tri_0
                0x0000000007017bb8                jrb_dl_rock_006_mesh_layer_1_vtx_0
                0x00000000070180b8                jrb_dl_rock_006_mesh_layer_1_vtx_cull
                0x0000000007018138                jrb_dl_rock_005_mesh_layer_1_tri_0
                0x0000000007018220                jrb_dl_rock_005_mesh_layer_1_vtx_0
                0x0000000007018780                jrb_dl_rock_005_mesh_layer_1_vtx_cull
                0x0000000007018800                jrb_dl_rock_004_mesh_layer_1_tri_0
                0x00000000070188e8                jrb_dl_rock_004_mesh_layer_1_vtx_0
                0x0000000007018e48                jrb_dl_rock_004_mesh_layer_1_vtx_cull
                0x0000000007018ec8                jrb_dl_rock_003_mesh_layer_1_tri_0
                0x0000000007018fb0                jrb_dl_rock_003_mesh_layer_1_vtx_0
                0x0000000007019510                jrb_dl_rock_003_mesh_layer_1_vtx_cull
                0x0000000007019590                jrb_dl_rock_002_mesh_layer_1_tri_0
                0x0000000007019678                jrb_dl_rock_002_mesh_layer_1_vtx_0
                0x0000000007019bd8                jrb_dl_rock_002_mesh_layer_1_vtx_cull
                0x0000000007019c58                jrb_dl_rock_001_mesh_layer_1_tri_0
                0x0000000007019d40                jrb_dl_rock_001_mesh_layer_1_vtx_0
                0x000000000701a2a0                jrb_dl_rock_001_mesh_layer_1_vtx_cull
                0x000000000701a320                jrb_dl_rock_mesh_layer_1_tri_0
                0x000000000701a408                jrb_dl_rock_mesh_layer_1_vtx_0
                0x000000000701a968                jrb_dl_rock_mesh_layer_1_vtx_cull
                0x000000000701a9e8                jrb_dl_render_048_mesh_layer_1_tri_1
                0x000000000701ab50                jrb_dl_render_048_mesh_layer_1_vtx_1
                0x000000000701b350                jrb_dl_render_048_mesh_layer_1_tri_0
                0x000000000701b378                jrb_dl_render_048_mesh_layer_1_vtx_0
                0x000000000701b3f8                jrb_dl_render_048_mesh_layer_1_vtx_cull
                0x000000000701b478                jrb_dl_Plane_mesh_layer_6_tri_0
                0x000000000701b4b0                jrb_dl_Plane_mesh_layer_6_vtx_0
                0x000000000701b530                jrb_dl_Plane_mesh_layer_6_vtx_cull
                0x000000000701b5b0                jrb_dl_pillar_030_mesh_layer_1_tri_0
                0x000000000701b5f0                jrb_dl_pillar_030_mesh_layer_1_vtx_0
                0x000000000701b770                jrb_dl_pillar_030_mesh_layer_1_vtx_cull
                0x000000000701b7f0                jrb_dl_pillar_029_mesh_layer_1_tri_0
                0x000000000701b830                jrb_dl_pillar_029_mesh_layer_1_vtx_0
                0x000000000701b9b0                jrb_dl_pillar_029_mesh_layer_1_vtx_cull
                0x000000000701ba30                jrb_dl_pillar_028_mesh_layer_1_tri_0
                0x000000000701ba70                jrb_dl_pillar_028_mesh_layer_1_vtx_0
                0x000000000701bbf0                jrb_dl_pillar_028_mesh_layer_1_vtx_cull
                0x000000000701bc70                jrb_dl_pillar_027_mesh_layer_1_tri_0
                0x000000000701bcb0                jrb_dl_pillar_027_mesh_layer_1_vtx_0
                0x000000000701be30                jrb_dl_pillar_027_mesh_layer_1_vtx_cull
                0x000000000701beb0                jrb_dl_pillar_026_mesh_layer_1_tri_0
                0x000000000701bef0                jrb_dl_pillar_026_mesh_layer_1_vtx_0
                0x000000000701c070                jrb_dl_pillar_026_mesh_layer_1_vtx_cull
                0x000000000701c0f0                jrb_dl_pillar_025_mesh_layer_1_tri_0
                0x000000000701c130                jrb_dl_pillar_025_mesh_layer_1_vtx_0
                0x000000000701c2b0                jrb_dl_pillar_025_mesh_layer_1_vtx_cull
                0x000000000701c330                jrb_dl_pillar_024_mesh_layer_1_tri_0
                0x000000000701c370                jrb_dl_pillar_024_mesh_layer_1_vtx_0
                0x000000000701c4f0                jrb_dl_pillar_024_mesh_layer_1_vtx_cull
                0x000000000701c570                jrb_dl_pillar_019_mesh_layer_1_tri_0
                0x000000000701c5b0                jrb_dl_pillar_019_mesh_layer_1_vtx_0
                0x000000000701c730                jrb_dl_pillar_019_mesh_layer_1_vtx_cull
                0x000000000701c7b0                jrb_dl_pillar_014_mesh_layer_1_tri_0
                0x000000000701c7f0                jrb_dl_pillar_014_mesh_layer_1_vtx_0
                0x000000000701c970                jrb_dl_pillar_014_mesh_layer_1_vtx_cull
                0x000000000701c9f0                jrb_dl_pillar_013_mesh_layer_1_tri_0
                0x000000000701ca30                jrb_dl_pillar_013_mesh_layer_1_vtx_0
                0x000000000701cbb0                jrb_dl_pillar_013_mesh_layer_1_vtx_cull
                0x000000000701cc30                jrb_dl_pillar_012_mesh_layer_1_tri_0
                0x000000000701cc70                jrb_dl_pillar_012_mesh_layer_1_vtx_0
                0x000000000701cdf0                jrb_dl_pillar_012_mesh_layer_1_vtx_cull
                0x000000000701ce70                jrb_dl_pillar_011_mesh_layer_1_tri_0
                0x000000000701ceb0                jrb_dl_pillar_011_mesh_layer_1_vtx_0
                0x000000000701d030                jrb_dl_pillar_011_mesh_layer_1_vtx_cull
                0x000000000701d0b0                jrb_dl_pillar_010_mesh_layer_1_tri_0
                0x000000000701d0f0                jrb_dl_pillar_010_mesh_layer_1_vtx_0
                0x000000000701d270                jrb_dl_pillar_010_mesh_layer_1_vtx_cull
                0x000000000701d2f0                jrb_dl_pillar_009_mesh_layer_1_tri_0
                0x000000000701d330                jrb_dl_pillar_009_mesh_layer_1_vtx_0
                0x000000000701d4b0                jrb_dl_pillar_009_mesh_layer_1_vtx_cull
                0x000000000701d530                jrb_dl_pillar_008_mesh_layer_1_tri_0
                0x000000000701d570                jrb_dl_pillar_008_mesh_layer_1_vtx_0
                0x000000000701d6f0                jrb_dl_pillar_008_mesh_layer_1_vtx_cull
                0x000000000701d770                jrb_dl_pillar_007_mesh_layer_1_tri_0
                0x000000000701d7b0                jrb_dl_pillar_007_mesh_layer_1_vtx_0
                0x000000000701d930                jrb_dl_pillar_007_mesh_layer_1_vtx_cull
                0x000000000701d9b0                jrb_dl_pillar_006_mesh_layer_1_tri_0
                0x000000000701d9f0                jrb_dl_pillar_006_mesh_layer_1_vtx_0
                0x000000000701db70                jrb_dl_pillar_006_mesh_layer_1_vtx_cull
                0x000000000701dbf0                jrb_dl_pillar_005_mesh_layer_1_tri_0
                0x000000000701dc30                jrb_dl_pillar_005_mesh_layer_1_vtx_0
                0x000000000701ddb0                jrb_dl_pillar_005_mesh_layer_1_vtx_cull
                0x000000000701de30                jrb_dl_pillar_004_mesh_layer_1_tri_0
                0x000000000701de70                jrb_dl_pillar_004_mesh_layer_1_vtx_0
                0x000000000701dff0                jrb_dl_pillar_004_mesh_layer_1_vtx_cull
                0x000000000701e070                jrb_dl_pillar_003_mesh_layer_1_tri_0
                0x000000000701e0b0                jrb_dl_pillar_003_mesh_layer_1_vtx_0
                0x000000000701e230                jrb_dl_pillar_003_mesh_layer_1_vtx_cull
                0x000000000701e2b0                jrb_dl_pillar_002_mesh_layer_1_tri_0
                0x000000000701e2f0                jrb_dl_pillar_002_mesh_layer_1_vtx_0
                0x000000000701e470                jrb_dl_pillar_002_mesh_layer_1_vtx_cull
                0x000000000701e4f0                jrb_dl_pillar_001_mesh_layer_1_tri_0
                0x000000000701e530                jrb_dl_pillar_001_mesh_layer_1_vtx_0
                0x000000000701e6b0                jrb_dl_pillar_001_mesh_layer_1_vtx_cull
                0x000000000701e730                jrb_dl_pillar_mesh_layer_1_tri_2
                0x000000000701e770                jrb_dl_pillar_mesh_layer_1_vtx_2
                0x000000000701e8f0                jrb_dl_pillar_mesh_layer_1_tri_1
                0x000000000701e930                jrb_dl_pillar_mesh_layer_1_vtx_1
                0x000000000701eab0                jrb_dl_pillar_mesh_layer_1_tri_0
                0x000000000701eb38                jrb_dl_pillar_mesh_layer_1_vtx_0
                0x000000000701ee78                jrb_dl_pillar_mesh_layer_1_vtx_cull
                0x000000000701eef8                jrb_dl_path_002_mesh_layer_6_tri_0
                0x000000000701f058                jrb_dl_path_002_mesh_layer_6_vtx_0
                0x000000000701f548                jrb_dl_path_002_mesh_layer_6_vtx_cull
                0x000000000701f5c8                jrb_dl_path_001_mesh_layer_6_tri_0
                0x000000000701f890                jrb_dl_path_001_mesh_layer_6_vtx_0
                0x0000000007020400                jrb_dl_path_001_mesh_layer_6_vtx_cull
                0x0000000007020480                jrb_dl_path_mesh_layer_6_tri_0
                0x0000000007020880                jrb_dl_path_mesh_layer_6_vtx_0
                0x0000000007021b70                jrb_dl_path_mesh_layer_6_vtx_cull
                0x0000000007021bf0                jrb_dl_mossy_stone_019_mesh_layer_1_tri_0
                0x0000000007021c58                jrb_dl_mossy_stone_019_mesh_layer_1_vtx_0
                0x0000000007021ed8                jrb_dl_mossy_stone_019_mesh_layer_1_vtx_cull
                0x0000000007021f58                jrb_dl_mossy_stone_018_mesh_layer_1_tri_0
                0x0000000007021fc0                jrb_dl_mossy_stone_018_mesh_layer_1_vtx_0
                0x0000000007022240                jrb_dl_mossy_stone_018_mesh_layer_1_vtx_cull
                0x00000000070222c0                jrb_dl_mossy_stone_017_mesh_layer_1_tri_0
                0x0000000007022328                jrb_dl_mossy_stone_017_mesh_layer_1_vtx_0
                0x00000000070225a8                jrb_dl_mossy_stone_017_mesh_layer_1_vtx_cull
                0x0000000007022628                jrb_dl_mossy_stone_016_mesh_layer_1_tri_0
                0x0000000007022690                jrb_dl_mossy_stone_016_mesh_layer_1_vtx_0
                0x0000000007022910                jrb_dl_mossy_stone_016_mesh_layer_1_vtx_cull
                0x0000000007022990                jrb_dl_mossy_stone_015_mesh_layer_1_tri_0
                0x00000000070229f8                jrb_dl_mossy_stone_015_mesh_layer_1_vtx_0
                0x0000000007022c78                jrb_dl_mossy_stone_015_mesh_layer_1_vtx_cull
                0x0000000007022cf8                jrb_dl_mossy_stone_014_mesh_layer_1_tri_0
                0x0000000007022d60                jrb_dl_mossy_stone_014_mesh_layer_1_vtx_0
                0x0000000007022fe0                jrb_dl_mossy_stone_014_mesh_layer_1_vtx_cull
                0x0000000007023060                jrb_dl_mossy_stone_013_mesh_layer_1_tri_0
                0x00000000070230c8                jrb_dl_mossy_stone_013_mesh_layer_1_vtx_0
                0x0000000007023348                jrb_dl_mossy_stone_013_mesh_layer_1_vtx_cull
                0x00000000070233c8                jrb_dl_mossy_stone_012_mesh_layer_1_tri_0
                0x0000000007023430                jrb_dl_mossy_stone_012_mesh_layer_1_vtx_0
                0x00000000070236b0                jrb_dl_mossy_stone_012_mesh_layer_1_vtx_cull
                0x0000000007023730                jrb_dl_mossy_stone_011_mesh_layer_1_tri_0
                0x0000000007023798                jrb_dl_mossy_stone_011_mesh_layer_1_vtx_0
                0x0000000007023a18                jrb_dl_mossy_stone_011_mesh_layer_1_vtx_cull
                0x0000000007023a98                jrb_dl_mossy_stone_010_mesh_layer_1_tri_0
                0x0000000007023b00                jrb_dl_mossy_stone_010_mesh_layer_1_vtx_0
                0x0000000007023d80                jrb_dl_mossy_stone_010_mesh_layer_1_vtx_cull
                0x0000000007023e00                jrb_dl_mossy_stone_009_mesh_layer_1_tri_0
                0x0000000007023e68                jrb_dl_mossy_stone_009_mesh_layer_1_vtx_0
                0x00000000070240e8                jrb_dl_mossy_stone_009_mesh_layer_1_vtx_cull
                0x0000000007024168                jrb_dl_mossy_stone_008_mesh_layer_1_tri_0
                0x00000000070241d0                jrb_dl_mossy_stone_008_mesh_layer_1_vtx_0
                0x0000000007024450                jrb_dl_mossy_stone_008_mesh_layer_1_vtx_cull
                0x00000000070244d0                jrb_dl_mossy_stone_007_mesh_layer_1_tri_0
                0x0000000007024538                jrb_dl_mossy_stone_007_mesh_layer_1_vtx_0
                0x00000000070247b8                jrb_dl_mossy_stone_007_mesh_layer_1_vtx_cull
                0x0000000007024838                jrb_dl_mossy_stone_006_mesh_layer_1_tri_0
                0x00000000070248a0                jrb_dl_mossy_stone_006_mesh_layer_1_vtx_0
                0x0000000007024b20                jrb_dl_mossy_stone_006_mesh_layer_1_vtx_cull
                0x0000000007024ba0                jrb_dl_mossy_stone_005_mesh_layer_1_tri_0
                0x0000000007024c08                jrb_dl_mossy_stone_005_mesh_layer_1_vtx_0
                0x0000000007024e88                jrb_dl_mossy_stone_005_mesh_layer_1_vtx_cull
                0x0000000007024f08                jrb_dl_mossy_stone_004_mesh_layer_1_tri_0
                0x0000000007024f70                jrb_dl_mossy_stone_004_mesh_layer_1_vtx_0
                0x00000000070251f0                jrb_dl_mossy_stone_004_mesh_layer_1_vtx_cull
                0x0000000007025270                jrb_dl_mossy_stone_003_mesh_layer_1_tri_0
                0x00000000070252d8                jrb_dl_mossy_stone_003_mesh_layer_1_vtx_0
                0x0000000007025558                jrb_dl_mossy_stone_003_mesh_layer_1_vtx_cull
                0x00000000070255d8                jrb_dl_mossy_stone_002_mesh_layer_1_tri_0
                0x0000000007025640                jrb_dl_mossy_stone_002_mesh_layer_1_vtx_0
                0x00000000070258c0                jrb_dl_mossy_stone_002_mesh_layer_1_vtx_cull
                0x0000000007025940                jrb_dl_mossy_stone_001_mesh_layer_1_tri_0
                0x00000000070259a8                jrb_dl_mossy_stone_001_mesh_layer_1_vtx_0
                0x0000000007025c28                jrb_dl_mossy_stone_001_mesh_layer_1_vtx_cull
                0x0000000007025ca8                jrb_dl_mossy_stone_mesh_layer_1_tri_0
                0x0000000007025d10                jrb_dl_mossy_stone_mesh_layer_1_vtx_0
                0x0000000007025f90                jrb_dl_mossy_stone_mesh_layer_1_vtx_cull
                0x0000000007026010                jrb_dl_Mesh_Owl_mesh_layer_1_tri_0
                0x00000000070267d8                jrb_dl_Mesh_Owl_mesh_layer_1_vtx_0
                0x0000000007029d18                jrb_dl_Mesh_Owl_mesh_layer_1_vtx_cull
                0x0000000007029d98                jrb_dl_massive_pillar_003_mesh_layer_4_tri_0
                0x0000000007029dd8                jrb_dl_massive_pillar_003_mesh_layer_4_vtx_0
                0x0000000007029ee8                jrb_dl_massive_pillar_003_mesh_layer_4_vtx_cull
                0x0000000007029f68                jrb_dl_massive_pillar_mesh_layer_1_tri_4
                0x0000000007029fd0                jrb_dl_massive_pillar_mesh_layer_1_vtx_4
                0x000000000702a250                jrb_dl_massive_pillar_mesh_layer_1_tri_3
                0x000000000702a318                jrb_dl_massive_pillar_mesh_layer_1_vtx_3
                0x000000000702a678                jrb_dl_massive_pillar_mesh_layer_1_tri_2
                0x000000000702a700                jrb_dl_massive_pillar_mesh_layer_1_vtx_2
                0x000000000702aa60                jrb_dl_massive_pillar_mesh_layer_1_tri_1
                0x000000000702aab0                jrb_dl_massive_pillar_mesh_layer_1_vtx_1
                0x000000000702acb0                jrb_dl_massive_pillar_mesh_layer_1_tri_0
                0x000000000702af60                jrb_dl_massive_pillar_mesh_layer_1_vtx_0
                0x000000000702bfa0                jrb_dl_massive_pillar_mesh_layer_1_vtx_cull
                0x000000000702c020                jrb_dl_Icosphere_015_mesh_layer_1_tri_0
                0x000000000702c628                jrb_dl_Icosphere_015_mesh_layer_1_vtx_0
                0x0000000007030228                jrb_dl_Icosphere_015_mesh_layer_1_vtx_cull
                0x00000000070302a8                jrb_dl_Icosphere_008_mesh_layer_1_tri_0
                0x00000000070308b0                jrb_dl_Icosphere_008_mesh_layer_1_vtx_0
                0x00000000070344b0                jrb_dl_Icosphere_008_mesh_layer_1_vtx_cull
                0x0000000007034530                jrb_dl_Icosphere_007_mesh_layer_1_tri_0
                0x0000000007034b38                jrb_dl_Icosphere_007_mesh_layer_1_vtx_0
                0x0000000007038738                jrb_dl_Icosphere_007_mesh_layer_1_vtx_cull
                0x00000000070387b8                jrb_dl_Icosphere_006_mesh_layer_1_tri_0
                0x0000000007038dc0                jrb_dl_Icosphere_006_mesh_layer_1_vtx_0
                0x000000000703c9c0                jrb_dl_Icosphere_006_mesh_layer_1_vtx_cull
                0x000000000703ca40                jrb_dl_Icosphere_005_mesh_layer_1_tri_0
                0x000000000703d048                jrb_dl_Icosphere_005_mesh_layer_1_vtx_0
                0x0000000007040c48                jrb_dl_Icosphere_005_mesh_layer_1_vtx_cull
                0x0000000007040cc8                jrb_dl_Icosphere_004_mesh_layer_1_tri_0
                0x00000000070412d0                jrb_dl_Icosphere_004_mesh_layer_1_vtx_0
                0x0000000007044ed0                jrb_dl_Icosphere_004_mesh_layer_1_vtx_cull
                0x0000000007044f50                jrb_dl_Icosphere_003_mesh_layer_1_tri_0
                0x0000000007045558                jrb_dl_Icosphere_003_mesh_layer_1_vtx_0
                0x0000000007049158                jrb_dl_Icosphere_003_mesh_layer_1_vtx_cull
                0x00000000070491d8                jrb_dl_Icosphere_002_mesh_layer_1_tri_0
                0x00000000070497e0                jrb_dl_Icosphere_002_mesh_layer_1_vtx_0
                0x000000000704d3e0                jrb_dl_Icosphere_002_mesh_layer_1_vtx_cull
                0x000000000704d460                jrb_dl_Icosphere_001_mesh_layer_1_tri_0
                0x000000000704da68                jrb_dl_Icosphere_001_mesh_layer_1_vtx_0
                0x0000000007051668                jrb_dl_Icosphere_001_mesh_layer_1_vtx_cull
                0x00000000070516e8                jrb_dl_Houses_SecondAge_3_Level1_004_mesh_layer_1_tri_4
                0x0000000007051738                jrb_dl_Houses_SecondAge_3_Level1_004_mesh_layer_1_vtx_4
                0x0000000007051908                jrb_dl_Houses_SecondAge_3_Level1_004_mesh_layer_1_tri_3
                0x0000000007051c08                jrb_dl_Houses_SecondAge_3_Level1_004_mesh_layer_1_vtx_3
                0x0000000007053108                jrb_dl_Houses_SecondAge_3_Level1_004_mesh_layer_1_tri_2
                0x0000000007053450                jrb_dl_Houses_SecondAge_3_Level1_004_mesh_layer_1_vtx_2
                0x0000000007054b50                jrb_dl_Houses_SecondAge_3_Level1_004_mesh_layer_1_tri_1
                0x0000000007054b70                jrb_dl_Houses_SecondAge_3_Level1_004_mesh_layer_1_vtx_1
                0x0000000007054bf0                jrb_dl_Houses_SecondAge_3_Level1_004_mesh_layer_1_tri_0
                0x0000000007054c88                jrb_dl_Houses_SecondAge_3_Level1_004_mesh_layer_1_vtx_0
                0x0000000007055068                jrb_dl_Houses_SecondAge_3_Level1_004_mesh_layer_1_vtx_cull
                0x00000000070550e8                jrb_dl_Houses_SecondAge_3_Level1_003_mesh_layer_1_tri_4
                0x0000000007055138                jrb_dl_Houses_SecondAge_3_Level1_003_mesh_layer_1_vtx_4
                0x0000000007055308                jrb_dl_Houses_SecondAge_3_Level1_003_mesh_layer_1_tri_3
                0x0000000007055610                jrb_dl_Houses_SecondAge_3_Level1_003_mesh_layer_1_vtx_3
                0x0000000007056b50                jrb_dl_Houses_SecondAge_3_Level1_003_mesh_layer_1_tri_2
                0x0000000007056e90                jrb_dl_Houses_SecondAge_3_Level1_003_mesh_layer_1_vtx_2
                0x0000000007058550                jrb_dl_Houses_SecondAge_3_Level1_003_mesh_layer_1_tri_1
                0x0000000007058570                jrb_dl_Houses_SecondAge_3_Level1_003_mesh_layer_1_vtx_1
                0x00000000070585f0                jrb_dl_Houses_SecondAge_3_Level1_003_mesh_layer_1_tri_0
                0x0000000007058688                jrb_dl_Houses_SecondAge_3_Level1_003_mesh_layer_1_vtx_0
                0x0000000007058a68                jrb_dl_Houses_SecondAge_3_Level1_003_mesh_layer_1_vtx_cull
                0x0000000007058ae8                jrb_dl_Houses_SecondAge_3_Level1_002_mesh_layer_1_tri_4
                0x0000000007058b38                jrb_dl_Houses_SecondAge_3_Level1_002_mesh_layer_1_vtx_4
                0x0000000007058d08                jrb_dl_Houses_SecondAge_3_Level1_002_mesh_layer_1_tri_3
                0x0000000007059008                jrb_dl_Houses_SecondAge_3_Level1_002_mesh_layer_1_vtx_3
                0x000000000705a508                jrb_dl_Houses_SecondAge_3_Level1_002_mesh_layer_1_tri_2
                0x000000000705a850                jrb_dl_Houses_SecondAge_3_Level1_002_mesh_layer_1_vtx_2
                0x000000000705bf50                jrb_dl_Houses_SecondAge_3_Level1_002_mesh_layer_1_tri_1
                0x000000000705bf70                jrb_dl_Houses_SecondAge_3_Level1_002_mesh_layer_1_vtx_1
                0x000000000705bff0                jrb_dl_Houses_SecondAge_3_Level1_002_mesh_layer_1_tri_0
                0x000000000705c088                jrb_dl_Houses_SecondAge_3_Level1_002_mesh_layer_1_vtx_0
                0x000000000705c468                jrb_dl_Houses_SecondAge_3_Level1_002_mesh_layer_1_vtx_cull
                0x000000000705c4e8                jrb_dl_Houses_SecondAge_3_Level1_001_mesh_layer_1_tri_4
                0x000000000705c538                jrb_dl_Houses_SecondAge_3_Level1_001_mesh_layer_1_vtx_4
                0x000000000705c708                jrb_dl_Houses_SecondAge_3_Level1_001_mesh_layer_1_tri_3
                0x000000000705ca10                jrb_dl_Houses_SecondAge_3_Level1_001_mesh_layer_1_vtx_3
                0x000000000705df50                jrb_dl_Houses_SecondAge_3_Level1_001_mesh_layer_1_tri_2
                0x000000000705e290                jrb_dl_Houses_SecondAge_3_Level1_001_mesh_layer_1_vtx_2
                0x000000000705f950                jrb_dl_Houses_SecondAge_3_Level1_001_mesh_layer_1_tri_1
                0x000000000705f970                jrb_dl_Houses_SecondAge_3_Level1_001_mesh_layer_1_vtx_1
                0x000000000705f9f0                jrb_dl_Houses_SecondAge_3_Level1_001_mesh_layer_1_tri_0
                0x000000000705fa88                jrb_dl_Houses_SecondAge_3_Level1_001_mesh_layer_1_vtx_0
                0x000000000705fe68                jrb_dl_Houses_SecondAge_3_Level1_001_mesh_layer_1_vtx_cull
                0x000000000705fee8                jrb_dl_Houses_SecondAge_3_Level1_mesh_layer_1_tri_4
                0x000000000705ff38                jrb_dl_Houses_SecondAge_3_Level1_mesh_layer_1_vtx_4
                0x0000000007060108                jrb_dl_Houses_SecondAge_3_Level1_mesh_layer_1_tri_3
                0x0000000007060408                jrb_dl_Houses_SecondAge_3_Level1_mesh_layer_1_vtx_3
                0x0000000007061908                jrb_dl_Houses_SecondAge_3_Level1_mesh_layer_1_tri_2
                0x0000000007061c50                jrb_dl_Houses_SecondAge_3_Level1_mesh_layer_1_vtx_2
                0x0000000007063350                jrb_dl_Houses_SecondAge_3_Level1_mesh_layer_1_tri_1
                0x0000000007063370                jrb_dl_Houses_SecondAge_3_Level1_mesh_layer_1_vtx_1
                0x00000000070633f0                jrb_dl_Houses_SecondAge_3_Level1_mesh_layer_1_tri_0
                0x0000000007063488                jrb_dl_Houses_SecondAge_3_Level1_mesh_layer_1_vtx_0
                0x0000000007063868                jrb_dl_Houses_SecondAge_3_Level1_mesh_layer_1_vtx_cull
                0x00000000070638e8                jrb_dl_Houses_SecondAge_1_Level1_001_mesh_layer_1_tri_4
                0x00000000070639a8                jrb_dl_Houses_SecondAge_1_Level1_001_mesh_layer_1_vtx_4
                0x0000000007063ea8                jrb_dl_Houses_SecondAge_1_Level1_001_mesh_layer_1_tri_3
                0x0000000007063ef8                jrb_dl_Houses_SecondAge_1_Level1_001_mesh_layer_1_vtx_3
                0x00000000070640d8                jrb_dl_Houses_SecondAge_1_Level1_001_mesh_layer_1_tri_2
                0x0000000007064840                jrb_dl_Houses_SecondAge_1_Level1_001_mesh_layer_1_vtx_2
                0x0000000007067c60                jrb_dl_Houses_SecondAge_1_Level1_001_mesh_layer_1_tri_1
                0x0000000007067ca0                jrb_dl_Houses_SecondAge_1_Level1_001_mesh_layer_1_vtx_1
                0x0000000007067e10                jrb_dl_Houses_SecondAge_1_Level1_001_mesh_layer_1_tri_0
                0x0000000007067e30                jrb_dl_Houses_SecondAge_1_Level1_001_mesh_layer_1_vtx_0
                0x0000000007067eb0                jrb_dl_Houses_SecondAge_1_Level1_001_mesh_layer_1_vtx_cull
                0x0000000007067f30                jrb_dl_flowers_002_mesh_layer_5_tri_0
                0x0000000007067fe0                jrb_dl_flowers_002_mesh_layer_5_vtx_0
                0x0000000007068320                jrb_dl_flowers_002_mesh_layer_5_vtx_cull
                0x00000000070683a0                jrb_dl_flowers_002_mesh_layer_4_tri_0
                0x00000000070683f0                jrb_dl_flowers_002_mesh_layer_4_vtx_0
                0x0000000007068590                jrb_dl_flowers_002_mesh_layer_4_vtx_cull
                0x0000000007068610                jrb_dl_flowers_001_mesh_layer_5_tri_0
                0x00000000070686a8                jrb_dl_flowers_001_mesh_layer_5_vtx_0
                0x00000000070689a8                jrb_dl_flowers_001_mesh_layer_5_vtx_cull
                0x0000000007068a28                jrb_dl_flowers_001_mesh_layer_4_tri_0
                0x0000000007068a78                jrb_dl_flowers_001_mesh_layer_4_vtx_0
                0x0000000007068bd8                jrb_dl_flowers_001_mesh_layer_4_vtx_cull
                0x0000000007068c58                jrb_dl_flowers_mesh_layer_5_tri_0
                0x0000000007068cf0                jrb_dl_flowers_mesh_layer_5_vtx_0
                0x0000000007068ff0                jrb_dl_flowers_mesh_layer_5_vtx_cull
                0x0000000007069070                jrb_dl_flowers_mesh_layer_4_tri_0
                0x00000000070690c0                jrb_dl_flowers_mesh_layer_4_vtx_0
                0x0000000007069220                jrb_dl_flowers_mesh_layer_4_vtx_cull
                0x00000000070692a0                jrb_dl_death_plane_mesh_layer_1_tri_0
                0x00000000070692b8                jrb_dl_death_plane_mesh_layer_1_vtx_0
                0x00000000070692f8                jrb_dl_death_plane_mesh_layer_1_vtx_cull
                0x0000000007069378                jrb_dl_Cylinder_006_mesh_layer_1_tri_2
                0x0000000007069410                jrb_dl_Cylinder_006_mesh_layer_1_vtx_2
                0x0000000007069750                jrb_dl_Cylinder_006_mesh_layer_1_tri_1
                0x0000000007069910                jrb_dl_Cylinder_006_mesh_layer_1_vtx_1
                0x000000000706a2a0                jrb_dl_Cylinder_006_mesh_layer_1_tri_0
                0x000000000706a3d8                jrb_dl_Cylinder_006_mesh_layer_1_vtx_0
                0x000000000706aa08                jrb_dl_Cylinder_006_mesh_layer_1_vtx_cull
                0x000000000706aa88                jrb_dl_Cylinder_005_mesh_layer_1_tri_1
                0x000000000706ae50                jrb_dl_Cylinder_005_mesh_layer_1_vtx_1
                0x000000000706c170                jrb_dl_Cylinder_005_mesh_layer_1_tri_0
                0x000000000706c508                jrb_dl_Cylinder_005_mesh_layer_1_vtx_0
                0x000000000706d798                jrb_dl_Cylinder_005_mesh_layer_1_vtx_cull
                0x000000000706d818                jrb_dl_Cylinder_004_mesh_layer_1_tri_1
                0x000000000706dbc0                jrb_dl_Cylinder_004_mesh_layer_1_vtx_1
                0x000000000706ee30                jrb_dl_Cylinder_004_mesh_layer_1_tri_0
                0x000000000706f1a0                jrb_dl_Cylinder_004_mesh_layer_1_vtx_0
                0x0000000007070370                jrb_dl_Cylinder_004_mesh_layer_1_vtx_cull
                0x00000000070703f0                jrb_dl_Cylinder_003_mesh_layer_1_tri_1
                0x0000000007070478                jrb_dl_Cylinder_003_mesh_layer_1_vtx_1
                0x0000000007070678                jrb_dl_Cylinder_003_mesh_layer_1_tri_0
                0x0000000007070820                jrb_dl_Cylinder_003_mesh_layer_1_vtx_0
                0x0000000007071220                jrb_dl_Cylinder_003_mesh_layer_1_vtx_cull
                0x00000000070712a0                jrb_dl_Cylinder_002_mesh_layer_1_tri_1
                0x0000000007071328                jrb_dl_Cylinder_002_mesh_layer_1_vtx_1
                0x0000000007071528                jrb_dl_Cylinder_002_mesh_layer_1_tri_0
                0x00000000070716d0                jrb_dl_Cylinder_002_mesh_layer_1_vtx_0
                0x00000000070720d0                jrb_dl_Cylinder_002_mesh_layer_1_vtx_cull
                0x0000000007072150                jrb_dl_Cylinder_001_mesh_layer_6_tri_0
                0x00000000070721a8                jrb_dl_Cylinder_001_mesh_layer_6_vtx_0
                0x0000000007072298                jrb_dl_Cylinder_001_mesh_layer_6_vtx_cull
                0x0000000007072318                jrb_dl_Cylinder_mesh_layer_1_tri_2
                0x00000000070723a8                jrb_dl_Cylinder_mesh_layer_1_vtx_2
                0x0000000007072768                jrb_dl_Cylinder_mesh_layer_1_tri_1
                0x00000000070728f0                jrb_dl_Cylinder_mesh_layer_1_vtx_1
                0x0000000007073220                jrb_dl_Cylinder_mesh_layer_1_tri_0
                0x00000000070732e8                jrb_dl_Cylinder_mesh_layer_1_vtx_0
                0x00000000070735f8                jrb_dl_Cylinder_mesh_layer_1_vtx_cull
                0x0000000007073678                jrb_dl_Cube_064_mesh_layer_1_tri_5
                0x00000000070736c8                jrb_dl_Cube_064_mesh_layer_1_vtx_5
                0x00000000070737d8                jrb_dl_Cube_064_mesh_layer_1_tri_4
                0x0000000007073818                jrb_dl_Cube_064_mesh_layer_1_vtx_4
                0x0000000007073998                jrb_dl_Cube_064_mesh_layer_1_tri_3
                0x00000000070739d8                jrb_dl_Cube_064_mesh_layer_1_vtx_3
                0x0000000007073b58                jrb_dl_Cube_064_mesh_layer_1_tri_2
                0x0000000007073bc0                jrb_dl_Cube_064_mesh_layer_1_vtx_2
                0x0000000007073e40                jrb_dl_Cube_064_mesh_layer_1_tri_1
                0x0000000007074020                jrb_dl_Cube_064_mesh_layer_1_vtx_1
                0x0000000007074ca0                jrb_dl_Cube_064_mesh_layer_1_tri_0
                0x0000000007075a18                jrb_dl_Cube_064_mesh_layer_1_vtx_0
                0x000000000707a678                jrb_dl_Cube_064_mesh_layer_1_vtx_cull
                0x000000000707a6f8                jrb_dl_Cube_058_mesh_layer_1_tri_0
                0x000000000707a8c0                jrb_dl_Cube_058_mesh_layer_1_vtx_0
                0x000000000707b480                jrb_dl_Cube_058_mesh_layer_1_vtx_cull
                0x000000000707b500                jrb_dl_Cube_054_mesh_layer_6_tri_0
                0x000000000707b5c8                jrb_dl_Cube_054_mesh_layer_6_vtx_0
                0x000000000707b7c8                jrb_dl_Cube_054_mesh_layer_6_vtx_cull
                0x000000000707b848                jrb_dl_Cube_053_mesh_layer_6_tri_0
                0x000000000707b910                jrb_dl_Cube_053_mesh_layer_6_vtx_0
                0x000000000707bb10                jrb_dl_Cube_053_mesh_layer_6_vtx_cull
                0x000000000707bb90                jrb_dl_Cube_051_mesh_layer_1_tri_0
                0x000000000707bd58                jrb_dl_Cube_051_mesh_layer_1_vtx_0
                0x000000000707c918                jrb_dl_Cube_051_mesh_layer_1_vtx_cull
                0x000000000707c998                jrb_dl_Cube_050_mesh_layer_1_tri_1
                0x000000000707ca10                jrb_dl_Cube_050_mesh_layer_1_vtx_1
                0x000000000707cce0                jrb_dl_Cube_050_mesh_layer_1_tri_0
                0x000000000707cd58                jrb_dl_Cube_050_mesh_layer_1_vtx_0
                0x000000000707d028                jrb_dl_Cube_050_mesh_layer_1_vtx_cull
                0x000000000707d0a8                jrb_dl_Cube_049_mesh_layer_1_tri_1
                0x000000000707d1b0                jrb_dl_Cube_049_mesh_layer_1_vtx_1
                0x000000000707d840                jrb_dl_Cube_049_mesh_layer_1_tri_0
                0x000000000707d900                jrb_dl_Cube_049_mesh_layer_1_vtx_0
                0x000000000707dda0                jrb_dl_Cube_049_mesh_layer_1_vtx_cull
                0x000000000707de20                jrb_dl_Cube_048_mesh_layer_1_tri_0
                0x000000000707de60                jrb_dl_Cube_048_mesh_layer_1_vtx_0
                0x000000000707dfe0                jrb_dl_Cube_048_mesh_layer_1_vtx_cull
                0x000000000707e060                jrb_dl_Cube_047_mesh_layer_1_tri_0
                0x000000000707e0a0                jrb_dl_Cube_047_mesh_layer_1_vtx_0
                0x000000000707e220                jrb_dl_Cube_047_mesh_layer_1_vtx_cull
                0x000000000707e2a0                jrb_dl_Cube_046_mesh_layer_6_tri_0
                0x000000000707e368                jrb_dl_Cube_046_mesh_layer_6_vtx_0
                0x000000000707e568                jrb_dl_Cube_046_mesh_layer_6_vtx_cull
                0x000000000707e5e8                jrb_dl_Cube_045_mesh_layer_1_tri_1
                0x000000000707e618                jrb_dl_Cube_045_mesh_layer_1_vtx_1
                0x000000000707e718                jrb_dl_Cube_045_mesh_layer_1_tri_0
                0x000000000707e738                jrb_dl_Cube_045_mesh_layer_1_vtx_0
                0x000000000707e7b8                jrb_dl_Cube_045_mesh_layer_1_vtx_cull
                0x000000000707e838                jrb_dl_Cube_044_mesh_layer_1_tri_1
                0x000000000707e8d8                jrb_dl_Cube_044_mesh_layer_1_vtx_1
                0x000000000707eba8                jrb_dl_Cube_044_mesh_layer_1_tri_0
                0x000000000707ecc8                jrb_dl_Cube_044_mesh_layer_1_vtx_0
                0x000000000707f1a8                jrb_dl_Cube_044_mesh_layer_1_vtx_cull
                0x000000000707f228                jrb_dl_Cube_043_mesh_layer_1_tri_0
                0x000000000707f258                jrb_dl_Cube_043_mesh_layer_1_vtx_0
                0x000000000707f378                jrb_dl_Cube_043_mesh_layer_1_vtx_cull
                0x000000000707f3f8                jrb_dl_Cube_042_mesh_layer_1_tri_1
                0x000000000707f4f0                jrb_dl_Cube_042_mesh_layer_1_vtx_1
                0x000000000707fa10                jrb_dl_Cube_042_mesh_layer_1_tri_0
                0x000000000707fbb0                jrb_dl_Cube_042_mesh_layer_1_vtx_0
                0x00000000070803e0                jrb_dl_Cube_042_mesh_layer_1_vtx_cull
                0x0000000007080460                jrb_dl_Cube_041_mesh_layer_1_tri_0
                0x00000000070804a0                jrb_dl_Cube_041_mesh_layer_1_vtx_0
                0x0000000007080620                jrb_dl_Cube_041_mesh_layer_1_vtx_cull
                0x00000000070806a0                jrb_dl_Cube_040_mesh_layer_1_tri_0
                0x00000000070806e0                jrb_dl_Cube_040_mesh_layer_1_vtx_0
                0x0000000007080860                jrb_dl_Cube_040_mesh_layer_1_vtx_cull
                0x00000000070808e0                jrb_dl_Cube_039_mesh_layer_1_tri_0
                0x0000000007080910                jrb_dl_Cube_039_mesh_layer_1_vtx_0
                0x0000000007080a30                jrb_dl_Cube_039_mesh_layer_1_vtx_cull
                0x0000000007080ab0                jrb_dl_Cube_038_mesh_layer_5_tri_0
                0x0000000007080ad0                jrb_dl_Cube_038_mesh_layer_5_vtx_0
                0x0000000007080b30                jrb_dl_Cube_038_mesh_layer_5_vtx_cull
                0x0000000007080bb0                jrb_dl_Cube_037_mesh_layer_1_tri_0
                0x0000000007080bf0                jrb_dl_Cube_037_mesh_layer_1_vtx_0
                0x0000000007080d70                jrb_dl_Cube_037_mesh_layer_1_vtx_cull
                0x0000000007080df0                jrb_dl_Cube_036_mesh_layer_1_tri_1
                0x0000000007080e20                jrb_dl_Cube_036_mesh_layer_1_vtx_1
                0x0000000007080f20                jrb_dl_Cube_036_mesh_layer_1_tri_0
                0x0000000007080f40                jrb_dl_Cube_036_mesh_layer_1_vtx_0
                0x0000000007080fc0                jrb_dl_Cube_036_mesh_layer_1_vtx_cull
                0x0000000007081040                jrb_dl_Cube_035_mesh_layer_5_tri_0
                0x0000000007081080                jrb_dl_Cube_035_mesh_layer_5_vtx_0
                0x0000000007081200                jrb_dl_Cube_035_mesh_layer_5_vtx_cull
                0x0000000007081280                jrb_dl_Cube_035_mesh_layer_4_tri_0
                0x00000000070812c0                jrb_dl_Cube_035_mesh_layer_4_vtx_0
                0x0000000007081440                jrb_dl_Cube_035_mesh_layer_4_vtx_cull
                0x00000000070814c0                jrb_dl_Cube_035_mesh_layer_1_tri_9
                0x0000000007082428                jrb_dl_Cube_035_mesh_layer_1_vtx_9
                0x0000000007088f18                jrb_dl_Cube_035_mesh_layer_1_tri_8
                0x00000000070890e8                jrb_dl_Cube_035_mesh_layer_1_vtx_8
                0x0000000007089ba8                jrb_dl_Cube_035_mesh_layer_1_tri_7
                0x0000000007089bd8                jrb_dl_Cube_035_mesh_layer_1_vtx_7
                0x0000000007089cc8                jrb_dl_Cube_035_mesh_layer_1_tri_6
                0x0000000007089e58                jrb_dl_Cube_035_mesh_layer_1_vtx_6
                0x000000000708a738                jrb_dl_Cube_035_mesh_layer_1_tri_5
                0x000000000708a7e8                jrb_dl_Cube_035_mesh_layer_1_vtx_5
                0x000000000708ac68                jrb_dl_Cube_035_mesh_layer_1_tri_4
                0x000000000708afa0                jrb_dl_Cube_035_mesh_layer_1_vtx_4
                0x000000000708c620                jrb_dl_Cube_035_mesh_layer_1_tri_3
                0x000000000708c658                jrb_dl_Cube_035_mesh_layer_1_vtx_3
                0x000000000708c768                jrb_dl_Cube_035_mesh_layer_1_tri_2
                0x000000000708c7a8                jrb_dl_Cube_035_mesh_layer_1_vtx_2
                0x000000000708c928                jrb_dl_Cube_035_mesh_layer_1_tri_1
                0x000000000708cb08                jrb_dl_Cube_035_mesh_layer_1_vtx_1
                0x000000000708d598                jrb_dl_Cube_035_mesh_layer_1_tri_0
                0x000000000708d5f8                jrb_dl_Cube_035_mesh_layer_1_vtx_0
                0x000000000708d7b8                jrb_dl_Cube_035_mesh_layer_1_vtx_cull
                0x000000000708d838                jrb_dl_Cube_034_mesh_layer_1_tri_1
                0x000000000708d868                jrb_dl_Cube_034_mesh_layer_1_vtx_1
                0x000000000708d968                jrb_dl_Cube_034_mesh_layer_1_tri_0
                0x000000000708d988                jrb_dl_Cube_034_mesh_layer_1_vtx_0
                0x000000000708da08                jrb_dl_Cube_034_mesh_layer_1_vtx_cull
                0x000000000708da88                jrb_dl_Cube_033_mesh_layer_6_tri_0
                0x000000000708db50                jrb_dl_Cube_033_mesh_layer_6_vtx_0
                0x000000000708dd50                jrb_dl_Cube_033_mesh_layer_6_vtx_cull
                0x000000000708ddd0                jrb_dl_Cube_032_mesh_layer_1_tri_0
                0x000000000708de48                jrb_dl_Cube_032_mesh_layer_1_vtx_0
                0x000000000708e148                jrb_dl_Cube_032_mesh_layer_1_vtx_cull
                0x000000000708e1c8                jrb_dl_Cube_031_mesh_layer_1_tri_1
                0x000000000708e1f8                jrb_dl_Cube_031_mesh_layer_1_vtx_1
                0x000000000708e2f8                jrb_dl_Cube_031_mesh_layer_1_tri_0
                0x000000000708e318                jrb_dl_Cube_031_mesh_layer_1_vtx_0
                0x000000000708e398                jrb_dl_Cube_031_mesh_layer_1_vtx_cull
                0x000000000708e418                jrb_dl_Cube_030_mesh_layer_1_tri_0
                0x000000000708e5e0                jrb_dl_Cube_030_mesh_layer_1_vtx_0
                0x000000000708f1a0                jrb_dl_Cube_030_mesh_layer_1_vtx_cull
                0x000000000708f220                jrb_dl_Cube_029_mesh_layer_1_tri_0
                0x000000000708f3e8                jrb_dl_Cube_029_mesh_layer_1_vtx_0
                0x000000000708ffa8                jrb_dl_Cube_029_mesh_layer_1_vtx_cull
                0x0000000007090028                jrb_dl_Cube_028_mesh_layer_1_tri_0
                0x00000000070901f0                jrb_dl_Cube_028_mesh_layer_1_vtx_0
                0x0000000007090db0                jrb_dl_Cube_028_mesh_layer_1_vtx_cull
                0x0000000007090e30                jrb_dl_Cube_027_mesh_layer_6_tri_0
                0x0000000007090ef8                jrb_dl_Cube_027_mesh_layer_6_vtx_0
                0x00000000070910f8                jrb_dl_Cube_027_mesh_layer_6_vtx_cull
                0x0000000007091178                jrb_dl_Cube_026_mesh_layer_1_tri_1
                0x00000000070911a8                jrb_dl_Cube_026_mesh_layer_1_vtx_1
                0x00000000070912a8                jrb_dl_Cube_026_mesh_layer_1_tri_0
                0x00000000070912c8                jrb_dl_Cube_026_mesh_layer_1_vtx_0
                0x0000000007091348                jrb_dl_Cube_026_mesh_layer_1_vtx_cull
                0x00000000070913c8                jrb_dl_Cube_024_mesh_layer_1_tri_1
                0x00000000070913f8                jrb_dl_Cube_024_mesh_layer_1_vtx_1
                0x00000000070914f8                jrb_dl_Cube_024_mesh_layer_1_tri_0
                0x0000000007091518                jrb_dl_Cube_024_mesh_layer_1_vtx_0
                0x0000000007091598                jrb_dl_Cube_024_mesh_layer_1_vtx_cull
                0x0000000007091618                jrb_dl_Cube_023_mesh_layer_5_tri_0
                0x00000000070916a0                jrb_dl_Cube_023_mesh_layer_5_vtx_0
                0x0000000007091a20                jrb_dl_Cube_023_mesh_layer_5_vtx_cull
                0x0000000007091aa0                jrb_dl_Cube_022_mesh_layer_6_tri_0
                0x0000000007091ad8                jrb_dl_Cube_022_mesh_layer_6_vtx_0
                0x0000000007091b68                jrb_dl_Cube_022_mesh_layer_6_vtx_cull
                0x0000000007091be8                jrb_dl_Cube_021_mesh_layer_1_tri_1
                0x0000000007091c18                jrb_dl_Cube_021_mesh_layer_1_vtx_1
                0x0000000007091d18                jrb_dl_Cube_021_mesh_layer_1_tri_0
                0x0000000007091d38                jrb_dl_Cube_021_mesh_layer_1_vtx_0
                0x0000000007091db8                jrb_dl_Cube_021_mesh_layer_1_vtx_cull
                0x0000000007091e38                jrb_dl_Cube_020_mesh_layer_5_tri_0
                0x0000000007091ec0                jrb_dl_Cube_020_mesh_layer_5_vtx_0
                0x00000000070921c0                jrb_dl_Cube_020_mesh_layer_5_vtx_cull
                0x0000000007092240                jrb_dl_Cube_019_mesh_layer_1_tri_3
                0x0000000007092278                jrb_dl_Cube_019_mesh_layer_1_vtx_3
                0x00000000070923b8                jrb_dl_Cube_019_mesh_layer_1_tri_2
                0x00000000070923f0                jrb_dl_Cube_019_mesh_layer_1_vtx_2
                0x00000000070924b0                jrb_dl_Cube_019_mesh_layer_1_tri_1
                0x00000000070924f8                jrb_dl_Cube_019_mesh_layer_1_vtx_1
                0x0000000007092658                jrb_dl_Cube_019_mesh_layer_1_tri_0
                0x00000000070926c8                jrb_dl_Cube_019_mesh_layer_1_vtx_0
                0x0000000007092908                jrb_dl_Cube_019_mesh_layer_1_vtx_cull
                0x0000000007092988                jrb_dl_Cube_018_mesh_layer_5_tri_1
                0x00000000070929a8                jrb_dl_Cube_018_mesh_layer_5_vtx_1
                0x0000000007092a28                jrb_dl_Cube_018_mesh_layer_5_tri_0
                0x0000000007092aa0                jrb_dl_Cube_018_mesh_layer_5_vtx_0
                0x0000000007092da0                jrb_dl_Cube_018_mesh_layer_5_vtx_cull
                0x0000000007092e20                jrb_dl_Cube_017_mesh_layer_1_tri_0
                0x0000000007092fe8                jrb_dl_Cube_017_mesh_layer_1_vtx_0
                0x0000000007093ba8                jrb_dl_Cube_017_mesh_layer_1_vtx_cull
                0x0000000007093c28                jrb_dl_Cube_016_mesh_layer_1_tri_0
                0x0000000007093c68                jrb_dl_Cube_016_mesh_layer_1_vtx_0
                0x0000000007093de8                jrb_dl_Cube_016_mesh_layer_1_vtx_cull
                0x0000000007093e68                jrb_dl_Cube_015_mesh_layer_1_tri_1
                0x0000000007093e80                jrb_dl_Cube_015_mesh_layer_1_vtx_1
                0x0000000007093ec0                jrb_dl_Cube_015_mesh_layer_1_tri_0
                0x0000000007093ef8                jrb_dl_Cube_015_mesh_layer_1_vtx_0
                0x0000000007094038                jrb_dl_Cube_015_mesh_layer_1_vtx_cull
                0x00000000070940b8                jrb_dl_Cube_014_mesh_layer_1_tri_0
                0x0000000007094120                jrb_dl_Cube_014_mesh_layer_1_vtx_0
                0x00000000070943a0                jrb_dl_Cube_014_mesh_layer_1_vtx_cull
                0x0000000007094420                jrb_dl_Cube_013_mesh_layer_1_tri_4
                0x0000000007094470                jrb_dl_Cube_013_mesh_layer_1_vtx_4
                0x0000000007094590                jrb_dl_Cube_013_mesh_layer_1_tri_3
                0x0000000007094710                jrb_dl_Cube_013_mesh_layer_1_vtx_3
                0x0000000007095000                jrb_dl_Cube_013_mesh_layer_1_tri_2
                0x0000000007095048                jrb_dl_Cube_013_mesh_layer_1_vtx_2
                0x0000000007095188                jrb_dl_Cube_013_mesh_layer_1_tri_1
                0x0000000007095338                jrb_dl_Cube_013_mesh_layer_1_vtx_1
                0x0000000007095e68                jrb_dl_Cube_013_mesh_layer_1_tri_0
                0x0000000007096420                jrb_dl_Cube_013_mesh_layer_1_vtx_0
                0x0000000007097cd0                jrb_dl_Cube_013_mesh_layer_1_vtx_cull
                0x0000000007097d50                jrb_dl_Cube_012_mesh_layer_1_tri_1
                0x0000000007097d68                jrb_dl_Cube_012_mesh_layer_1_vtx_1
                0x0000000007097da8                jrb_dl_Cube_012_mesh_layer_1_tri_0
                0x0000000007097e00                jrb_dl_Cube_012_mesh_layer_1_vtx_0
                0x0000000007097fc0                jrb_dl_Cube_012_mesh_layer_1_vtx_cull
                0x0000000007098040                jrb_dl_Cube_011_mesh_layer_1_tri_0
                0x0000000007098080                jrb_dl_Cube_011_mesh_layer_1_vtx_0
                0x0000000007098200                jrb_dl_Cube_011_mesh_layer_1_vtx_cull
                0x0000000007098280                jrb_dl_Cube_010_mesh_layer_5_tri_0
                0x00000000070982d0                jrb_dl_Cube_010_mesh_layer_5_vtx_0
                0x00000000070983f0                jrb_dl_Cube_010_mesh_layer_5_vtx_cull
                0x0000000007098470                jrb_dl_Cube_009_mesh_layer_1_tri_0
                0x00000000070984b0                jrb_dl_Cube_009_mesh_layer_1_vtx_0
                0x0000000007098630                jrb_dl_Cube_009_mesh_layer_1_vtx_cull
                0x00000000070986b0                jrb_dl_Cube_008_mesh_layer_5_tri_0
                0x00000000070986f8                jrb_dl_Cube_008_mesh_layer_5_vtx_0
                0x0000000007098838                jrb_dl_Cube_008_mesh_layer_5_vtx_cull
                0x00000000070988b8                jrb_dl_Cube_007_mesh_layer_1_tri_0
                0x0000000007098a80                jrb_dl_Cube_007_mesh_layer_1_vtx_0
                0x0000000007099640                jrb_dl_Cube_007_mesh_layer_1_vtx_cull
                0x00000000070996c0                jrb_dl_Cube_006_mesh_layer_1_tri_0
                0x0000000007099888                jrb_dl_Cube_006_mesh_layer_1_vtx_0
                0x000000000709a448                jrb_dl_Cube_006_mesh_layer_1_vtx_cull
                0x000000000709a4c8                jrb_dl_Cube_005_mesh_layer_1_tri_0
                0x000000000709a690                jrb_dl_Cube_005_mesh_layer_1_vtx_0
                0x000000000709b250                jrb_dl_Cube_005_mesh_layer_1_vtx_cull
                0x000000000709b2d0                jrb_dl_Cube_004_mesh_layer_1_tri_0
                0x000000000709b310                jrb_dl_Cube_004_mesh_layer_1_vtx_0
                0x000000000709b490                jrb_dl_Cube_004_mesh_layer_1_vtx_cull
                0x000000000709b510                jrb_dl_Cube_003_mesh_layer_1_tri_0
                0x000000000709b6a8                jrb_dl_Cube_003_mesh_layer_1_vtx_0
                0x000000000709c008                jrb_dl_Cube_003_mesh_layer_1_vtx_cull
                0x000000000709c088                jrb_dl_Cube_002_mesh_layer_1_tri_0
                0x000000000709c1a0                jrb_dl_Cube_002_mesh_layer_1_vtx_0
                0x000000000709c920                jrb_dl_Cube_002_mesh_layer_1_vtx_cull
                0x000000000709c9a0                jrb_dl_Cube_001_mesh_layer_5_tri_0
                0x000000000709c9e0                jrb_dl_Cube_001_mesh_layer_5_vtx_0
                0x000000000709cb60                jrb_dl_Cube_001_mesh_layer_5_vtx_cull
                0x000000000709cbe0                jrb_dl_Cube_mesh_layer_1_tri_4
                0x000000000709cc30                jrb_dl_Cube_mesh_layer_1_vtx_4
                0x000000000709cd90                jrb_dl_Cube_mesh_layer_1_tri_3
                0x000000000709cdd8                jrb_dl_Cube_mesh_layer_1_vtx_3
                0x000000000709cf58                jrb_dl_Cube_mesh_layer_1_tri_2
                0x000000000709cf78                jrb_dl_Cube_mesh_layer_1_vtx_2
                0x000000000709cfc8                jrb_dl_Cube_mesh_layer_1_tri_1
                0x000000000709d0e8                jrb_dl_Cube_mesh_layer_1_vtx_1
                0x000000000709d818                jrb_dl_Cube_mesh_layer_1_tri_0
                0x000000000709d960                jrb_dl_Cube_mesh_layer_1_vtx_0
                0x000000000709dff0                jrb_dl_Cube_mesh_layer_1_vtx_cull
                0x000000000709e070                jrb_dl_bridge_mesh_layer_1_tri_0
                0x000000000709e1a8                jrb_dl_bridge_mesh_layer_1_vtx_0
                0x000000000709e718                jrb_dl_bridge_mesh_layer_1_vtx_cull
                0x000000000709e798                jrb_dl_Alpha_002_mesh_layer_6_tri_0
                0x000000000709e7e0                jrb_dl_Alpha_002_mesh_layer_6_vtx_0
                0x000000000709e970                jrb_dl_Alpha_002_mesh_layer_6_vtx_cull
                0x000000000709e9f0                jrb_dl_Alpha_001_mesh_layer_6_tri_0
                0x000000000709eba8                jrb_dl_Alpha_001_mesh_layer_6_vtx_0
                0x000000000709f658                jrb_dl_Alpha_001_mesh_layer_6_vtx_cull
                0x000000000709f6d8                jrb_dl_Alpha_mesh_layer_1_tri_2
                0x000000000709f750                jrb_dl_Alpha_mesh_layer_1_vtx_2
                0x000000000709fa50                jrb_dl_Alpha_mesh_layer_1_tri_1
                0x000000000709fb38                jrb_dl_Alpha_mesh_layer_1_vtx_1
                0x00000000070a00f8                jrb_dl_Alpha_mesh_layer_1_tri_0
                0x00000000070a0488                jrb_dl_Alpha_mesh_layer_1_vtx_0
                0x00000000070a1908                jrb_dl_Alpha_mesh_layer_1_vtx_cull
                0x00000000070a1988                jrb_dl_grate_pal_rgba16
                0x00000000070a1a70                jrb_dl_grate_pal_rgba16_aligner
                0x00000000070a1a78                jrb_dl_grate_ci8
                0x00000000070a1e78                jrb_dl_grate_ci8_aligner
                0x00000000070a1e80                jrb_dl_rgba16_anonmoose_GreenishSquare_pal_rgba16
                0x00000000070a1ea8                jrb_dl_rgba16_anonmoose_GreenishSquare_pal_rgba16_aligner
                0x00000000070a1eb0                jrb_dl_rgba16_anonmoose_GreenishSquare_ci8
                0x00000000070a22b0                jrb_dl_rgba16_anonmoose_GreenishSquare_ci8_aligner
                0x00000000070a22b8                jrb_dl_flower_pal_rgba16_copy
                0x00000000070a2318                jrb_dl_flower_pal_rgba16_copy_aligner
                0x00000000070a2320                jrb_dl_flower_ci8_copy
                0x00000000070a2720                jrb_dl_flower_ci8_copy_aligner
                0x00000000070a2728                jrb_dl__7_pal_rgba16
                0x00000000070a27e8                jrb_dl__7_pal_rgba16_aligner
                0x00000000070a27f0                jrb_dl__7_ci8
                0x00000000070a2bf0                jrb_dl__7_ci8_aligner
                0x00000000070a2bf8                jrb_dl_flower_pal_rgba16
                0x00000000070a2c58                jrb_dl_flower_pal_rgba16_aligner
                0x00000000070a2c60                jrb_dl_flower_ci8
                0x00000000070a3060                jrb_dl_flower_ci8_aligner
                0x00000000070a3068                jrb_dl_i4_sophie_static_i8
                0x00000000070a4068                jrb_dl_i4_sophie_static_i8_aligner
                0x00000000070a4070                jrb_dl_ci4_sophie_hay_pal_rgba16
                0x00000000070a4090                jrb_dl_ci4_sophie_hay_pal_rgba16_aligner
                0x00000000070a4098                jrb_dl_ci4_sophie_hay_ci4
                0x00000000070a4898                jrb_dl_ci4_sophie_hay_ci4_aligner
                0x00000000070a48a0                jrb_dl_rgba16_anonmoose_swirl1_pal_rgba16
                0x00000000070a48f0                jrb_dl_rgba16_anonmoose_swirl1_pal_rgba16_aligner
                0x00000000070a48f8                jrb_dl_rgba16_anonmoose_swirl1_ci8
                0x00000000070a4cf8                jrb_dl_rgba16_anonmoose_swirl1_ci8_aligner
                0x00000000070a4d00                jrb_dl_ci4_sophie_tablecloth_pal_rgba16
                0x00000000070a4d20                jrb_dl_ci4_sophie_tablecloth_pal_rgba16_aligner
                0x00000000070a4d28                jrb_dl_ci4_sophie_tablecloth_ci4
                0x00000000070a5528                jrb_dl_ci4_sophie_tablecloth_ci4_aligner
                0x00000000070a5530                jrb_dl_rings_pal_rgba16
                0x00000000070a5610                jrb_dl_rings_pal_rgba16_aligner
                0x00000000070a5618                jrb_dl_rings_ci8
                0x00000000070a5a18                jrb_dl_rings_ci8_aligner
                0x00000000070a5a20                jrb_dl_yucky_pal_rgba16
                0x00000000070a5a80                jrb_dl_yucky_pal_rgba16_aligner
                0x00000000070a5a88                jrb_dl_yucky_ci8
                0x00000000070a5e88                jrb_dl_yucky_ci8_aligner
                0x00000000070a5e90                jrb_dl_KKIIDDZZ_DAT_964__p00_pal_rgba16_copy
                0x00000000070a5f70                jrb_dl_KKIIDDZZ_DAT_964__p00_pal_rgba16_copy_aligner
                0x00000000070a5f78                jrb_dl_KKIIDDZZ_DAT_964__p00_ci8_copy
                0x00000000070a6378                jrb_dl_KKIIDDZZ_DAT_964__p00_ci8_copy_aligner
                0x00000000070a6380                jrb_dl_GM4E01_3b9bd952_14_pal_rgba16
                0x00000000070a63a8                jrb_dl_GM4E01_3b9bd952_14_pal_rgba16_aligner
                0x00000000070a63b0                jrb_dl_GM4E01_3b9bd952_14_ci8
                0x00000000070a67b0                jrb_dl_GM4E01_3b9bd952_14_ci8_aligner
                0x00000000070a67b8                jrb_dl_light_pal_rgba16
                0x00000000070a67c0                jrb_dl_light_pal_rgba16_aligner
                0x00000000070a67c8                jrb_dl_light_ci4
                0x00000000070a69c8                jrb_dl_light_ci4_aligner
                0x00000000070a69d0                jrb_dl_KKIIDDZZ_DAT_1060__p00_pal_rgba16
                0x00000000070a6a70                jrb_dl_KKIIDDZZ_DAT_1060__p00_pal_rgba16_aligner
                0x00000000070a6a78                jrb_dl_KKIIDDZZ_DAT_1060__p00_ci8
                0x00000000070a6e78                jrb_dl_KKIIDDZZ_DAT_1060__p00_ci8_aligner
                0x00000000070a6e80                jrb_dl_ci4_sophie_wall_pal_rgba16
                0x00000000070a6ea0                jrb_dl_ci4_sophie_wall_pal_rgba16_aligner
                0x00000000070a6ea8                jrb_dl_ci4_sophie_wall_ci4
                0x00000000070a76a8                jrb_dl_ci4_sophie_wall_ci4_aligner
                0x00000000070a76b0                jrb_dl_ci4_sophie_metal2_pal_rgba16
                0x00000000070a76d0                jrb_dl_ci4_sophie_metal2_pal_rgba16_aligner
                0x00000000070a76d8                jrb_dl_ci4_sophie_metal2_ci4
                0x00000000070a7ed8                jrb_dl_ci4_sophie_metal2_ci4_aligner
                0x00000000070a7ee0                jrb_dl_rgba16_anonmoose_envmap_gold1_pal_rgba16
                0x00000000070a8050                jrb_dl_rgba16_anonmoose_envmap_gold1_pal_rgba16_aligner
                0x00000000070a8058                jrb_dl_rgba16_anonmoose_envmap_gold1_ci8
                0x00000000070a8458                jrb_dl_rgba16_anonmoose_envmap_gold1_ci8_aligner
                0x00000000070a8460                jrb_dl_ci4_anonmoose_whiteblock_pal_rgba16
                0x00000000070a8480                jrb_dl_ci4_anonmoose_whiteblock_pal_rgba16_aligner
                0x00000000070a8488                jrb_dl_ci4_anonmoose_whiteblock_ci4
                0x00000000070a8c88                jrb_dl_ci4_anonmoose_whiteblock_ci4_aligner
                0x00000000070a8c90                jrb_dl_tempImgEd032C_pal_rgba16
                0x00000000070a8e10                jrb_dl_tempImgEd032C_pal_rgba16_aligner
                0x00000000070a8e18                jrb_dl_tempImgEd032C_ci8
                0x00000000070a9218                jrb_dl_tempImgEd032C_ci8_aligner
                0x00000000070a9220                jrb_dl_KKIIDDZZ_DAT_972__p00_pal_rgba16
                0x00000000070a9350                jrb_dl_KKIIDDZZ_DAT_972__p00_pal_rgba16_aligner
                0x00000000070a9358                jrb_dl_KKIIDDZZ_DAT_972__p00_ci8
                0x00000000070a9758                jrb_dl_KKIIDDZZ_DAT_972__p00_ci8_aligner
                0x00000000070a9760                jrb_dl_invisible_ia8
                0x00000000070a9b60                jrb_dl_invisible_ia8_aligner
                0x00000000070a9b68                jrb_dl_KKIIDDZZ_DAT_1061__p00_pal_rgba16
                0x00000000070a9c30                jrb_dl_KKIIDDZZ_DAT_1061__p00_pal_rgba16_aligner
                0x00000000070a9c38                jrb_dl_KKIIDDZZ_DAT_1061__p00_ci8
                0x00000000070aa038                jrb_dl_KKIIDDZZ_DAT_1061__p00_ci8_aligner
                0x00000000070aa040                jrb_dl_KKIIDDZZ_DAT_971__p00_pal_rgba16
                0x00000000070aa168                jrb_dl_KKIIDDZZ_DAT_971__p00_pal_rgba16_aligner
                0x00000000070aa170                jrb_dl_KKIIDDZZ_DAT_971__p00_ci8
                0x00000000070aa570                jrb_dl_KKIIDDZZ_DAT_971__p00_ci8_aligner
                0x00000000070aa578                jrb_dl_KKIIDDZZ_DAT_1059__p00_pal_rgba16
                0x00000000070aa600                jrb_dl_KKIIDDZZ_DAT_1059__p00_pal_rgba16_aligner
                0x00000000070aa608                jrb_dl_KKIIDDZZ_DAT_1059__p00_ci8
                0x00000000070aaa08                jrb_dl_KKIIDDZZ_DAT_1059__p00_ci8_aligner
                0x00000000070aaa10                jrb_dl_ci4_anonmoose_treebark1_pal_rgba16
                0x00000000070aaa30                jrb_dl_ci4_anonmoose_treebark1_pal_rgba16_aligner
                0x00000000070aaa38                jrb_dl_ci4_anonmoose_treebark1_ci4
                0x00000000070ab238                jrb_dl_ci4_anonmoose_treebark1_ci4_aligner
                0x00000000070ab240                jrb_dl__25_pal_rgba16
                0x00000000070ab2b0                jrb_dl__25_pal_rgba16_aligner
                0x00000000070ab2b8                jrb_dl__25_ci8
                0x00000000070ab6b8                jrb_dl__25_ci8_aligner
                0x00000000070ab6c0                jrb_dl_KKIIDDZZ_DAT_964__p00_pal_rgba16
                0x00000000070ab7a0                jrb_dl_KKIIDDZZ_DAT_964__p00_pal_rgba16_aligner
                0x00000000070ab7a8                jrb_dl_KKIIDDZZ_DAT_964__p00_ci8
                0x00000000070abba8                jrb_dl_KKIIDDZZ_DAT_964__p00_ci8_aligner
                0x00000000070abbb0                jrb_dl_ci4_zeina_water_1_pal_rgba16
                0x00000000070abbd0                jrb_dl_ci4_zeina_water_1_pal_rgba16_aligner
                0x00000000070abbd8                jrb_dl_ci4_zeina_water_1_ci4
                0x00000000070ac3d8                jrb_dl_ci4_zeina_water_1_ci4_aligner
                0x00000000070ac3e0                jrb_dl_ci4_sophie_rooftile_pal_rgba16
                0x00000000070ac400                jrb_dl_ci4_sophie_rooftile_pal_rgba16_aligner
                0x00000000070ac408                jrb_dl_ci4_sophie_rooftile_ci4
                0x00000000070acc08                jrb_dl_ci4_sophie_rooftile_ci4_aligner
                0x00000000070acc10                jrb_dl_ci4_sophie_broom_pal_rgba16
                0x00000000070acc30                jrb_dl_ci4_sophie_broom_pal_rgba16_aligner
                0x00000000070acc38                jrb_dl_ci4_sophie_broom_ci4
                0x00000000070ad438                jrb_dl_ci4_sophie_broom_ci4_aligner
                0x00000000070ad440                jrb_dl_ci4_sophie_wood2_pal_rgba16
                0x00000000070ad460                jrb_dl_ci4_sophie_wood2_pal_rgba16_aligner
                0x00000000070ad468                jrb_dl_ci4_sophie_wood2_ci4
                0x00000000070adc68                jrb_dl_ci4_sophie_wood2_ci4_aligner
                0x00000000070adc70                jrb_dl_ci4_sophie_interiorwall_pal_rgba16
                0x00000000070adc88                jrb_dl_ci4_sophie_interiorwall_pal_rgba16_aligner
                0x00000000070adc90                jrb_dl_ci4_sophie_interiorwall_ci4
                0x00000000070ae490                jrb_dl_ci4_sophie_interiorwall_ci4_aligner
                0x00000000070ae498                jrb_dl_KKIIDDZZ_DAT_1818__p00_pal_rgba16
                0x00000000070ae570                jrb_dl_KKIIDDZZ_DAT_1818__p00_pal_rgba16_aligner
                0x00000000070ae578                jrb_dl_KKIIDDZZ_DAT_1818__p00_ci8
                0x00000000070ae978                jrb_dl_KKIIDDZZ_DAT_1818__p00_ci8_aligner
                0x00000000070ae980                jrb_dl_ci4_anonmoose_Dirt1_pal_rgba16
                0x00000000070ae9b8                jrb_dl_ci4_anonmoose_Dirt1_pal_rgba16_aligner
                0x00000000070ae9c0                jrb_dl_ci4_anonmoose_Dirt1_ci8
                0x00000000070aedc0                jrb_dl_ci4_anonmoose_Dirt1_ci8_aligner
                0x00000000070aedc8                jrb_dl_YOSHIS_ISLAND_6467B7C8B140_all_ia8
                0x00000000070afdc8                jrb_dl_YOSHIS_ISLAND_6467B7C8B140_all_ia8_aligner
                0x00000000070afdd0                jrb_dl_KKIIDDZZ_DAT_2237__p00_pal_rgba16
                0x00000000070afdf0                jrb_dl_KKIIDDZZ_DAT_2237__p00_pal_rgba16_aligner
                0x00000000070afdf8                jrb_dl_KKIIDDZZ_DAT_2237__p00_ci4
                0x00000000070b05f8                jrb_dl_KKIIDDZZ_DAT_2237__p00_ci4_aligner
                0x00000000070b0600                jrb_dl_KKIIDDZZ_DAT_2238__p00_pal_rgba16
                0x00000000070b0620                jrb_dl_KKIIDDZZ_DAT_2238__p00_pal_rgba16_aligner
                0x00000000070b0628                jrb_dl_KKIIDDZZ_DAT_2238__p00_ci4
                0x00000000070b0e28                jrb_dl_KKIIDDZZ_DAT_2238__p00_ci4_aligner
                0x00000000070b0e30                jrb_dl_KKIIDDZZ_DAT_684__p00_pal_rgba16
                0x00000000070b0e48                jrb_dl_KKIIDDZZ_DAT_684__p00_pal_rgba16_aligner
                0x00000000070b0e50                jrb_dl_KKIIDDZZ_DAT_684__p00_ci4
                0x00000000070b1650                jrb_dl_KKIIDDZZ_DAT_684__p00_ci4_aligner
                0x00000000070b1658                jrb_area_1_macro_objs
                0x00000000070b165c                jrb_area_1_collision
                0x00000000070e0554                jrb_movtex_sunken_ship_water
                0x00000000070e0584                jrb_seg7_area_2_macro_objs
                0x00000000070e0590                jrb_seg7_area_2_collision
                0x00000000070e1640                jrb_seg7_dl_07010548
                0x00000000070e1c90                jrb_seg7_dl_0700FE48
                0x00000000070e2a70                jrb_seg7_dl_0700EF00
                0x00000000070e4438                jrb_movtex_initial_mist
                0x00000000070e4468                jrb_movtex_water
                0x00000000070e44c0                jrb_seg7_trajectory_unagi_2
                0x00000000070e450c                jrb_seg7_trajectory_unagi_1
                0x00000000070e4540                jrb_seg7_collision_0700D1DC
                0x00000000070e4574                jrb_seg7_collision_pillar_base
                0x00000000070e45c0                jrb_seg7_collision_in_sunken_ship_2
                0x00000000070e4844                jrb_seg7_collision_0700CEF0
                0x00000000070e48ec                jrb_seg7_collision_in_sunken_ship
                0x00000000070e4998                jrb_seg7_collision_in_sunken_ship_3
                0x00000000070e4fe0                jrb_seg7_collision_floating_box
                0x00000000070e507c                jrb_seg7_collision_floating_platform
                0x00000000070e5118                jrb_seg7_collision_rock_solid
                0x00000000070e520c                jrb_seg7_area_1_macro_objs
                0x00000000070e547c                jrb_seg7_area_1_collision
                0x00000000070e6d40                jrb_seg7_dl_0700AFB0
                0x00000000070e6e90                jrb_seg7_dl_0700AE48
                0x00000000070e7020                jrb_seg7_dl_0700AC68
                0x00000000070e75e0                jrb_seg7_dl_0700A608
                0x00000000070e7f98                jrb_seg7_dl_07009B30
                0x00000000070e8078                jrb_seg7_dl_07009A58
                0x00000000070e8928                jrb_seg7_dl_070090B0
                0x00000000070e8a08                jrb_seg7_dl_07008FD8
                0x00000000070e9770                jrb_seg7_dl_070080F8
                0x00000000070e9a40                jrb_seg7_dl_07007DC8
                0x00000000070e9d38                jrb_seg7_dl_07007AC8
                0x00000000070ea060                jrb_seg7_dl_07007718
                0x00000000070ea218                jrb_seg7_dl_07007570
                0x00000000070eaca8                jrb_seg7_dl_070069B0
                0x00000000070ebc00                jrb_seg7_dl_070058C8
                0x00000000070ec6e8                jrb_seg7_dl_07004C78
                0x00000000070ec9c0                jrb_seg7_dl_07004940
                0x00000000070ee060                jrb_seg7_dl_07002FD0

.data1
 *(.data1)

.got.plt
 *(.got.plt)
                0x00000000070f1038                . = .
                0x00000000070f1038                . = .
                0x00000000070f9030                _gp = (ALIGN (0x10) + 0x7ff0)

.got
 *(.got)

.sdata
 *(.sdata .sdata.* .gnu.linkonce.s.*)

.lit8
 *(.lit8)

.lit4
 *(.lit4)
                0x00000000070f1038                _edata = .
                [!provide]                        PROVIDE (edata = .)
                0x00000000070f1038                . = .
                0x00000000070f1038                __bss_start = .
                0x00000000070f1038                _fbss = .

.sbss
 *(.dynsbss)
 *(.sbss .sbss.* .gnu.linkonce.sb.*)
 *(.scommon)

.bss            0x00000000070f1038        0x0 load address 0x00000000070f1050
 *(.dynbss)
 *(.bss .bss.* .gnu.linkonce.b.*)
 .bss           0x00000000070f1038        0x0 build/us_n64/levels/jrb/leveldata.o
 *(COMMON)
                0x00000000070f1038                . = ALIGN ((. != 0x0)?0x4:0x1)
                0x00000000070f1038                . = ALIGN (0x4)
                0x00000000070f1038                . = SEGMENT_START ("ldata-segment", .)
                0x00000000070f1038                . = ALIGN (0x4)
                0x00000000070f1038                _end = .
                [!provide]                        PROVIDE (end = .)
                0x00000000070f1038                . = DATA_SEGMENT_END (.)

.stab
 *(.stab)

.stabstr
 *(.stabstr)

.stab.excl
 *(.stab.excl)

.stab.exclstr
 *(.stab.exclstr)

.stab.index
 *(.stab.index)

.stab.indexstr
 *(.stab.indexstr)

.comment        0x0000000000000000       0x12
 *(.comment)
 .comment       0x0000000000000000       0x12 build/us_n64/levels/jrb/leveldata.o
                                         0x13 (size before relaxing)

.pdr            0x0000000000000000        0x0
 .pdr           0x0000000000000000        0x0 build/us_n64/levels/jrb/leveldata.o

.debug
 *(.debug)

.line
 *(.line)

.debug_srcinfo
 *(.debug_srcinfo)

.debug_sfnames
 *(.debug_sfnames)

.debug_aranges
 *(.debug_aranges)

.debug_pubnames
 *(.debug_pubnames)

.debug_info
 *(.debug_info .gnu.linkonce.wi.*)

.debug_abbrev
 *(.debug_abbrev)

.debug_line
 *(.debug_line .debug_line.* .debug_line_end)

.debug_frame
 *(.debug_frame)

.debug_str
 *(.debug_str)

.debug_loc
 *(.debug_loc)

.debug_macinfo
 *(.debug_macinfo)

.debug_weaknames
 *(.debug_weaknames)

.debug_funcnames
 *(.debug_funcnames)

.debug_typenames
 *(.debug_typenames)

.debug_varnames
 *(.debug_varnames)

.debug_pubtypes
 *(.debug_pubtypes)

.debug_ranges
 *(.debug_ranges)

.debug_macro
 *(.debug_macro)

.debug_addr
 *(.debug_addr)

.gnu.attributes
                0x0000000000000000       0x10
 *(.gnu.attributes)
 .gnu.attributes
                0x0000000000000000       0x10 build/us_n64/levels/jrb/leveldata.o

.gptab.sdata
 *(.gptab.data)
 *(.gptab.sdata)

.gptab.sbss
 *(.gptab.bss)
 *(.gptab.sbss)

.mdebug.abi32   0x0000000000000000        0x0
 *(.mdebug.abi32)
 .mdebug.abi32  0x0000000000000000        0x0 build/us_n64/levels/jrb/leveldata.o

.mdebug.abiN32
 *(.mdebug.abiN32)

.mdebug.abi64
 *(.mdebug.abi64)

.mdebug.abiO64
 *(.mdebug.abiO64)

.mdebug.eabi32
 *(.mdebug.eabi32)

.mdebug.eabi64
 *(.mdebug.eabi64)

.gcc_compiled_long32
 *(.gcc_compiled_long32)

.gcc_compiled_long64
 *(.gcc_compiled_long64)

/DISCARD/
 *(.note.GNU-stack)
 *(.gnu_debuglink)
 *(.gnu.lto_*)
OUTPUT(build/us_n64/levels/jrb/leveldata.elf elf32-bigmips)
