
Memory Configuration

Name             Origin             Length             Attributes
*default*        0x0000000000000000 0xffffffffffffffff

Linker script and memory map

Address of section .text set to 0x7000000
LOAD build/us_n64/bin/water.elf
LOAD build/us_n64/levels/jrb/leveldata.o
                [!provide]                        PROVIDE (__executable_start = SEGMENT_START ("text-segment", 0x400000))
                0x0000000000400000                . = SEGMENT_START ("text-segment", 0x400000)

.interp
 *(.interp)

.MIPS.abiflags  0x0000000000400000       0x18
 *(.MIPS.abiflags)
 .MIPS.abiflags
                0x0000000000400000       0x18 build/us_n64/levels/jrb/leveldata.o

.reginfo        0x0000000000400018       0x18
 *(.reginfo)
 .reginfo       0x0000000000400018       0x18 build/us_n64/levels/jrb/leveldata.o

.note.gnu.build-id
 *(.note.gnu.build-id)

.dynamic
 *(.dynamic)

.hash
 *(.hash)

.gnu.hash
 *(.gnu.hash)

.dynsym
 *(.dynsym)

.dynstr
 *(.dynstr)

.gnu.version
 *(.gnu.version)

.gnu.version_d
 *(.gnu.version_d)

.gnu.version_r
 *(.gnu.version_r)

.rel.dyn        0x0000000000400018        0x0 load address 0x0000000000400030
 *(.rel.init)
 *(.rel.text .rel.text.* .rel.gnu.linkonce.t.*)
 *(.rel.fini)
 *(.rel.rodata .rel.rodata.* .rel.gnu.linkonce.r.*)
 *(.rel.data.rel.ro .rel.data.rel.ro.* .rel.gnu.linkonce.d.rel.ro.*)
 *(.rel.data .rel.data.* .rel.gnu.linkonce.d.*)
 *(.rel.tdata .rel.tdata.* .rel.gnu.linkonce.td.*)
 *(.rel.tbss .rel.tbss.* .rel.gnu.linkonce.tb.*)
 *(.rel.ctors)
 *(.rel.dtors)
 *(.rel.got)
 *(.rel.dyn)
 .rel.dyn       0x0000000000400018        0x0 build/us_n64/levels/jrb/leveldata.o
 *(.rel.sdata .rel.sdata.* .rel.gnu.linkonce.s.*)
 *(.rel.sbss .rel.sbss.* .rel.gnu.linkonce.sb.*)
 *(.rel.sdata2 .rel.sdata2.* .rel.gnu.linkonce.s2.*)
 *(.rel.sbss2 .rel.sbss2.* .rel.gnu.linkonce.sb2.*)
 *(.rel.bss .rel.bss.* .rel.gnu.linkonce.b.*)
                [!provide]                        PROVIDE (__rel_iplt_start = .)
 *(.rel.iplt)
                [!provide]                        PROVIDE (__rel_iplt_end = .)

.rela.dyn       0x0000000000400018        0x0
 *(.rela.init)
 *(.rela.text .rela.text.* .rela.gnu.linkonce.t.*)
 *(.rela.fini)
 *(.rela.rodata .rela.rodata.* .rela.gnu.linkonce.r.*)
 *(.rela.data .rela.data.* .rela.gnu.linkonce.d.*)
 *(.rela.tdata .rela.tdata.* .rela.gnu.linkonce.td.*)
 *(.rela.tbss .rela.tbss.* .rela.gnu.linkonce.tb.*)
 *(.rela.ctors)
 *(.rela.dtors)
 *(.rela.got)
 *(.rela.sdata .rela.sdata.* .rela.gnu.linkonce.s.*)
 *(.rela.sbss .rela.sbss.* .rela.gnu.linkonce.sb.*)
 *(.rela.sdata2 .rela.sdata2.* .rela.gnu.linkonce.s2.*)
 *(.rela.sbss2 .rela.sbss2.* .rela.gnu.linkonce.sb2.*)
 *(.rela.bss .rela.bss.* .rela.gnu.linkonce.b.*)
                [!provide]                        PROVIDE (__rela_iplt_start = .)
 *(.rela.iplt)
                [!provide]                        PROVIDE (__rela_iplt_end = .)

.rel.plt
 *(.rel.plt)

.rela.plt
 *(.rela.plt)

.init
 *(SORT_NONE(.init))

.plt
 *(.plt)

.iplt
 *(.iplt)

.text           0x0000000007000000        0x0 load address 0x0000000007000018
                0x0000000007000000                _ftext = .
 *(.text.unlikely .text.*_unlikely .text.unlikely.*)
 *(.text.exit .text.exit.*)
 *(.text.startup .text.startup.*)
 *(.text.hot .text.hot.*)
 *(.text .stub .text.* .gnu.linkonce.t.*)
 .text          0x0000000007000000        0x0 build/us_n64/levels/jrb/leveldata.o
 *(.gnu.warning)
 *(.mips16.fn.*)
 *(.mips16.call.*)

.fini
 *(SORT_NONE(.fini))
                [!provide]                        PROVIDE (__etext = .)
                [!provide]                        PROVIDE (_etext = .)
                [!provide]                        PROVIDE (etext = .)

.rodata
 *(.rodata .rodata.* .gnu.linkonce.r.*)

.rodata1
 *(.rodata1)

.sdata2
 *(.sdata2 .sdata2.* .gnu.linkonce.s2.*)

.sbss2
 *(.sbss2 .sbss2.* .gnu.linkonce.sb2.*)

.eh_frame_hdr
 *(.eh_frame_hdr)
 *(.eh_frame_entry .eh_frame_entry.*)

.eh_frame
 *(.eh_frame)
 *(.eh_frame.*)

.gcc_except_table
 *(.gcc_except_table .gcc_except_table.*)

.gnu_extab
 *(.gnu_extab*)

.exception_ranges
 *(.exception_ranges .exception_ranges*)
                0x0000000007000000                . = DATA_SEGMENT_ALIGN (CONSTANT (MAXPAGESIZE), CONSTANT (COMMONPAGESIZE))

.eh_frame
 *(.eh_frame)
 *(.eh_frame.*)

.gnu_extab
 *(.gnu_extab)

.gcc_except_table
 *(.gcc_except_table .gcc_except_table.*)

.exception_ranges
 *(.exception_ranges .exception_ranges*)

.tdata
 *(.tdata .tdata.* .gnu.linkonce.td.*)

.tbss
 *(.tbss .tbss.* .gnu.linkonce.tb.*)
 *(.tcommon)

.preinit_array  0x0000000007000000        0x0
                [!provide]                        PROVIDE (__preinit_array_start = .)
 *(.preinit_array)
                [!provide]                        PROVIDE (__preinit_array_end = .)

.init_array     0x0000000007000000        0x0
                [!provide]                        PROVIDE (__init_array_start = .)
 *(SORT_BY_INIT_PRIORITY(.init_array.*) SORT_BY_INIT_PRIORITY(.ctors.*))
 *(.init_array EXCLUDE_FILE(*crtend?.o *crtend.o *crtbegin?.o *crtbegin.o) .ctors)
                [!provide]                        PROVIDE (__init_array_end = .)

.fini_array     0x0000000007000000        0x0
                [!provide]                        PROVIDE (__fini_array_start = .)
 *(SORT_BY_INIT_PRIORITY(.fini_array.*) SORT_BY_INIT_PRIORITY(.dtors.*))
 *(.fini_array EXCLUDE_FILE(*crtend?.o *crtend.o *crtbegin?.o *crtbegin.o) .dtors)
                [!provide]                        PROVIDE (__fini_array_end = .)

.ctors
 *crtbegin.o(.ctors)
 *crtbegin?.o(.ctors)
 *(EXCLUDE_FILE(*crtend?.o *crtend.o) .ctors)
 *(SORT_BY_NAME(.ctors.*))
 *(.ctors)

.dtors
 *crtbegin.o(.dtors)
 *crtbegin?.o(.dtors)
 *(EXCLUDE_FILE(*crtend?.o *crtend.o) .dtors)
 *(SORT_BY_NAME(.dtors.*))
 *(.dtors)

.jcr
 *(.jcr)

.data.rel.ro
 *(.data.rel.ro.local* .gnu.linkonce.d.rel.ro.local.*)
 *(.data.rel.ro .data.rel.ro.* .gnu.linkonce.d.rel.ro.*)
                0x0000000007000000                . = DATA_SEGMENT_RELRO_END (., 0x0)

.data           0x0000000007000000    0xdfe38 load address 0x0000000007000018
                0x0000000007000000                _fdata = .
 *(.data .data.* .gnu.linkonce.d.*)
 .data          0x0000000007000000    0xdfe38 build/us_n64/levels/jrb/leveldata.o
                0x0000000007000000                jrb_dl_final_revert_mesh_layer_5
                0x0000000007000040                jrb_dl_final_revert_mesh_layer_4
                0x0000000007000080                jrb_dl_final_revert_mesh_layer_1
                0x00000000070000c0                jrb_dl_wind_platform_002_mesh_layer_4
                0x0000000007000100                jrb_dl_wind_platform_001_mesh_layer_4
                0x0000000007000140                jrb_dl_wind_platform_mesh_layer_4
                0x0000000007000180                jrb_dl_tree_mesh_layer_1
                0x00000000070001d8                jrb_dl_small_fan_001_mesh_layer_1
                0x0000000007000230                jrb_dl_SM_Fountain_02_mesh_layer_1
                0x00000000070002a0                jrb_dl_render_004_mesh_layer_1
                0x00000000070002e0                jrb_dl_render_003_mesh_layer_1
                0x0000000007000320                jrb_dl_render_002_mesh_layer_1
                0x0000000007000360                jrb_dl_render_001_mesh_layer_1
                0x00000000070003a0                jrb_dl_pillar_024_mesh_layer_4
                0x00000000070003e0                jrb_dl_pillar_023_mesh_layer_4
                0x0000000007000420                jrb_dl_pillar_022_mesh_layer_4
                0x0000000007000460                jrb_dl_pillar_021_mesh_layer_4
                0x00000000070004a0                jrb_dl_pillar_020_mesh_layer_4
                0x00000000070004e0                jrb_dl_pillar_019_mesh_layer_1
                0x0000000007000520                jrb_dl_pillar_018_mesh_layer_1
                0x0000000007000560                jrb_dl_pillar_017_mesh_layer_4
                0x00000000070005a0                jrb_dl_pillar_016_mesh_layer_4
                0x00000000070005e0                jrb_dl_pillar_015_mesh_layer_4
                0x0000000007000620                jrb_dl_pillar_014_mesh_layer_4
                0x0000000007000660                jrb_dl_pillar_013_mesh_layer_4
                0x00000000070006a0                jrb_dl_pillar_012_mesh_layer_4
                0x00000000070006e0                jrb_dl_pillar_011_mesh_layer_4
                0x0000000007000720                jrb_dl_pillar_010_mesh_layer_4
                0x0000000007000760                jrb_dl_pillar_009_mesh_layer_4
                0x00000000070007a0                jrb_dl_pillar_008_mesh_layer_4
                0x00000000070007e0                jrb_dl_pillar_007_mesh_layer_4
                0x0000000007000820                jrb_dl_pillar_006_mesh_layer_4
                0x0000000007000860                jrb_dl_pillar_005_mesh_layer_4
                0x00000000070008a0                jrb_dl_pillar_004_mesh_layer_4
                0x00000000070008e0                jrb_dl_pillar_003_mesh_layer_4
                0x0000000007000920                jrb_dl_pillar_002_mesh_layer_4
                0x0000000007000960                jrb_dl_pillar_001_mesh_layer_1
                0x00000000070009a0                jrb_dl_picnic_mesh_layer_1
                0x00000000070009e0                jrb_dl_owl_crest_mesh_layer_4
                0x0000000007000a20                jrb_dl_owl_crest_mesh_layer_1
                0x0000000007000a78                jrb_dl_Icosphere_015_mesh_layer_1
                0x0000000007000ab8                jrb_dl_Icosphere_014_mesh_layer_1
                0x0000000007000af8                jrb_dl_Icosphere_013_mesh_layer_1
                0x0000000007000b80                jrb_dl_Icosphere_003_mesh_layer_1
                0x0000000007000bc0                jrb_dl_Icosphere_002_mesh_layer_1
                0x0000000007000c00                jrb_dl_Icosphere_001_mesh_layer_1
                0x0000000007000c40                jrb_dl_Houses_SecondAge_3_Level1_mesh_layer_1
                0x0000000007000ce0                jrb_dl_Houses_SecondAge_1_Level1_003_mesh_layer_1
                0x0000000007000d80                jrb_dl_Houses_SecondAge_1_Level1_002_mesh_layer_1
                0x0000000007000e20                jrb_dl_Houses_SecondAge_1_Level1_001_mesh_layer_1
                0x0000000007000ec0                jrb_dl_flowers_mesh_layer_5
                0x0000000007000f00                jrb_dl_flowers_mesh_layer_4
                0x0000000007000f40                jrb_dl_Cylinder_005_mesh_layer_1
                0x0000000007000f98                jrb_dl_Cylinder_004_mesh_layer_1
                0x0000000007000ff0                jrb_dl_Cylinder_003_mesh_layer_1
                0x0000000007001048                jrb_dl_Cylinder_002_mesh_layer_1
                0x00000000070010a0                jrb_dl_Cylinder_001_mesh_layer_1
                0x00000000070010f8                jrb_dl_Cylinder_mesh_layer_1
                0x0000000007001150                jrb_dl_Cube_066_mesh_layer_1
                0x0000000007001190                jrb_dl_Cube_065_mesh_layer_1
                0x00000000070011d0                jrb_dl_Cube_064_mesh_layer_1
                0x0000000007001210                jrb_dl_Cube_063_mesh_layer_1
                0x0000000007001250                jrb_dl_Cube_060_mesh_layer_1
                0x0000000007001290                jrb_dl_Cube_058_mesh_layer_1
                0x00000000070012d0                jrb_dl_Cube_057_mesh_layer_1
                0x0000000007001310                jrb_dl_Cube_056_mesh_layer_1
                0x0000000007001350                jrb_dl_Cube_055_mesh_layer_1
                0x0000000007001390                jrb_dl_Cube_054_mesh_layer_1
                0x00000000070013d0                jrb_dl_Cube_053_mesh_layer_1
                0x0000000007001410                jrb_dl_Cube_052_mesh_layer_1
                0x0000000007001450                jrb_dl_Cube_051_mesh_layer_1
                0x0000000007001490                jrb_dl_Cube_050_mesh_layer_1
                0x00000000070014d0                jrb_dl_Cube_049_mesh_layer_1
                0x0000000007001510                jrb_dl_Cube_048_mesh_layer_1
                0x0000000007001550                jrb_dl_Cube_047_mesh_layer_1
                0x0000000007001590                jrb_dl_Cube_046_mesh_layer_1
                0x00000000070015d0                jrb_dl_Cube_045_mesh_layer_1
                0x0000000007001610                jrb_dl_Cube_044_mesh_layer_1
                0x0000000007001650                jrb_dl_Cube_043_mesh_layer_1
                0x0000000007001690                jrb_dl_Cube_042_mesh_layer_1
                0x00000000070016d0                jrb_dl_Cube_041_mesh_layer_1
                0x0000000007001710                jrb_dl_Cube_040_mesh_layer_1
                0x0000000007001750                jrb_dl_Cube_039_mesh_layer_5
                0x0000000007001790                jrb_dl_Cube_037_mesh_layer_1
                0x00000000070017d0                jrb_dl_Cube_036_mesh_layer_1
                0x0000000007001810                jrb_dl_Cube_035_mesh_layer_1
                0x0000000007001880                jrb_dl_Cube_034_mesh_layer_1
                0x00000000070018c0                jrb_dl_Cube_032_mesh_layer_1
                0x0000000007001900                jrb_dl_Cube_031_mesh_layer_1
                0x0000000007001940                jrb_dl_Cube_030_mesh_layer_1
                0x0000000007001980                jrb_dl_Cube_029_mesh_layer_4
                0x00000000070019c0                jrb_dl_Cube_017_mesh_layer_1
                0x0000000007001a00                jrb_dl_Cube_008_mesh_layer_1
                0x0000000007001a58                jrb_dl_Cube_007_mesh_layer_1
                0x0000000007001a98                jrb_dl_Cube_006_mesh_layer_1
                0x0000000007001ad8                jrb_dl_Cube_005_mesh_layer_1
                0x0000000007001b18                jrb_dl_Cube_004_mesh_layer_1
                0x0000000007001b58                jrb_dl_Cube_003_mesh_layer_1
                0x0000000007001b98                jrb_dl_Cube_002_mesh_layer_1
                0x0000000007001bd8                jrb_dl_Cube_001_mesh_layer_1
                0x0000000007001c48                jrb_dl_Cube_mesh_layer_1
                0x0000000007001ce8                jrb_dl_bell_mesh_layer_1
                0x0000000007001d28                jrb_dl_Beach_Chairs_and_Umbrella_mesh_layer_1
                0x0000000007001d80                mat_revert_jrb_dl_tree_rings
                0x0000000007001da0                mat_jrb_dl_tree_rings
                0x0000000007001e30                mat_revert_jrb_dl_bark
                0x0000000007001e50                mat_jrb_dl_bark
                0x0000000007001ee0                mat_revert_jrb_dl_metal_2
                0x0000000007001f00                mat_jrb_dl_metal_2
                0x0000000007001f90                mat_revert_jrb_dl_slab
                0x0000000007001fb0                mat_jrb_dl_slab
                0x0000000007002040                mat_revert_jrb_dl_grey_diamond
                0x0000000007002060                mat_jrb_dl_grey_diamond
                0x00000000070020f0                mat_revert_jrb_dl_picnic
                0x0000000007002110                mat_jrb_dl_picnic
                0x00000000070021a0                mat_revert_jrb_dl_white_bevel
                0x00000000070021c8                mat_jrb_dl_white_bevel
                0x0000000007002260                mat_revert_jrb_dl_metal_1
                0x0000000007002280                mat_jrb_dl_metal_1
                0x0000000007002310                mat_revert_jrb_dl_gold
                0x0000000007002330                mat_jrb_dl_gold
                0x00000000070023c0                mat_revert_jrb_dl_dirt2
                0x00000000070023e0                mat_jrb_dl_dirt2
                0x0000000007002470                mat_revert_jrb_dl_invisible
                0x0000000007002490                mat_jrb_dl_invisible
                0x0000000007002510                mat_revert_jrb_dl_flowers
                0x0000000007002538                mat_jrb_dl_flowers
                0x00000000070025d0                mat_revert_jrb_dl_light
                0x00000000070025f8                mat_jrb_dl_light
                0x0000000007002698                mat_revert_jrb_dl_swirl
                0x00000000070026b8                mat_jrb_dl_swirl
                0x0000000007002748                mat_revert_jrb_dl_grate
                0x0000000007002770                mat_jrb_dl_grate
                0x0000000007002808                mat_revert_jrb_dl_dirt
                0x0000000007002828                mat_jrb_dl_dirt
                0x00000000070028b8                mat_revert_jrb_dl_black
                0x00000000070028d0                mat_jrb_dl_black
                0x0000000007002918                mat_revert_jrb_dl_rock
                0x0000000007002938                mat_jrb_dl_rock
                0x00000000070029c8                mat_revert_jrb_dl_grey_checker
                0x00000000070029e8                mat_jrb_dl_grey_checker
                0x0000000007002a78                mat_revert_jrb_dl_stone_path
                0x0000000007002a98                mat_jrb_dl_stone_path
                0x0000000007002b28                mat_revert_jrb_dl_grass
                0x0000000007002b48                mat_jrb_dl_grass
                0x0000000007002bd8                mat_revert_jrb_dl_dirt_with_grass
                0x0000000007002bf8                mat_jrb_dl_dirt_with_grass
                0x0000000007002c88                mat_revert_jrb_dl_shingles
                0x0000000007002ca8                mat_jrb_dl_shingles
                0x0000000007002d38                mat_revert_jrb_dl_bricks
                0x0000000007002d58                mat_jrb_dl_bricks
                0x0000000007002de8                mat_revert_jrb_dl_wood
                0x0000000007002e08                mat_jrb_dl_wood
                0x0000000007002e98                mat_revert_jrb_dl_interior
                0x0000000007002eb8                mat_jrb_dl_interior
                0x0000000007002f48                mat_revert_jrb_dl_caution
                0x0000000007002f68                mat_jrb_dl_caution
                0x0000000007002ff8                mat_revert_jrb_dl_hay
                0x0000000007003018                mat_jrb_dl_hay
                0x00000000070030a8                mat_revert_jrb_dl_wood2
                0x00000000070030c8                mat_jrb_dl_wood2
                0x0000000007003158                jrb_dl_wind_platform_002_mesh_layer_4_tri_0
                0x0000000007003170                jrb_dl_wind_platform_002_mesh_layer_4_vtx_0
                0x00000000070031b0                jrb_dl_wind_platform_002_mesh_layer_4_vtx_cull
                0x0000000007003230                jrb_dl_wind_platform_001_mesh_layer_4_tri_0
                0x0000000007003248                jrb_dl_wind_platform_001_mesh_layer_4_vtx_0
                0x0000000007003288                jrb_dl_wind_platform_001_mesh_layer_4_vtx_cull
                0x0000000007003308                jrb_dl_wind_platform_mesh_layer_4_tri_0
                0x0000000007003320                jrb_dl_wind_platform_mesh_layer_4_vtx_0
                0x0000000007003360                jrb_dl_wind_platform_mesh_layer_4_vtx_cull
                0x00000000070033e0                jrb_dl_tree_mesh_layer_1_tri_1
                0x0000000007003448                jrb_dl_tree_mesh_layer_1_vtx_1
                0x00000000070036c8                jrb_dl_tree_mesh_layer_1_tri_0
                0x00000000070038a8                jrb_dl_tree_mesh_layer_1_vtx_0
                0x0000000007004528                jrb_dl_tree_mesh_layer_1_vtx_cull
                0x00000000070045a8                jrb_dl_small_fan_001_mesh_layer_1_tri_1
                0x00000000070045e8                jrb_dl_small_fan_001_mesh_layer_1_vtx_1
                0x0000000007004768                jrb_dl_small_fan_001_mesh_layer_1_tri_0
                0x00000000070047e0                jrb_dl_small_fan_001_mesh_layer_1_vtx_0
                0x0000000007004ae0                jrb_dl_small_fan_001_mesh_layer_1_vtx_cull
                0x0000000007004b60                jrb_dl_SM_Fountain_02_mesh_layer_1_tri_2
                0x0000000007004e78                jrb_dl_SM_Fountain_02_mesh_layer_1_vtx_2
                0x00000000070063e8                jrb_dl_SM_Fountain_02_mesh_layer_1_tri_1
                0x0000000007006520                jrb_dl_SM_Fountain_02_mesh_layer_1_vtx_1
                0x0000000007006f20                jrb_dl_SM_Fountain_02_mesh_layer_1_tri_0
                0x00000000070080a8                jrb_dl_SM_Fountain_02_mesh_layer_1_vtx_0
                0x000000000700fbd8                jrb_dl_SM_Fountain_02_mesh_layer_1_vtx_cull
                0x000000000700fc58                jrb_dl_render_004_mesh_layer_1_tri_0
                0x0000000007011548                jrb_dl_render_004_mesh_layer_1_vtx_0
                0x0000000007020d48                jrb_dl_render_004_mesh_layer_1_vtx_cull
                0x0000000007020dc8                jrb_dl_render_003_mesh_layer_1_tri_0
                0x00000000070226b8                jrb_dl_render_003_mesh_layer_1_vtx_0
                0x0000000007031eb8                jrb_dl_render_003_mesh_layer_1_vtx_cull
                0x0000000007031f38                jrb_dl_render_002_mesh_layer_1_tri_0
                0x0000000007033828                jrb_dl_render_002_mesh_layer_1_vtx_0
                0x0000000007043028                jrb_dl_render_002_mesh_layer_1_vtx_cull
                0x00000000070430a8                jrb_dl_render_001_mesh_layer_1_tri_0
                0x0000000007044998                jrb_dl_render_001_mesh_layer_1_vtx_0
                0x0000000007054198                jrb_dl_render_001_mesh_layer_1_vtx_cull
                0x0000000007054218                jrb_dl_pillar_024_mesh_layer_4_tri_0
                0x0000000007054258                jrb_dl_pillar_024_mesh_layer_4_vtx_0
                0x00000000070543d8                jrb_dl_pillar_024_mesh_layer_4_vtx_cull
                0x0000000007054458                jrb_dl_pillar_023_mesh_layer_4_tri_0
                0x0000000007054498                jrb_dl_pillar_023_mesh_layer_4_vtx_0
                0x0000000007054618                jrb_dl_pillar_023_mesh_layer_4_vtx_cull
                0x0000000007054698                jrb_dl_pillar_022_mesh_layer_4_tri_0
                0x00000000070546d8                jrb_dl_pillar_022_mesh_layer_4_vtx_0
                0x0000000007054858                jrb_dl_pillar_022_mesh_layer_4_vtx_cull
                0x00000000070548d8                jrb_dl_pillar_021_mesh_layer_4_tri_0
                0x0000000007054918                jrb_dl_pillar_021_mesh_layer_4_vtx_0
                0x0000000007054a98                jrb_dl_pillar_021_mesh_layer_4_vtx_cull
                0x0000000007054b18                jrb_dl_pillar_020_mesh_layer_4_tri_0
                0x0000000007054b58                jrb_dl_pillar_020_mesh_layer_4_vtx_0
                0x0000000007054cd8                jrb_dl_pillar_020_mesh_layer_4_vtx_cull
                0x0000000007054d58                jrb_dl_pillar_019_mesh_layer_1_tri_0
                0x0000000007054d98                jrb_dl_pillar_019_mesh_layer_1_vtx_0
                0x0000000007054f18                jrb_dl_pillar_019_mesh_layer_1_vtx_cull
                0x0000000007054f98                jrb_dl_pillar_018_mesh_layer_1_tri_0
                0x0000000007054fd8                jrb_dl_pillar_018_mesh_layer_1_vtx_0
                0x0000000007055158                jrb_dl_pillar_018_mesh_layer_1_vtx_cull
                0x00000000070551d8                jrb_dl_pillar_017_mesh_layer_4_tri_0
                0x0000000007055218                jrb_dl_pillar_017_mesh_layer_4_vtx_0
                0x0000000007055398                jrb_dl_pillar_017_mesh_layer_4_vtx_cull
                0x0000000007055418                jrb_dl_pillar_016_mesh_layer_4_tri_0
                0x0000000007055458                jrb_dl_pillar_016_mesh_layer_4_vtx_0
                0x00000000070555d8                jrb_dl_pillar_016_mesh_layer_4_vtx_cull
                0x0000000007055658                jrb_dl_pillar_015_mesh_layer_4_tri_0
                0x0000000007055698                jrb_dl_pillar_015_mesh_layer_4_vtx_0
                0x0000000007055818                jrb_dl_pillar_015_mesh_layer_4_vtx_cull
                0x0000000007055898                jrb_dl_pillar_014_mesh_layer_4_tri_0
                0x00000000070558d8                jrb_dl_pillar_014_mesh_layer_4_vtx_0
                0x0000000007055a58                jrb_dl_pillar_014_mesh_layer_4_vtx_cull
                0x0000000007055ad8                jrb_dl_pillar_013_mesh_layer_4_tri_0
                0x0000000007055b18                jrb_dl_pillar_013_mesh_layer_4_vtx_0
                0x0000000007055c98                jrb_dl_pillar_013_mesh_layer_4_vtx_cull
                0x0000000007055d18                jrb_dl_pillar_012_mesh_layer_4_tri_0
                0x0000000007055d58                jrb_dl_pillar_012_mesh_layer_4_vtx_0
                0x0000000007055ed8                jrb_dl_pillar_012_mesh_layer_4_vtx_cull
                0x0000000007055f58                jrb_dl_pillar_011_mesh_layer_4_tri_0
                0x0000000007055f98                jrb_dl_pillar_011_mesh_layer_4_vtx_0
                0x0000000007056118                jrb_dl_pillar_011_mesh_layer_4_vtx_cull
                0x0000000007056198                jrb_dl_pillar_010_mesh_layer_4_tri_0
                0x00000000070561d8                jrb_dl_pillar_010_mesh_layer_4_vtx_0
                0x0000000007056358                jrb_dl_pillar_010_mesh_layer_4_vtx_cull
                0x00000000070563d8                jrb_dl_pillar_009_mesh_layer_4_tri_0
                0x0000000007056418                jrb_dl_pillar_009_mesh_layer_4_vtx_0
                0x0000000007056598                jrb_dl_pillar_009_mesh_layer_4_vtx_cull
                0x0000000007056618                jrb_dl_pillar_008_mesh_layer_4_tri_0
                0x0000000007056658                jrb_dl_pillar_008_mesh_layer_4_vtx_0
                0x00000000070567d8                jrb_dl_pillar_008_mesh_layer_4_vtx_cull
                0x0000000007056858                jrb_dl_pillar_007_mesh_layer_4_tri_0
                0x0000000007056898                jrb_dl_pillar_007_mesh_layer_4_vtx_0
                0x0000000007056a18                jrb_dl_pillar_007_mesh_layer_4_vtx_cull
                0x0000000007056a98                jrb_dl_pillar_006_mesh_layer_4_tri_0
                0x0000000007056ad8                jrb_dl_pillar_006_mesh_layer_4_vtx_0
                0x0000000007056c58                jrb_dl_pillar_006_mesh_layer_4_vtx_cull
                0x0000000007056cd8                jrb_dl_pillar_005_mesh_layer_4_tri_0
                0x0000000007056d18                jrb_dl_pillar_005_mesh_layer_4_vtx_0
                0x0000000007056e98                jrb_dl_pillar_005_mesh_layer_4_vtx_cull
                0x0000000007056f18                jrb_dl_pillar_004_mesh_layer_4_tri_0
                0x0000000007056f58                jrb_dl_pillar_004_mesh_layer_4_vtx_0
                0x00000000070570d8                jrb_dl_pillar_004_mesh_layer_4_vtx_cull
                0x0000000007057158                jrb_dl_pillar_003_mesh_layer_4_tri_0
                0x0000000007057198                jrb_dl_pillar_003_mesh_layer_4_vtx_0
                0x0000000007057318                jrb_dl_pillar_003_mesh_layer_4_vtx_cull
                0x0000000007057398                jrb_dl_pillar_002_mesh_layer_4_tri_0
                0x00000000070573d8                jrb_dl_pillar_002_mesh_layer_4_vtx_0
                0x0000000007057558                jrb_dl_pillar_002_mesh_layer_4_vtx_cull
                0x00000000070575d8                jrb_dl_pillar_001_mesh_layer_1_tri_0
                0x0000000007057618                jrb_dl_pillar_001_mesh_layer_1_vtx_0
                0x0000000007057798                jrb_dl_pillar_001_mesh_layer_1_vtx_cull
                0x0000000007057818                jrb_dl_picnic_mesh_layer_1_tri_0
                0x0000000007057858                jrb_dl_picnic_mesh_layer_1_vtx_0
                0x00000000070579d8                jrb_dl_picnic_mesh_layer_1_vtx_cull
                0x0000000007057a58                jrb_dl_owl_crest_mesh_layer_4_tri_0
                0x0000000007057b38                jrb_dl_owl_crest_mesh_layer_4_vtx_0
                0x0000000007057f98                jrb_dl_owl_crest_mesh_layer_4_vtx_cull
                0x0000000007058018                jrb_dl_owl_crest_mesh_layer_1_tri_1
                0x00000000070580f8                jrb_dl_owl_crest_mesh_layer_1_vtx_1
                0x0000000007058518                jrb_dl_owl_crest_mesh_layer_1_tri_0
                0x00000000070585c8                jrb_dl_owl_crest_mesh_layer_1_vtx_0
                0x0000000007058a48                jrb_dl_owl_crest_mesh_layer_1_vtx_cull
                0x0000000007058ac8                jrb_dl_Icosphere_015_mesh_layer_1_tri_0
                0x00000000070590d0                jrb_dl_Icosphere_015_mesh_layer_1_vtx_0
                0x000000000705ccd0                jrb_dl_Icosphere_015_mesh_layer_1_vtx_cull
                0x000000000705cd50                jrb_dl_Icosphere_014_mesh_layer_1_tri_0
                0x000000000705d358                jrb_dl_Icosphere_014_mesh_layer_1_vtx_0
                0x0000000007060f58                jrb_dl_Icosphere_014_mesh_layer_1_vtx_cull
                0x0000000007060fd8                jrb_dl_Icosphere_013_mesh_layer_1_tri_3
                0x0000000007061090                jrb_dl_Icosphere_013_mesh_layer_1_vtx_3
                0x0000000007061450                jrb_dl_Icosphere_013_mesh_layer_1_tri_2
                0x00000000070614d8                jrb_dl_Icosphere_013_mesh_layer_1_vtx_2
                0x0000000007061768                jrb_dl_Icosphere_013_mesh_layer_1_tri_1
                0x00000000070617d8                jrb_dl_Icosphere_013_mesh_layer_1_vtx_1
                0x0000000007061a38                jrb_dl_Icosphere_013_mesh_layer_1_tri_0
                0x0000000007061b58                jrb_dl_Icosphere_013_mesh_layer_1_vtx_0
                0x0000000007062128                jrb_dl_Icosphere_013_mesh_layer_1_vtx_cull
                0x00000000070621a8                jrb_dl_Icosphere_003_mesh_layer_1_tri_0
                0x00000000070627b0                jrb_dl_Icosphere_003_mesh_layer_1_vtx_0
                0x00000000070663b0                jrb_dl_Icosphere_003_mesh_layer_1_vtx_cull
                0x0000000007066430                jrb_dl_Icosphere_002_mesh_layer_1_tri_0
                0x0000000007066a38                jrb_dl_Icosphere_002_mesh_layer_1_vtx_0
                0x000000000706a638                jrb_dl_Icosphere_002_mesh_layer_1_vtx_cull
                0x000000000706a6b8                jrb_dl_Icosphere_001_mesh_layer_1_tri_0
                0x000000000706acc0                jrb_dl_Icosphere_001_mesh_layer_1_vtx_0
                0x000000000706e8c0                jrb_dl_Icosphere_001_mesh_layer_1_vtx_cull
                0x000000000706e940                jrb_dl_Houses_SecondAge_3_Level1_mesh_layer_1_tri_4
                0x000000000706e990                jrb_dl_Houses_SecondAge_3_Level1_mesh_layer_1_vtx_4
                0x000000000706eb60                jrb_dl_Houses_SecondAge_3_Level1_mesh_layer_1_tri_3
                0x000000000706ee58                jrb_dl_Houses_SecondAge_3_Level1_mesh_layer_1_vtx_3
                0x0000000007070318                jrb_dl_Houses_SecondAge_3_Level1_mesh_layer_1_tri_2
                0x0000000007070668                jrb_dl_Houses_SecondAge_3_Level1_mesh_layer_1_vtx_2
                0x0000000007071da8                jrb_dl_Houses_SecondAge_3_Level1_mesh_layer_1_tri_1
                0x0000000007071dc8                jrb_dl_Houses_SecondAge_3_Level1_mesh_layer_1_vtx_1
                0x0000000007071e48                jrb_dl_Houses_SecondAge_3_Level1_mesh_layer_1_tri_0
                0x0000000007071ee0                jrb_dl_Houses_SecondAge_3_Level1_mesh_layer_1_vtx_0
                0x00000000070722c0                jrb_dl_Houses_SecondAge_3_Level1_mesh_layer_1_vtx_cull
                0x0000000007072340                jrb_dl_Houses_SecondAge_1_Level1_003_mesh_layer_1_tri_4
                0x0000000007072400                jrb_dl_Houses_SecondAge_1_Level1_003_mesh_layer_1_vtx_4
                0x0000000007072900                jrb_dl_Houses_SecondAge_1_Level1_003_mesh_layer_1_tri_3
                0x0000000007072950                jrb_dl_Houses_SecondAge_1_Level1_003_mesh_layer_1_vtx_3
                0x0000000007072b30                jrb_dl_Houses_SecondAge_1_Level1_003_mesh_layer_1_tri_2
                0x0000000007073298                jrb_dl_Houses_SecondAge_1_Level1_003_mesh_layer_1_vtx_2
                0x00000000070766b8                jrb_dl_Houses_SecondAge_1_Level1_003_mesh_layer_1_tri_1
                0x00000000070766f8                jrb_dl_Houses_SecondAge_1_Level1_003_mesh_layer_1_vtx_1
                0x0000000007076868                jrb_dl_Houses_SecondAge_1_Level1_003_mesh_layer_1_tri_0
                0x0000000007076888                jrb_dl_Houses_SecondAge_1_Level1_003_mesh_layer_1_vtx_0
                0x0000000007076908                jrb_dl_Houses_SecondAge_1_Level1_003_mesh_layer_1_vtx_cull
                0x0000000007076988                jrb_dl_Houses_SecondAge_1_Level1_002_mesh_layer_1_tri_4
                0x0000000007076a48                jrb_dl_Houses_SecondAge_1_Level1_002_mesh_layer_1_vtx_4
                0x0000000007076f48                jrb_dl_Houses_SecondAge_1_Level1_002_mesh_layer_1_tri_3
                0x0000000007076f98                jrb_dl_Houses_SecondAge_1_Level1_002_mesh_layer_1_vtx_3
                0x0000000007077178                jrb_dl_Houses_SecondAge_1_Level1_002_mesh_layer_1_tri_2
                0x00000000070778e0                jrb_dl_Houses_SecondAge_1_Level1_002_mesh_layer_1_vtx_2
                0x000000000707ad00                jrb_dl_Houses_SecondAge_1_Level1_002_mesh_layer_1_tri_1
                0x000000000707ad40                jrb_dl_Houses_SecondAge_1_Level1_002_mesh_layer_1_vtx_1
                0x000000000707aeb0                jrb_dl_Houses_SecondAge_1_Level1_002_mesh_layer_1_tri_0
                0x000000000707aed0                jrb_dl_Houses_SecondAge_1_Level1_002_mesh_layer_1_vtx_0
                0x000000000707af50                jrb_dl_Houses_SecondAge_1_Level1_002_mesh_layer_1_vtx_cull
                0x000000000707afd0                jrb_dl_Houses_SecondAge_1_Level1_001_mesh_layer_1_tri_4
                0x000000000707b090                jrb_dl_Houses_SecondAge_1_Level1_001_mesh_layer_1_vtx_4
                0x000000000707b590                jrb_dl_Houses_SecondAge_1_Level1_001_mesh_layer_1_tri_3
                0x000000000707b5e0                jrb_dl_Houses_SecondAge_1_Level1_001_mesh_layer_1_vtx_3
                0x000000000707b7c0                jrb_dl_Houses_SecondAge_1_Level1_001_mesh_layer_1_tri_2
                0x000000000707bf28                jrb_dl_Houses_SecondAge_1_Level1_001_mesh_layer_1_vtx_2
                0x000000000707f348                jrb_dl_Houses_SecondAge_1_Level1_001_mesh_layer_1_tri_1
                0x000000000707f388                jrb_dl_Houses_SecondAge_1_Level1_001_mesh_layer_1_vtx_1
                0x000000000707f4f8                jrb_dl_Houses_SecondAge_1_Level1_001_mesh_layer_1_tri_0
                0x000000000707f518                jrb_dl_Houses_SecondAge_1_Level1_001_mesh_layer_1_vtx_0
                0x000000000707f598                jrb_dl_Houses_SecondAge_1_Level1_001_mesh_layer_1_vtx_cull
                0x000000000707f618                jrb_dl_flowers_mesh_layer_5_tri_0
                0x000000000707f6b0                jrb_dl_flowers_mesh_layer_5_vtx_0
                0x000000000707f9b0                jrb_dl_flowers_mesh_layer_5_vtx_cull
                0x000000000707fa30                jrb_dl_flowers_mesh_layer_4_tri_0
                0x000000000707fa80                jrb_dl_flowers_mesh_layer_4_vtx_0
                0x000000000707fbe0                jrb_dl_flowers_mesh_layer_4_vtx_cull
                0x000000000707fc60                jrb_dl_Cylinder_005_mesh_layer_1_tri_1
                0x000000000707fd88                jrb_dl_Cylinder_005_mesh_layer_1_vtx_1
                0x0000000007080588                jrb_dl_Cylinder_005_mesh_layer_1_tri_0
                0x0000000007080690                jrb_dl_Cylinder_005_mesh_layer_1_vtx_0
                0x0000000007080a90                jrb_dl_Cylinder_005_mesh_layer_1_vtx_cull
                0x0000000007080b10                jrb_dl_Cylinder_004_mesh_layer_1_tri_1
                0x0000000007080c38                jrb_dl_Cylinder_004_mesh_layer_1_vtx_1
                0x0000000007081438                jrb_dl_Cylinder_004_mesh_layer_1_tri_0
                0x0000000007081540                jrb_dl_Cylinder_004_mesh_layer_1_vtx_0
                0x0000000007081940                jrb_dl_Cylinder_004_mesh_layer_1_vtx_cull
                0x00000000070819c0                jrb_dl_Cylinder_003_mesh_layer_1_tri_1
                0x0000000007081ae8                jrb_dl_Cylinder_003_mesh_layer_1_vtx_1
                0x00000000070822e8                jrb_dl_Cylinder_003_mesh_layer_1_tri_0
                0x00000000070823f0                jrb_dl_Cylinder_003_mesh_layer_1_vtx_0
                0x00000000070827f0                jrb_dl_Cylinder_003_mesh_layer_1_vtx_cull
                0x0000000007082870                jrb_dl_Cylinder_002_mesh_layer_1_tri_1
                0x0000000007082998                jrb_dl_Cylinder_002_mesh_layer_1_vtx_1
                0x0000000007083198                jrb_dl_Cylinder_002_mesh_layer_1_tri_0
                0x00000000070832a0                jrb_dl_Cylinder_002_mesh_layer_1_vtx_0
                0x00000000070836a0                jrb_dl_Cylinder_002_mesh_layer_1_vtx_cull
                0x0000000007083720                jrb_dl_Cylinder_001_mesh_layer_1_tri_1
                0x0000000007083848                jrb_dl_Cylinder_001_mesh_layer_1_vtx_1
                0x0000000007084048                jrb_dl_Cylinder_001_mesh_layer_1_tri_0
                0x0000000007084168                jrb_dl_Cylinder_001_mesh_layer_1_vtx_0
                0x0000000007084658                jrb_dl_Cylinder_001_mesh_layer_1_vtx_cull
                0x00000000070846d8                jrb_dl_Cylinder_mesh_layer_1_tri_1
                0x00000000070848a0                jrb_dl_Cylinder_mesh_layer_1_vtx_1
                0x0000000007085330                jrb_dl_Cylinder_mesh_layer_1_tri_0
                0x00000000070853c0                jrb_dl_Cylinder_mesh_layer_1_vtx_0
                0x00000000070855e0                jrb_dl_Cylinder_mesh_layer_1_vtx_cull
                0x0000000007085660                jrb_dl_Cube_066_mesh_layer_1_tri_0
                0x00000000070856a0                jrb_dl_Cube_066_mesh_layer_1_vtx_0
                0x0000000007085820                jrb_dl_Cube_066_mesh_layer_1_vtx_cull
                0x00000000070858a0                jrb_dl_Cube_065_mesh_layer_1_tri_0
                0x00000000070858e0                jrb_dl_Cube_065_mesh_layer_1_vtx_0
                0x0000000007085a60                jrb_dl_Cube_065_mesh_layer_1_vtx_cull
                0x0000000007085ae0                jrb_dl_Cube_064_mesh_layer_1_tri_0
                0x0000000007085b20                jrb_dl_Cube_064_mesh_layer_1_vtx_0
                0x0000000007085ca0                jrb_dl_Cube_064_mesh_layer_1_vtx_cull
                0x0000000007085d20                jrb_dl_Cube_063_mesh_layer_1_tri_0
                0x0000000007085d60                jrb_dl_Cube_063_mesh_layer_1_vtx_0
                0x0000000007085ee0                jrb_dl_Cube_063_mesh_layer_1_vtx_cull
                0x0000000007085f60                jrb_dl_Cube_060_mesh_layer_1_tri_0
                0x0000000007085fa0                jrb_dl_Cube_060_mesh_layer_1_vtx_0
                0x0000000007086120                jrb_dl_Cube_060_mesh_layer_1_vtx_cull
                0x00000000070861a0                jrb_dl_Cube_058_mesh_layer_1_tri_0
                0x0000000007086368                jrb_dl_Cube_058_mesh_layer_1_vtx_0
                0x0000000007086f28                jrb_dl_Cube_058_mesh_layer_1_vtx_cull
                0x0000000007086fa8                jrb_dl_Cube_057_mesh_layer_1_tri_0
                0x0000000007086fe8                jrb_dl_Cube_057_mesh_layer_1_vtx_0
                0x0000000007087168                jrb_dl_Cube_057_mesh_layer_1_vtx_cull
                0x00000000070871e8                jrb_dl_Cube_056_mesh_layer_1_tri_0
                0x0000000007087228                jrb_dl_Cube_056_mesh_layer_1_vtx_0
                0x00000000070873a8                jrb_dl_Cube_056_mesh_layer_1_vtx_cull
                0x0000000007087428                jrb_dl_Cube_055_mesh_layer_1_tri_0
                0x0000000007087468                jrb_dl_Cube_055_mesh_layer_1_vtx_0
                0x00000000070875e8                jrb_dl_Cube_055_mesh_layer_1_vtx_cull
                0x0000000007087668                jrb_dl_Cube_054_mesh_layer_1_tri_0
                0x00000000070876a8                jrb_dl_Cube_054_mesh_layer_1_vtx_0
                0x0000000007087828                jrb_dl_Cube_054_mesh_layer_1_vtx_cull
                0x00000000070878a8                jrb_dl_Cube_053_mesh_layer_1_tri_0
                0x00000000070878e8                jrb_dl_Cube_053_mesh_layer_1_vtx_0
                0x0000000007087a68                jrb_dl_Cube_053_mesh_layer_1_vtx_cull
                0x0000000007087ae8                jrb_dl_Cube_052_mesh_layer_1_tri_0
                0x0000000007087b28                jrb_dl_Cube_052_mesh_layer_1_vtx_0
                0x0000000007087ca8                jrb_dl_Cube_052_mesh_layer_1_vtx_cull
                0x0000000007087d28                jrb_dl_Cube_051_mesh_layer_1_tri_0
                0x0000000007087d68                jrb_dl_Cube_051_mesh_layer_1_vtx_0
                0x0000000007087ee8                jrb_dl_Cube_051_mesh_layer_1_vtx_cull
                0x0000000007087f68                jrb_dl_Cube_050_mesh_layer_1_tri_0
                0x0000000007087fa8                jrb_dl_Cube_050_mesh_layer_1_vtx_0
                0x0000000007088128                jrb_dl_Cube_050_mesh_layer_1_vtx_cull
                0x00000000070881a8                jrb_dl_Cube_049_mesh_layer_1_tri_0
                0x00000000070881e8                jrb_dl_Cube_049_mesh_layer_1_vtx_0
                0x0000000007088368                jrb_dl_Cube_049_mesh_layer_1_vtx_cull
                0x00000000070883e8                jrb_dl_Cube_048_mesh_layer_1_tri_0
                0x0000000007088428                jrb_dl_Cube_048_mesh_layer_1_vtx_0
                0x00000000070885a8                jrb_dl_Cube_048_mesh_layer_1_vtx_cull
                0x0000000007088628                jrb_dl_Cube_047_mesh_layer_1_tri_0
                0x0000000007088668                jrb_dl_Cube_047_mesh_layer_1_vtx_0
                0x00000000070887e8                jrb_dl_Cube_047_mesh_layer_1_vtx_cull
                0x0000000007088868                jrb_dl_Cube_046_mesh_layer_1_tri_0
                0x00000000070888d0                jrb_dl_Cube_046_mesh_layer_1_vtx_0
                0x0000000007088b40                jrb_dl_Cube_046_mesh_layer_1_vtx_cull
                0x0000000007088bc0                jrb_dl_Cube_045_mesh_layer_1_tri_0
                0x0000000007088c00                jrb_dl_Cube_045_mesh_layer_1_vtx_0
                0x0000000007088d80                jrb_dl_Cube_045_mesh_layer_1_vtx_cull
                0x0000000007088e00                jrb_dl_Cube_044_mesh_layer_1_tri_0
                0x0000000007088e40                jrb_dl_Cube_044_mesh_layer_1_vtx_0
                0x0000000007088fc0                jrb_dl_Cube_044_mesh_layer_1_vtx_cull
                0x0000000007089040                jrb_dl_Cube_043_mesh_layer_1_tri_0
                0x0000000007089080                jrb_dl_Cube_043_mesh_layer_1_vtx_0
                0x0000000007089200                jrb_dl_Cube_043_mesh_layer_1_vtx_cull
                0x0000000007089280                jrb_dl_Cube_042_mesh_layer_1_tri_0
                0x00000000070892c0                jrb_dl_Cube_042_mesh_layer_1_vtx_0
                0x0000000007089440                jrb_dl_Cube_042_mesh_layer_1_vtx_cull
                0x00000000070894c0                jrb_dl_Cube_041_mesh_layer_1_tri_0
                0x0000000007089500                jrb_dl_Cube_041_mesh_layer_1_vtx_0
                0x0000000007089680                jrb_dl_Cube_041_mesh_layer_1_vtx_cull
                0x0000000007089700                jrb_dl_Cube_040_mesh_layer_1_tri_0
                0x0000000007089740                jrb_dl_Cube_040_mesh_layer_1_vtx_0
                0x00000000070898c0                jrb_dl_Cube_040_mesh_layer_1_vtx_cull
                0x0000000007089940                jrb_dl_Cube_039_mesh_layer_5_tri_0
                0x0000000007089980                jrb_dl_Cube_039_mesh_layer_5_vtx_0
                0x0000000007089b00                jrb_dl_Cube_039_mesh_layer_5_vtx_cull
                0x0000000007089b80                jrb_dl_Cube_037_mesh_layer_1_tri_0
                0x0000000007089be8                jrb_dl_Cube_037_mesh_layer_1_vtx_0
                0x0000000007089e28                jrb_dl_Cube_037_mesh_layer_1_vtx_cull
                0x0000000007089ea8                jrb_dl_Cube_036_mesh_layer_1_tri_0
                0x0000000007089f10                jrb_dl_Cube_036_mesh_layer_1_vtx_0
                0x000000000708a150                jrb_dl_Cube_036_mesh_layer_1_vtx_cull
                0x000000000708a1d0                jrb_dl_Cube_035_mesh_layer_1_tri_2
                0x000000000708a208                jrb_dl_Cube_035_mesh_layer_1_vtx_2
                0x000000000708a318                jrb_dl_Cube_035_mesh_layer_1_tri_1
                0x000000000708a3b8                jrb_dl_Cube_035_mesh_layer_1_vtx_1
                0x000000000708a6c8                jrb_dl_Cube_035_mesh_layer_1_tri_0
                0x000000000708a728                jrb_dl_Cube_035_mesh_layer_1_vtx_0
                0x000000000708a8e8                jrb_dl_Cube_035_mesh_layer_1_vtx_cull
                0x000000000708a968                jrb_dl_Cube_034_mesh_layer_1_tri_0
                0x000000000708a9d0                jrb_dl_Cube_034_mesh_layer_1_vtx_0
                0x000000000708ac10                jrb_dl_Cube_034_mesh_layer_1_vtx_cull
                0x000000000708ac90                jrb_dl_Cube_032_mesh_layer_1_tri_0
                0x000000000708acd0                jrb_dl_Cube_032_mesh_layer_1_vtx_0
                0x000000000708ae50                jrb_dl_Cube_032_mesh_layer_1_vtx_cull
                0x000000000708aed0                jrb_dl_Cube_031_mesh_layer_1_tri_0
                0x000000000708af38                jrb_dl_Cube_031_mesh_layer_1_vtx_0
                0x000000000708b178                jrb_dl_Cube_031_mesh_layer_1_vtx_cull
                0x000000000708b1f8                jrb_dl_Cube_030_mesh_layer_1_tri_0
                0x000000000708b290                jrb_dl_Cube_030_mesh_layer_1_vtx_0
                0x000000000708b590                jrb_dl_Cube_030_mesh_layer_1_vtx_cull
                0x000000000708b610                jrb_dl_Cube_029_mesh_layer_4_tri_0
                0x000000000708b6f0                jrb_dl_Cube_029_mesh_layer_4_vtx_0
                0x000000000708bb10                jrb_dl_Cube_029_mesh_layer_4_vtx_cull
                0x000000000708bb90                jrb_dl_Cube_017_mesh_layer_1_tri_0
                0x000000000708bd58                jrb_dl_Cube_017_mesh_layer_1_vtx_0
                0x000000000708c918                jrb_dl_Cube_017_mesh_layer_1_vtx_cull
                0x000000000708c998                jrb_dl_Cube_008_mesh_layer_1_tri_1
                0x000000000708c9c8                jrb_dl_Cube_008_mesh_layer_1_vtx_1
                0x000000000708cac8                jrb_dl_Cube_008_mesh_layer_1_tri_0
                0x000000000708cae8                jrb_dl_Cube_008_mesh_layer_1_vtx_0
                0x000000000708cb68                jrb_dl_Cube_008_mesh_layer_1_vtx_cull
                0x000000000708cbe8                jrb_dl_Cube_007_mesh_layer_1_tri_0
                0x000000000708cdb0                jrb_dl_Cube_007_mesh_layer_1_vtx_0
                0x000000000708d970                jrb_dl_Cube_007_mesh_layer_1_vtx_cull
                0x000000000708d9f0                jrb_dl_Cube_006_mesh_layer_1_tri_0
                0x000000000708dbb8                jrb_dl_Cube_006_mesh_layer_1_vtx_0
                0x000000000708e778                jrb_dl_Cube_006_mesh_layer_1_vtx_cull
                0x000000000708e7f8                jrb_dl_Cube_005_mesh_layer_1_tri_0
                0x000000000708e9c0                jrb_dl_Cube_005_mesh_layer_1_vtx_0
                0x000000000708f580                jrb_dl_Cube_005_mesh_layer_1_vtx_cull
                0x000000000708f600                jrb_dl_Cube_004_mesh_layer_1_tri_0
                0x000000000708f640                jrb_dl_Cube_004_mesh_layer_1_vtx_0
                0x000000000708f7c0                jrb_dl_Cube_004_mesh_layer_1_vtx_cull
                0x000000000708f840                jrb_dl_Cube_003_mesh_layer_1_tri_0
                0x000000000708f9d8                jrb_dl_Cube_003_mesh_layer_1_vtx_0
                0x0000000007090338                jrb_dl_Cube_003_mesh_layer_1_vtx_cull
                0x00000000070903b8                jrb_dl_Cube_002_mesh_layer_1_tri_0
                0x00000000070904a0                jrb_dl_Cube_002_mesh_layer_1_vtx_0
                0x0000000007090960                jrb_dl_Cube_002_mesh_layer_1_vtx_cull
                0x00000000070909e0                jrb_dl_Cube_001_mesh_layer_1_tri_2
                0x0000000007090a00                jrb_dl_Cube_001_mesh_layer_1_vtx_2
                0x0000000007090a60                jrb_dl_Cube_001_mesh_layer_1_tri_1
                0x0000000007090a88                jrb_dl_Cube_001_mesh_layer_1_vtx_1
                0x0000000007090b28                jrb_dl_Cube_001_mesh_layer_1_tri_0
                0x0000000007090b70                jrb_dl_Cube_001_mesh_layer_1_vtx_0
                0x0000000007090cf0                jrb_dl_Cube_001_mesh_layer_1_vtx_cull
                0x0000000007090d70                jrb_dl_Cube_mesh_layer_1_tri_4
                0x0000000007090dc0                jrb_dl_Cube_mesh_layer_1_vtx_4
                0x0000000007090f20                jrb_dl_Cube_mesh_layer_1_tri_3
                0x0000000007090f68                jrb_dl_Cube_mesh_layer_1_vtx_3
                0x00000000070910e8                jrb_dl_Cube_mesh_layer_1_tri_2
                0x0000000007091108                jrb_dl_Cube_mesh_layer_1_vtx_2
                0x0000000007091158                jrb_dl_Cube_mesh_layer_1_tri_1
                0x0000000007091278                jrb_dl_Cube_mesh_layer_1_vtx_1
                0x00000000070919a8                jrb_dl_Cube_mesh_layer_1_tri_0
                0x0000000007091af0                jrb_dl_Cube_mesh_layer_1_vtx_0
                0x0000000007092180                jrb_dl_Cube_mesh_layer_1_vtx_cull
                0x0000000007092200                jrb_dl_bell_mesh_layer_1_tri_0
                0x0000000007093158                jrb_dl_bell_mesh_layer_1_vtx_0
                0x0000000007099858                jrb_dl_bell_mesh_layer_1_vtx_cull
                0x00000000070998d8                jrb_dl_Beach_Chairs_and_Umbrella_mesh_layer_1_tri_1
                0x0000000007099928                jrb_dl_Beach_Chairs_and_Umbrella_mesh_layer_1_vtx_1
                0x0000000007099a38                jrb_dl_Beach_Chairs_and_Umbrella_mesh_layer_1_tri_0
                0x000000000709a450                jrb_dl_Beach_Chairs_and_Umbrella_mesh_layer_1_vtx_0
                0x000000000709d8b0                jrb_dl_Beach_Chairs_and_Umbrella_mesh_layer_1_vtx_cull
                0x000000000709d930                jrb_dl_rings_pal_rgba16
                0x000000000709da10                jrb_dl_rings_pal_rgba16_aligner
                0x000000000709da18                jrb_dl_rings_ci8
                0x000000000709de18                jrb_dl_rings_ci8_aligner
                0x000000000709de20                jrb_dl_ci4_anonmoose_treebark1_pal_rgba16
                0x000000000709de40                jrb_dl_ci4_anonmoose_treebark1_pal_rgba16_aligner
                0x000000000709de48                jrb_dl_ci4_anonmoose_treebark1_ci4
                0x000000000709e648                jrb_dl_ci4_anonmoose_treebark1_ci4_aligner
                0x000000000709e650                jrb_dl_rgba16_anonmoose_GreenishSquare_pal_rgba16
                0x000000000709e678                jrb_dl_rgba16_anonmoose_GreenishSquare_pal_rgba16_aligner
                0x000000000709e680                jrb_dl_rgba16_anonmoose_GreenishSquare_ci8
                0x000000000709ea80                jrb_dl_rgba16_anonmoose_GreenishSquare_ci8_aligner
                0x000000000709ea88                jrb_dl_slab_pal_rgba16
                0x000000000709eac0                jrb_dl_slab_pal_rgba16_aligner
                0x000000000709eac8                jrb_dl_slab_ci8
                0x000000000709eec8                jrb_dl_slab_ci8_aligner
                0x000000000709eed0                jrb_dl__1_pal_rgba16
                0x000000000709ef38                jrb_dl__1_pal_rgba16_aligner
                0x000000000709ef40                jrb_dl__1_ci8
                0x000000000709f340                _::jrb_dl(char, int, _aligner)
                0x000000000709f348                jrb_dl_ci4_sophie_tablecloth_pal_rgba16
                0x000000000709f368                jrb_dl_ci4_sophie_tablecloth_pal_rgba16_aligner
                0x000000000709f370                jrb_dl_ci4_sophie_tablecloth_ci4
                0x000000000709fb70                jrb_dl_ci4_sophie_tablecloth_ci4_aligner
                0x000000000709fb78                jrb_dl_ci4_anonmoose_whiteblock_pal_rgba16
                0x000000000709fb98                jrb_dl_ci4_anonmoose_whiteblock_pal_rgba16_aligner
                0x000000000709fba0                jrb_dl_ci4_anonmoose_whiteblock_ci4
                0x00000000070a03a0                jrb_dl_ci4_anonmoose_whiteblock_ci4_aligner
                0x00000000070a03a8                jrb_dl_ci4_sophie_metal2_pal_rgba16
                0x00000000070a03c8                jrb_dl_ci4_sophie_metal2_pal_rgba16_aligner
                0x00000000070a03d0                jrb_dl_ci4_sophie_metal2_ci4
                0x00000000070a0bd0                jrb_dl_ci4_sophie_metal2_ci4_aligner
                0x00000000070a0bd8                jrb_dl_rgba16_anonmoose_envmap_gold1_pal_rgba16
                0x00000000070a0d48                jrb_dl_rgba16_anonmoose_envmap_gold1_pal_rgba16_aligner
                0x00000000070a0d50                jrb_dl_rgba16_anonmoose_envmap_gold1_ci8
                0x00000000070a1150                jrb_dl_rgba16_anonmoose_envmap_gold1_ci8_aligner
                0x00000000070a1158                jrb_dl__0_pal_rgba16
                0x00000000070a1288                jrb_dl__0_pal_rgba16_aligner
                0x00000000070a1290                jrb_dl__0_ci8
                0x00000000070a1690                jrb_dl__0_ci8_aligner
                0x00000000070a1698                jrb_dl_invisible_ia8
                0x00000000070a1a98                jrb_dl_invisible_ia8_aligner
                0x00000000070a1aa0                jrb_dl_flower_pal_rgba16
                0x00000000070a1b00                jrb_dl_flower_pal_rgba16_aligner
                0x00000000070a1b08                jrb_dl_flower_ci8
                0x00000000070a1f08                jrb_dl_flower_ci8_aligner
                0x00000000070a1f10                jrb_dl_light_pal_rgba16
                0x00000000070a1f18                jrb_dl_light_pal_rgba16_aligner
                0x00000000070a1f20                jrb_dl_light_ci4
                0x00000000070a2120                jrb_dl_light_ci4_aligner
                0x00000000070a2128                jrb_dl_rgba16_anonmoose_swirl1_pal_rgba16
                0x00000000070a2178                jrb_dl_rgba16_anonmoose_swirl1_pal_rgba16_aligner
                0x00000000070a2180                jrb_dl_rgba16_anonmoose_swirl1_ci8
                0x00000000070a2580                jrb_dl_rgba16_anonmoose_swirl1_ci8_aligner
                0x00000000070a2588                jrb_dl_grate_pal_rgba16
                0x00000000070a2670                jrb_dl_grate_pal_rgba16_aligner
                0x00000000070a2678                jrb_dl_grate_ci8
                0x00000000070a2a78                jrb_dl_grate_ci8_aligner
                0x00000000070a2a80                jrb_dl_ci4_anonmoose_Dirt1_pal_rgba16
                0x00000000070a2ab8                jrb_dl_ci4_anonmoose_Dirt1_pal_rgba16_aligner
                0x00000000070a2ac0                jrb_dl_ci4_anonmoose_Dirt1_ci8
                0x00000000070a2ec0                jrb_dl_ci4_anonmoose_Dirt1_ci8_aligner
                0x00000000070a2ec8                jrb_dl__25_pal_rgba16
                0x00000000070a2f38                jrb_dl__25_pal_rgba16_aligner
                0x00000000070a2f40                jrb_dl__25_ci8
                0x00000000070a3340                jrb_dl__25_ci8_aligner
                0x00000000070a3348                jrb_dl_ci4_anonmoose_Tiles1_pal_rgba16
                0x00000000070a3368                jrb_dl_ci4_anonmoose_Tiles1_pal_rgba16_aligner
                0x00000000070a3370                jrb_dl_ci4_anonmoose_Tiles1_ci4
                0x00000000070a3b70                jrb_dl_ci4_anonmoose_Tiles1_ci4_aligner
                0x00000000070a3b78                jrb_dl__3563512_pal_rgba16
                0x00000000070a3b98                jrb_dl__3563512_pal_rgba16_aligner
                0x00000000070a3ba0                jrb_dl__3563512_ci4
                0x00000000070a43a0                jrb_dl__3563512_ci4_aligner
                0x00000000070a43a8                jrb_dl__12_pal_rgba16
                0x00000000070a4410                jrb_dl__12_pal_rgba16_aligner
                0x00000000070a4418                jrb_dl__12_ci8
                0x00000000070a4818                _ci8_aligner::jrb_dl(void)
                0x00000000070a4820                jrb_dl__6_pal_rgba16
                0x00000000070a4a08                jrb_dl__6_pal_rgba16_aligner
                0x00000000070a4a10                jrb_dl__6_ci8
                0x00000000070a4e10                jrb_dl__6_ci8_aligner
                0x00000000070a4e18                jrb_dl_ci4_sophie_rooftile_pal_rgba16
                0x00000000070a4e38                jrb_dl_ci4_sophie_rooftile_pal_rgba16_aligner
                0x00000000070a4e40                jrb_dl_ci4_sophie_rooftile_ci4
                0x00000000070a5640                jrb_dl_ci4_sophie_rooftile_ci4_aligner
                0x00000000070a5648                jrb_dl__7_pal_rgba16
                0x00000000070a5708                jrb_dl__7_pal_rgba16_aligner
                0x00000000070a5710                jrb_dl__7_ci8
                0x00000000070a5b10                jrb_dl__7_ci8_aligner
                0x00000000070a5b18                jrb_dl_ci4_sophie_broom_pal_rgba16
                0x00000000070a5b38                jrb_dl_ci4_sophie_broom_pal_rgba16_aligner
                0x00000000070a5b40                jrb_dl_ci4_sophie_broom_ci4
                0x00000000070a6340                jrb_dl_ci4_sophie_broom_ci4_aligner
                0x00000000070a6348                jrb_dl_ci4_sophie_interiorwall_pal_rgba16
                0x00000000070a6360                jrb_dl_ci4_sophie_interiorwall_pal_rgba16_aligner
                0x00000000070a6368                jrb_dl_ci4_sophie_interiorwall_ci4
                0x00000000070a6b68                jrb_dl_ci4_sophie_interiorwall_ci4_aligner
                0x00000000070a6b70                jrb_dl_rgba16_sophie_caution_pal_rgba16
                0x00000000070a6be8                jrb_dl_rgba16_sophie_caution_pal_rgba16_aligner
                0x00000000070a6bf0                jrb_dl_rgba16_sophie_caution_ci8
                0x00000000070a73f0                jrb_dl_rgba16_sophie_caution_ci8_aligner
                0x00000000070a73f8                jrb_dl_ci4_sophie_hay_pal_rgba16
                0x00000000070a7418                jrb_dl_ci4_sophie_hay_pal_rgba16_aligner
                0x00000000070a7420                jrb_dl_ci4_sophie_hay_ci4
                0x00000000070a7c20                jrb_dl_ci4_sophie_hay_ci4_aligner
                0x00000000070a7c28                jrb_dl_ci4_sophie_wood2_pal_rgba16
                0x00000000070a7c48                jrb_dl_ci4_sophie_wood2_pal_rgba16_aligner
                0x00000000070a7c50                jrb_dl_ci4_sophie_wood2_ci4
                0x00000000070a8450                jrb_dl_ci4_sophie_wood2_ci4_aligner
                0x00000000070a8458                jrb_area_1_macro_objs
                0x00000000070a845c                jrb_area_1_collision
                0x00000000070cf350                jrb_movtex_sunken_ship_water
                0x00000000070cf380                jrb_seg7_area_2_macro_objs
                0x00000000070cf38c                jrb_seg7_area_2_collision
                0x00000000070d0440                jrb_seg7_dl_07010548
                0x00000000070d0a90                jrb_seg7_dl_0700FE48
                0x00000000070d1870                jrb_seg7_dl_0700EF00
                0x00000000070d3238                jrb_movtex_initial_mist
                0x00000000070d3268                jrb_movtex_water
                0x00000000070d32c0                jrb_seg7_trajectory_unagi_2
                0x00000000070d330c                jrb_seg7_trajectory_unagi_1
                0x00000000070d3340                jrb_seg7_collision_0700D1DC
                0x00000000070d3374                jrb_seg7_collision_pillar_base
                0x00000000070d33c0                jrb_seg7_collision_in_sunken_ship_2
                0x00000000070d3644                jrb_seg7_collision_0700CEF0
                0x00000000070d36ec                jrb_seg7_collision_in_sunken_ship
                0x00000000070d3798                jrb_seg7_collision_in_sunken_ship_3
                0x00000000070d3de0                jrb_seg7_collision_floating_box
                0x00000000070d3e7c                jrb_seg7_collision_floating_platform
                0x00000000070d3f18                jrb_seg7_collision_rock_solid
                0x00000000070d400c                jrb_seg7_area_1_macro_objs
                0x00000000070d427c                jrb_seg7_area_1_collision
                0x00000000070d5b40                jrb_seg7_dl_0700AFB0
                0x00000000070d5c90                jrb_seg7_dl_0700AE48
                0x00000000070d5e20                jrb_seg7_dl_0700AC68
                0x00000000070d63e0                jrb_seg7_dl_0700A608
                0x00000000070d6d98                jrb_seg7_dl_07009B30
                0x00000000070d6e78                jrb_seg7_dl_07009A58
                0x00000000070d7728                jrb_seg7_dl_070090B0
                0x00000000070d7808                jrb_seg7_dl_07008FD8
                0x00000000070d8570                jrb_seg7_dl_070080F8
                0x00000000070d8840                jrb_seg7_dl_07007DC8
                0x00000000070d8b38                jrb_seg7_dl_07007AC8
                0x00000000070d8e60                jrb_seg7_dl_07007718
                0x00000000070d9018                jrb_seg7_dl_07007570
                0x00000000070d9aa8                jrb_seg7_dl_070069B0
                0x00000000070daa00                jrb_seg7_dl_070058C8
                0x00000000070db4e8                jrb_seg7_dl_07004C78
                0x00000000070db7c0                jrb_seg7_dl_07004940
                0x00000000070dce60                jrb_seg7_dl_07002FD0

.data1
 *(.data1)

.got.plt
 *(.got.plt)
                0x00000000070dfe38                . = .
                0x00000000070dfe38                . = .
                0x00000000070e7e30                _gp = (ALIGN (0x10) + 0x7ff0)

.got
 *(.got)

.sdata
 *(.sdata .sdata.* .gnu.linkonce.s.*)

.lit8
 *(.lit8)

.lit4
 *(.lit4)
                0x00000000070dfe38                _edata = .
                [!provide]                        PROVIDE (edata = .)
                0x00000000070dfe38                . = .
                0x00000000070dfe38                __bss_start = .
                0x00000000070dfe38                _fbss = .

.sbss
 *(.dynsbss)
 *(.sbss .sbss.* .gnu.linkonce.sb.*)
 *(.scommon)

.bss            0x00000000070dfe38        0x0 load address 0x00000000070dfe50
 *(.dynbss)
 *(.bss .bss.* .gnu.linkonce.b.*)
 .bss           0x00000000070dfe38        0x0 build/us_n64/levels/jrb/leveldata.o
 *(COMMON)
                0x00000000070dfe38                . = ALIGN ((. != 0x0)?0x4:0x1)
                0x00000000070dfe38                . = ALIGN (0x4)
                0x00000000070dfe38                . = SEGMENT_START ("ldata-segment", .)
                0x00000000070dfe38                . = ALIGN (0x4)
                0x00000000070dfe38                _end = .
                [!provide]                        PROVIDE (end = .)
                0x00000000070dfe38                . = DATA_SEGMENT_END (.)

.stab
 *(.stab)

.stabstr
 *(.stabstr)

.stab.excl
 *(.stab.excl)

.stab.exclstr
 *(.stab.exclstr)

.stab.index
 *(.stab.index)

.stab.indexstr
 *(.stab.indexstr)

.comment        0x0000000000000000       0x12
 *(.comment)
 .comment       0x0000000000000000       0x12 build/us_n64/levels/jrb/leveldata.o
                                         0x13 (size before relaxing)

.pdr            0x0000000000000000        0x0
 .pdr           0x0000000000000000        0x0 build/us_n64/levels/jrb/leveldata.o

.debug
 *(.debug)

.line
 *(.line)

.debug_srcinfo
 *(.debug_srcinfo)

.debug_sfnames
 *(.debug_sfnames)

.debug_aranges
 *(.debug_aranges)

.debug_pubnames
 *(.debug_pubnames)

.debug_info
 *(.debug_info .gnu.linkonce.wi.*)

.debug_abbrev
 *(.debug_abbrev)

.debug_line
 *(.debug_line .debug_line.* .debug_line_end)

.debug_frame
 *(.debug_frame)

.debug_str
 *(.debug_str)

.debug_loc
 *(.debug_loc)

.debug_macinfo
 *(.debug_macinfo)

.debug_weaknames
 *(.debug_weaknames)

.debug_funcnames
 *(.debug_funcnames)

.debug_typenames
 *(.debug_typenames)

.debug_varnames
 *(.debug_varnames)

.debug_pubtypes
 *(.debug_pubtypes)

.debug_ranges
 *(.debug_ranges)

.debug_macro
 *(.debug_macro)

.debug_addr
 *(.debug_addr)

.gnu.attributes
                0x0000000000000000       0x10
 *(.gnu.attributes)
 .gnu.attributes
                0x0000000000000000       0x10 build/us_n64/levels/jrb/leveldata.o

.gptab.sdata
 *(.gptab.data)
 *(.gptab.sdata)

.gptab.sbss
 *(.gptab.bss)
 *(.gptab.sbss)

.mdebug.abi32   0x0000000000000000        0x0
 *(.mdebug.abi32)
 .mdebug.abi32  0x0000000000000000        0x0 build/us_n64/levels/jrb/leveldata.o

.mdebug.abiN32
 *(.mdebug.abiN32)

.mdebug.abi64
 *(.mdebug.abi64)

.mdebug.abiO64
 *(.mdebug.abiO64)

.mdebug.eabi32
 *(.mdebug.eabi32)

.mdebug.eabi64
 *(.mdebug.eabi64)

.gcc_compiled_long32
 *(.gcc_compiled_long32)

.gcc_compiled_long64
 *(.gcc_compiled_long64)

/DISCARD/
 *(.note.GNU-stack)
 *(.gnu_debuglink)
 *(.gnu.lto_*)
OUTPUT(build/us_n64/levels/jrb/leveldata.elf elf32-bigmips)
