
Memory Configuration

Name             Origin             Length             Attributes
*default*        0x0000000000000000 0xffffffffffffffff

Linker script and memory map

Address of section .text set to 0x7000000
LOAD build/us_n64/bin/water.elf
LOAD build/us_n64/levels/jrb/leveldata.o
                [!provide]                        PROVIDE (__executable_start = SEGMENT_START ("text-segment", 0x400000))
                0x0000000000400000                . = SEGMENT_START ("text-segment", 0x400000)

.interp
 *(.interp)

.MIPS.abiflags  0x0000000000400000       0x18
 *(.MIPS.abiflags)
 .MIPS.abiflags
                0x0000000000400000       0x18 build/us_n64/levels/jrb/leveldata.o

.reginfo        0x0000000000400018       0x18
 *(.reginfo)
 .reginfo       0x0000000000400018       0x18 build/us_n64/levels/jrb/leveldata.o

.note.gnu.build-id
 *(.note.gnu.build-id)

.dynamic
 *(.dynamic)

.hash
 *(.hash)

.gnu.hash
 *(.gnu.hash)

.dynsym
 *(.dynsym)

.dynstr
 *(.dynstr)

.gnu.version
 *(.gnu.version)

.gnu.version_d
 *(.gnu.version_d)

.gnu.version_r
 *(.gnu.version_r)

.rel.dyn        0x0000000000400018        0x0 load address 0x0000000000400030
 *(.rel.init)
 *(.rel.text .rel.text.* .rel.gnu.linkonce.t.*)
 *(.rel.fini)
 *(.rel.rodata .rel.rodata.* .rel.gnu.linkonce.r.*)
 *(.rel.data.rel.ro .rel.data.rel.ro.* .rel.gnu.linkonce.d.rel.ro.*)
 *(.rel.data .rel.data.* .rel.gnu.linkonce.d.*)
 *(.rel.tdata .rel.tdata.* .rel.gnu.linkonce.td.*)
 *(.rel.tbss .rel.tbss.* .rel.gnu.linkonce.tb.*)
 *(.rel.ctors)
 *(.rel.dtors)
 *(.rel.got)
 *(.rel.dyn)
 .rel.dyn       0x0000000000400018        0x0 build/us_n64/levels/jrb/leveldata.o
 *(.rel.sdata .rel.sdata.* .rel.gnu.linkonce.s.*)
 *(.rel.sbss .rel.sbss.* .rel.gnu.linkonce.sb.*)
 *(.rel.sdata2 .rel.sdata2.* .rel.gnu.linkonce.s2.*)
 *(.rel.sbss2 .rel.sbss2.* .rel.gnu.linkonce.sb2.*)
 *(.rel.bss .rel.bss.* .rel.gnu.linkonce.b.*)
                [!provide]                        PROVIDE (__rel_iplt_start = .)
 *(.rel.iplt)
                [!provide]                        PROVIDE (__rel_iplt_end = .)

.rela.dyn       0x0000000000400018        0x0
 *(.rela.init)
 *(.rela.text .rela.text.* .rela.gnu.linkonce.t.*)
 *(.rela.fini)
 *(.rela.rodata .rela.rodata.* .rela.gnu.linkonce.r.*)
 *(.rela.data .rela.data.* .rela.gnu.linkonce.d.*)
 *(.rela.tdata .rela.tdata.* .rela.gnu.linkonce.td.*)
 *(.rela.tbss .rela.tbss.* .rela.gnu.linkonce.tb.*)
 *(.rela.ctors)
 *(.rela.dtors)
 *(.rela.got)
 *(.rela.sdata .rela.sdata.* .rela.gnu.linkonce.s.*)
 *(.rela.sbss .rela.sbss.* .rela.gnu.linkonce.sb.*)
 *(.rela.sdata2 .rela.sdata2.* .rela.gnu.linkonce.s2.*)
 *(.rela.sbss2 .rela.sbss2.* .rela.gnu.linkonce.sb2.*)
 *(.rela.bss .rela.bss.* .rela.gnu.linkonce.b.*)
                [!provide]                        PROVIDE (__rela_iplt_start = .)
 *(.rela.iplt)
                [!provide]                        PROVIDE (__rela_iplt_end = .)

.rel.plt
 *(.rel.plt)

.rela.plt
 *(.rela.plt)

.init
 *(SORT_NONE(.init))

.plt
 *(.plt)

.iplt
 *(.iplt)

.text           0x0000000007000000        0x0 load address 0x0000000007000018
                0x0000000007000000                _ftext = .
 *(.text.unlikely .text.*_unlikely .text.unlikely.*)
 *(.text.exit .text.exit.*)
 *(.text.startup .text.startup.*)
 *(.text.hot .text.hot.*)
 *(.text .stub .text.* .gnu.linkonce.t.*)
 .text          0x0000000007000000        0x0 build/us_n64/levels/jrb/leveldata.o
 *(.gnu.warning)
 *(.mips16.fn.*)
 *(.mips16.call.*)

.fini
 *(SORT_NONE(.fini))
                [!provide]                        PROVIDE (__etext = .)
                [!provide]                        PROVIDE (_etext = .)
                [!provide]                        PROVIDE (etext = .)

.rodata
 *(.rodata .rodata.* .gnu.linkonce.r.*)

.rodata1
 *(.rodata1)

.sdata2
 *(.sdata2 .sdata2.* .gnu.linkonce.s2.*)

.sbss2
 *(.sbss2 .sbss2.* .gnu.linkonce.sb2.*)

.eh_frame_hdr
 *(.eh_frame_hdr)
 *(.eh_frame_entry .eh_frame_entry.*)

.eh_frame
 *(.eh_frame)
 *(.eh_frame.*)

.gcc_except_table
 *(.gcc_except_table .gcc_except_table.*)

.gnu_extab
 *(.gnu_extab*)

.exception_ranges
 *(.exception_ranges .exception_ranges*)
                0x0000000007000000                . = DATA_SEGMENT_ALIGN (CONSTANT (MAXPAGESIZE), CONSTANT (COMMONPAGESIZE))

.eh_frame
 *(.eh_frame)
 *(.eh_frame.*)

.gnu_extab
 *(.gnu_extab)

.gcc_except_table
 *(.gcc_except_table .gcc_except_table.*)

.exception_ranges
 *(.exception_ranges .exception_ranges*)

.tdata
 *(.tdata .tdata.* .gnu.linkonce.td.*)

.tbss
 *(.tbss .tbss.* .gnu.linkonce.tb.*)
 *(.tcommon)

.preinit_array  0x0000000007000000        0x0
                [!provide]                        PROVIDE (__preinit_array_start = .)
 *(.preinit_array)
                [!provide]                        PROVIDE (__preinit_array_end = .)

.init_array     0x0000000007000000        0x0
                [!provide]                        PROVIDE (__init_array_start = .)
 *(SORT_BY_INIT_PRIORITY(.init_array.*) SORT_BY_INIT_PRIORITY(.ctors.*))
 *(.init_array EXCLUDE_FILE(*crtend?.o *crtend.o *crtbegin?.o *crtbegin.o) .ctors)
                [!provide]                        PROVIDE (__init_array_end = .)

.fini_array     0x0000000007000000        0x0
                [!provide]                        PROVIDE (__fini_array_start = .)
 *(SORT_BY_INIT_PRIORITY(.fini_array.*) SORT_BY_INIT_PRIORITY(.dtors.*))
 *(.fini_array EXCLUDE_FILE(*crtend?.o *crtend.o *crtbegin?.o *crtbegin.o) .dtors)
                [!provide]                        PROVIDE (__fini_array_end = .)

.ctors
 *crtbegin.o(.ctors)
 *crtbegin?.o(.ctors)
 *(EXCLUDE_FILE(*crtend?.o *crtend.o) .ctors)
 *(SORT_BY_NAME(.ctors.*))
 *(.ctors)

.dtors
 *crtbegin.o(.dtors)
 *crtbegin?.o(.dtors)
 *(EXCLUDE_FILE(*crtend?.o *crtend.o) .dtors)
 *(SORT_BY_NAME(.dtors.*))
 *(.dtors)

.jcr
 *(.jcr)

.data.rel.ro
 *(.data.rel.ro.local* .gnu.linkonce.d.rel.ro.local.*)
 *(.data.rel.ro .data.rel.ro.* .gnu.linkonce.d.rel.ro.*)
                0x0000000007000000                . = DATA_SEGMENT_RELRO_END (., 0x0)

.data           0x0000000007000000    0xf9500 load address 0x0000000007000018
                0x0000000007000000                _fdata = .
 *(.data .data.* .gnu.linkonce.d.*)
 .data          0x0000000007000000    0xf9500 build/us_n64/levels/jrb/leveldata.o
                0x0000000007000000                jrb_dl_final_revert_mesh_layer_4
                0x0000000007000040                jrb_dl_final_revert_mesh_layer_5
                0x0000000007000080                jrb_dl_final_revert_mesh_layer_6
                0x00000000070000c0                jrb_dl_final_revert_mesh_layer_1
                0x0000000007000100                jrb_dl_wind_grate_010_mesh_layer_4
                0x0000000007000140                jrb_dl_wind_grate_009_mesh_layer_4
                0x0000000007000180                jrb_dl_wind_grate_008_mesh_layer_4
                0x00000000070001c0                jrb_dl_wind_grate_007_mesh_layer_4
                0x0000000007000200                jrb_dl_wind_grate_006_mesh_layer_4
                0x0000000007000240                jrb_dl_wind_grate_005_mesh_layer_4
                0x0000000007000280                jrb_dl_wind_grate_004_mesh_layer_4
                0x00000000070002c0                jrb_dl_wind_grate_003_mesh_layer_4
                0x0000000007000300                jrb_dl_wind_grate_002_mesh_layer_4
                0x0000000007000340                jrb_dl_wind_grate_001_mesh_layer_4
                0x0000000007000380                jrb_dl_waterfall_mesh_layer_5
                0x00000000070003d8                jrb_dl_wall_002_mesh_layer_1
                0x0000000007000418                jrb_dl_wall_001_mesh_layer_1
                0x0000000007000470                jrb_dl_wall_mesh_layer_1
                0x00000000070004b0                jrb_dl_small_fan_004_mesh_layer_1
                0x0000000007000508                jrb_dl_small_fan_003_mesh_layer_1
                0x0000000007000560                jrb_dl_small_fan_002_mesh_layer_1
                0x00000000070005b8                jrb_dl_small_fan_001_mesh_layer_1
                0x0000000007000610                jrb_dl_SM_Fountain_02_mesh_layer_1
                0x0000000007000680                jrb_dl_rock_016_mesh_layer_1
                0x00000000070006f0                jrb_dl_rock_015_mesh_layer_1
                0x0000000007000760                jrb_dl_rock_014_mesh_layer_1
                0x00000000070007d0                jrb_dl_rock_013_mesh_layer_1
                0x0000000007000840                jrb_dl_rock_012_mesh_layer_1
                0x00000000070008b0                jrb_dl_rock_011_mesh_layer_1
                0x00000000070008f0                jrb_dl_rock_010_mesh_layer_1
                0x0000000007000930                jrb_dl_rock_009_mesh_layer_1
                0x0000000007000970                jrb_dl_rock_008_mesh_layer_1
                0x00000000070009e0                jrb_dl_rock_007_mesh_layer_1
                0x0000000007000a50                jrb_dl_rock_006_mesh_layer_1
                0x0000000007000ac0                jrb_dl_rock_005_mesh_layer_1
                0x0000000007000b00                jrb_dl_rock_004_mesh_layer_1
                0x0000000007000b40                jrb_dl_rock_003_mesh_layer_1
                0x0000000007000b80                jrb_dl_rock_002_mesh_layer_1
                0x0000000007000bc0                jrb_dl_rock_001_mesh_layer_1
                0x0000000007000c00                jrb_dl_rock_mesh_layer_1
                0x0000000007000c40                jrb_dl_render_048_mesh_layer_1
                0x0000000007000c98                jrb_dl_Plane_mesh_layer_6
                0x0000000007000cd8                jrb_dl_pillar_030_mesh_layer_1
                0x0000000007000d18                jrb_dl_pillar_029_mesh_layer_1
                0x0000000007000d58                jrb_dl_pillar_028_mesh_layer_1
                0x0000000007000d98                jrb_dl_pillar_027_mesh_layer_1
                0x0000000007000dd8                jrb_dl_pillar_026_mesh_layer_1
                0x0000000007000e18                jrb_dl_pillar_025_mesh_layer_1
                0x0000000007000e58                jrb_dl_pillar_024_mesh_layer_1
                0x0000000007000e98                jrb_dl_pillar_019_mesh_layer_1
                0x0000000007000ed8                jrb_dl_pillar_014_mesh_layer_1
                0x0000000007000f18                jrb_dl_pillar_013_mesh_layer_1
                0x0000000007000f58                jrb_dl_pillar_012_mesh_layer_1
                0x0000000007000f98                jrb_dl_pillar_011_mesh_layer_1
                0x0000000007000fd8                jrb_dl_pillar_010_mesh_layer_1
                0x0000000007001018                jrb_dl_pillar_009_mesh_layer_1
                0x0000000007001058                jrb_dl_pillar_008_mesh_layer_1
                0x0000000007001098                jrb_dl_pillar_007_mesh_layer_1
                0x00000000070010d8                jrb_dl_pillar_006_mesh_layer_1
                0x0000000007001118                jrb_dl_pillar_005_mesh_layer_1
                0x0000000007001158                jrb_dl_pillar_004_mesh_layer_1
                0x0000000007001198                jrb_dl_pillar_003_mesh_layer_1
                0x00000000070011d8                jrb_dl_pillar_002_mesh_layer_1
                0x0000000007001218                jrb_dl_pillar_001_mesh_layer_1
                0x0000000007001258                jrb_dl_pillar_mesh_layer_1
                0x00000000070012c8                jrb_dl_path_002_mesh_layer_6
                0x0000000007001308                jrb_dl_path_001_mesh_layer_6
                0x0000000007001348                jrb_dl_path_mesh_layer_6
                0x0000000007001388                jrb_dl_mossy_stone_019_mesh_layer_1
                0x00000000070013c8                jrb_dl_mossy_stone_018_mesh_layer_1
                0x0000000007001408                jrb_dl_mossy_stone_017_mesh_layer_1
                0x0000000007001448                jrb_dl_mossy_stone_016_mesh_layer_1
                0x0000000007001488                jrb_dl_mossy_stone_015_mesh_layer_1
                0x00000000070014c8                jrb_dl_mossy_stone_014_mesh_layer_1
                0x0000000007001508                jrb_dl_mossy_stone_013_mesh_layer_1
                0x0000000007001548                jrb_dl_mossy_stone_012_mesh_layer_1
                0x0000000007001588                jrb_dl_mossy_stone_011_mesh_layer_1
                0x00000000070015c8                jrb_dl_mossy_stone_010_mesh_layer_1
                0x0000000007001608                jrb_dl_mossy_stone_009_mesh_layer_1
                0x0000000007001648                jrb_dl_mossy_stone_008_mesh_layer_1
                0x0000000007001688                jrb_dl_mossy_stone_007_mesh_layer_1
                0x00000000070016c8                jrb_dl_mossy_stone_006_mesh_layer_1
                0x0000000007001708                jrb_dl_mossy_stone_005_mesh_layer_1
                0x0000000007001748                jrb_dl_mossy_stone_004_mesh_layer_1
                0x0000000007001788                jrb_dl_mossy_stone_003_mesh_layer_1
                0x00000000070017c8                jrb_dl_mossy_stone_002_mesh_layer_1
                0x0000000007001808                jrb_dl_mossy_stone_001_mesh_layer_1
                0x0000000007001848                jrb_dl_mossy_stone_mesh_layer_1
                0x0000000007001888                jrb_dl_Mesh_Owl_mesh_layer_1
                0x00000000070018c8                jrb_dl_massive_pillar_003_mesh_layer_4
                0x0000000007001908                jrb_dl_massive_pillar_mesh_layer_1
                0x00000000070019c0                jrb_dl_Icosphere_015_mesh_layer_1
                0x0000000007001a00                jrb_dl_Icosphere_009_mesh_layer_1
                0x0000000007001a40                jrb_dl_Icosphere_008_mesh_layer_1
                0x0000000007001a80                jrb_dl_Icosphere_007_mesh_layer_1
                0x0000000007001ac0                jrb_dl_Icosphere_006_mesh_layer_1
                0x0000000007001b00                jrb_dl_Icosphere_005_mesh_layer_1
                0x0000000007001b40                jrb_dl_Icosphere_004_mesh_layer_1
                0x0000000007001b80                jrb_dl_Icosphere_003_mesh_layer_1
                0x0000000007001bc0                jrb_dl_Icosphere_002_mesh_layer_1
                0x0000000007001c00                jrb_dl_Icosphere_001_mesh_layer_1
                0x0000000007001c40                jrb_dl_Houses_SecondAge_3_Level1_004_mesh_layer_1
                0x0000000007001ce0                jrb_dl_Houses_SecondAge_3_Level1_003_mesh_layer_1
                0x0000000007001d80                jrb_dl_Houses_SecondAge_3_Level1_002_mesh_layer_1
                0x0000000007001e20                jrb_dl_Houses_SecondAge_3_Level1_001_mesh_layer_1
                0x0000000007001ec0                jrb_dl_Houses_SecondAge_3_Level1_mesh_layer_1
                0x0000000007001f60                jrb_dl_Houses_SecondAge_1_Level1_001_mesh_layer_1
                0x0000000007002000                jrb_dl_flowers_003_mesh_layer_5
                0x0000000007002040                jrb_dl_flowers_003_mesh_layer_4
                0x0000000007002080                jrb_dl_flowers_002_mesh_layer_5
                0x00000000070020c0                jrb_dl_flowers_002_mesh_layer_4
                0x0000000007002100                jrb_dl_flowers_001_mesh_layer_5
                0x0000000007002140                jrb_dl_flowers_001_mesh_layer_4
                0x0000000007002180                jrb_dl_flowers_mesh_layer_5
                0x00000000070021c0                jrb_dl_flowers_mesh_layer_4
                0x0000000007002200                jrb_dl_death_plane_mesh_layer_1
                0x0000000007002240                jrb_dl_Cylinder_006_mesh_layer_1
                0x00000000070022b0                jrb_dl_Cylinder_005_mesh_layer_1
                0x0000000007002308                jrb_dl_Cylinder_004_mesh_layer_1
                0x0000000007002360                jrb_dl_Cylinder_003_mesh_layer_1
                0x00000000070023b8                jrb_dl_Cylinder_002_mesh_layer_1
                0x0000000007002410                jrb_dl_Cylinder_001_mesh_layer_6
                0x0000000007002450                jrb_dl_Cylinder_mesh_layer_1
                0x00000000070024c0                jrb_dl_Cube_069_mesh_layer_6
                0x0000000007002500                jrb_dl_Cube_068_mesh_layer_6
                0x0000000007002540                jrb_dl_Cube_067_mesh_layer_6
                0x0000000007002580                jrb_dl_Cube_066_mesh_layer_6
                0x00000000070025c0                jrb_dl_Cube_065_mesh_layer_6
                0x0000000007002600                jrb_dl_Cube_064_mesh_layer_1
                0x00000000070026b8                jrb_dl_Cube_063_mesh_layer_6
                0x00000000070026f8                jrb_dl_Cube_062_mesh_layer_1
                0x0000000007002738                jrb_dl_Cube_061_mesh_layer_6
                0x0000000007002778                jrb_dl_Cube_060_mesh_layer_6
                0x00000000070027b8                jrb_dl_Cube_059_mesh_layer_6
                0x00000000070027f8                jrb_dl_Cube_058_mesh_layer_1
                0x0000000007002838                jrb_dl_Cube_057_mesh_layer_6
                0x0000000007002878                jrb_dl_Cube_056_mesh_layer_1
                0x00000000070028d0                jrb_dl_Cube_055_mesh_layer_1
                0x0000000007002910                jrb_dl_Cube_054_mesh_layer_6
                0x0000000007002950                jrb_dl_Cube_053_mesh_layer_6
                0x0000000007002990                jrb_dl_Cube_051_mesh_layer_1
                0x00000000070029d0                jrb_dl_Cube_050_mesh_layer_1
                0x0000000007002a28                jrb_dl_Cube_049_mesh_layer_1
                0x0000000007002a80                jrb_dl_Cube_048_mesh_layer_1
                0x0000000007002ac0                jrb_dl_Cube_047_mesh_layer_1
                0x0000000007002b00                jrb_dl_Cube_046_mesh_layer_6
                0x0000000007002b40                jrb_dl_Cube_045_mesh_layer_1
                0x0000000007002b98                jrb_dl_Cube_044_mesh_layer_1
                0x0000000007002bf0                jrb_dl_Cube_043_mesh_layer_1
                0x0000000007002c30                jrb_dl_Cube_042_mesh_layer_1
                0x0000000007002c88                jrb_dl_Cube_041_mesh_layer_1
                0x0000000007002cc8                jrb_dl_Cube_040_mesh_layer_1
                0x0000000007002d08                jrb_dl_Cube_039_mesh_layer_1
                0x0000000007002d48                jrb_dl_Cube_038_mesh_layer_5
                0x0000000007002d88                jrb_dl_Cube_037_mesh_layer_1
                0x0000000007002dc8                jrb_dl_Cube_036_mesh_layer_1
                0x0000000007002e20                jrb_dl_Cube_035_mesh_layer_5
                0x0000000007002e60                jrb_dl_Cube_035_mesh_layer_4
                0x0000000007002ea0                jrb_dl_Cube_035_mesh_layer_1
                0x0000000007002fb8                jrb_dl_Cube_034_mesh_layer_1
                0x0000000007003010                jrb_dl_Cube_033_mesh_layer_6
                0x0000000007003050                jrb_dl_Cube_032_mesh_layer_1
                0x0000000007003090                jrb_dl_Cube_031_mesh_layer_1
                0x00000000070030e8                jrb_dl_Cube_030_mesh_layer_1
                0x0000000007003128                jrb_dl_Cube_029_mesh_layer_1
                0x0000000007003168                jrb_dl_Cube_028_mesh_layer_1
                0x00000000070031a8                jrb_dl_Cube_027_mesh_layer_6
                0x00000000070031e8                jrb_dl_Cube_026_mesh_layer_1
                0x0000000007003240                jrb_dl_Cube_024_mesh_layer_1
                0x0000000007003298                jrb_dl_Cube_023_mesh_layer_5
                0x00000000070032d8                jrb_dl_Cube_022_mesh_layer_6
                0x0000000007003318                jrb_dl_Cube_021_mesh_layer_1
                0x0000000007003370                jrb_dl_Cube_020_mesh_layer_5
                0x00000000070033b0                jrb_dl_Cube_019_mesh_layer_1
                0x0000000007003438                jrb_dl_Cube_018_mesh_layer_5
                0x0000000007003490                jrb_dl_Cube_017_mesh_layer_1
                0x00000000070034d0                jrb_dl_Cube_016_mesh_layer_1
                0x0000000007003510                jrb_dl_Cube_015_mesh_layer_1
                0x0000000007003568                jrb_dl_Cube_014_mesh_layer_1
                0x00000000070035a8                jrb_dl_Cube_013_mesh_layer_1
                0x0000000007003648                jrb_dl_Cube_012_mesh_layer_1
                0x00000000070036a0                jrb_dl_Cube_011_mesh_layer_1
                0x00000000070036e0                jrb_dl_Cube_010_mesh_layer_5
                0x0000000007003720                jrb_dl_Cube_009_mesh_layer_1
                0x0000000007003760                jrb_dl_Cube_008_mesh_layer_5
                0x00000000070037a0                jrb_dl_Cube_007_mesh_layer_1
                0x00000000070037e0                jrb_dl_Cube_006_mesh_layer_1
                0x0000000007003820                jrb_dl_Cube_005_mesh_layer_1
                0x0000000007003860                jrb_dl_Cube_004_mesh_layer_1
                0x00000000070038a0                jrb_dl_Cube_003_mesh_layer_1
                0x00000000070038e0                jrb_dl_Cube_002_mesh_layer_1
                0x0000000007003920                jrb_dl_Cube_001_mesh_layer_5
                0x0000000007003960                jrb_dl_Cube_mesh_layer_1
                0x0000000007003a00                jrb_dl_bridge_mesh_layer_1
                0x0000000007003a40                jrb_dl_Alpha_002_mesh_layer_6
                0x0000000007003a80                jrb_dl_Alpha_001_mesh_layer_6
                0x0000000007003ac0                jrb_dl_Alpha_mesh_layer_1
                0x0000000007003b30                mat_revert_jrb_dl_greate_wind
                0x0000000007003b58                mat_jrb_dl_greate_wind
                0x0000000007003bf0                mat_revert_jrb_dl_metal_2
                0x0000000007003c10                mat_jrb_dl_metal_2
                0x0000000007003ca0                mat_revert_jrb_dl_flowers_002
                0x0000000007003cc8                mat_jrb_dl_flowers_002
                0x0000000007003d60                mat_revert_jrb_dl_bricks_001
                0x0000000007003d80                mat_jrb_dl_bricks_001
                0x0000000007003e10                mat_revert_jrb_dl_flowers
                0x0000000007003e38                mat_jrb_dl_flowers
                0x0000000007003ed0                mat_revert_jrb_dl_f3dlite_material_004
                0x0000000007003ee8                mat_jrb_dl_f3dlite_material_004
                0x0000000007003f58                mat_revert_jrb_dl_hay
                0x0000000007003f78                mat_jrb_dl_hay
                0x0000000007004008                mat_revert_jrb_dl_swirl
                0x0000000007004028                mat_jrb_dl_swirl
                0x00000000070040b8                mat_revert_jrb_dl_picnic
                0x00000000070040d8                mat_jrb_dl_picnic
                0x0000000007004168                mat_revert_jrb_dl_tree_rings
                0x0000000007004188                mat_jrb_dl_tree_rings
                0x0000000007004218                mat_revert_jrb_dl_bark
                0x0000000007004238                mat_jrb_dl_bark
                0x00000000070042c8                mat_revert_jrb_dl_water_bottom
                0x00000000070042e0                mat_jrb_dl_water_bottom
                0x0000000007004328                mat_revert_jrb_dl_death
                0x0000000007004348                mat_jrb_dl_death
                0x00000000070043d8                mat_revert_jrb_dl_stone_star_002
                0x00000000070043f8                mat_jrb_dl_stone_star_002
                0x0000000007004488                mat_revert_jrb_dl_caution
                0x00000000070044a8                mat_jrb_dl_caution
                0x0000000007004538                mat_revert_jrb_dl_light
                0x0000000007004560                mat_jrb_dl_light
                0x0000000007004600                mat_revert_jrb_dl_old_checker
                0x0000000007004620                mat_jrb_dl_old_checker
                0x00000000070046b0                mat_revert_jrb_dl_f3dlite_material
                0x00000000070046d0                mat_jrb_dl_f3dlite_material
                0x0000000007004760                mat_revert_jrb_dl_metal_1
                0x0000000007004780                mat_jrb_dl_metal_1
                0x0000000007004810                mat_revert_jrb_dl_gold
                0x0000000007004830                mat_jrb_dl_gold
                0x00000000070048c0                mat_revert_jrb_dl_white_bevel
                0x00000000070048e8                mat_jrb_dl_white_bevel
                0x0000000007004980                mat_revert_jrb_dl_f3dlite_material_001
                0x00000000070049a0                mat_jrb_dl_f3dlite_material_001
                0x0000000007004a30                mat_revert_jrb_dl_f3dlite_material_003
                0x0000000007004a50                mat_jrb_dl_f3dlite_material_003
                0x0000000007004ae0                mat_revert_jrb_dl_invisible
                0x0000000007004b00                mat_jrb_dl_invisible
                0x0000000007004b80                mat_revert_jrb_dl_fake_water
                0x0000000007004ba8                mat_jrb_dl_fake_water
                0x0000000007004c48                mat_revert_jrb_dl_f3dlite_material_002
                0x0000000007004c68                mat_jrb_dl_f3dlite_material_002
                0x0000000007004cf8                mat_revert_jrb_dl_mossy_stone
                0x0000000007004d18                mat_jrb_dl_mossy_stone
                0x0000000007004da8                mat_revert_jrb_dl_fast_water
                0x0000000007004dc8                mat_jrb_dl_fast_water
                0x0000000007004e58                mat_revert_jrb_dl_moving_water
                0x0000000007004e78                mat_jrb_dl_moving_water
                0x0000000007004f08                mat_revert_jrb_dl_old_stone
                0x0000000007004f28                mat_jrb_dl_old_stone
                0x0000000007004fb8                mat_revert_jrb_dl_bark_small
                0x0000000007004fd8                mat_jrb_dl_bark_small
                0x0000000007005068                mat_revert_jrb_dl_black
                0x0000000007005080                mat_jrb_dl_black
                0x00000000070050c8                mat_revert_jrb_dl_rock
                0x00000000070050e8                mat_jrb_dl_rock
                0x0000000007005178                mat_revert_jrb_dl_stone_star
                0x0000000007005198                mat_jrb_dl_stone_star
                0x0000000007005228                mat_revert_jrb_dl_water
                0x0000000007005250                mat_jrb_dl_water
                0x00000000070052f0                mat_revert_jrb_dl_shingles
                0x0000000007005310                mat_jrb_dl_shingles
                0x00000000070053a0                mat_revert_jrb_dl_wood
                0x00000000070053c0                mat_jrb_dl_wood
                0x0000000007005450                mat_revert_jrb_dl_wood2
                0x0000000007005470                mat_jrb_dl_wood2
                0x0000000007005500                mat_revert_jrb_dl_interior
                0x0000000007005520                mat_jrb_dl_interior
                0x00000000070055b0                mat_revert_jrb_dl_bricks
                0x00000000070055d0                mat_jrb_dl_bricks
                0x0000000007005660                mat_revert_jrb_dl_dirt
                0x0000000007005680                mat_jrb_dl_dirt
                0x0000000007005710                mat_revert_jrb_dl_stone_path
                0x0000000007005728                mat_jrb_dl_stone_path
                0x0000000007005798                mat_revert_jrb_dl_dirt2
                0x00000000070057b8                mat_jrb_dl_dirt2
                0x0000000007005848                mat_revert_jrb_dl_dirt_with_grass
                0x0000000007005868                mat_jrb_dl_dirt_with_grass
                0x00000000070058f8                mat_revert_jrb_dl_grass
                0x0000000007005918                mat_jrb_dl_grass
                0x00000000070059a8                jrb_dl_wind_grate_010_mesh_layer_4_tri_0
                0x00000000070059c0                jrb_dl_wind_grate_010_mesh_layer_4_vtx_0
                0x0000000007005a00                jrb_dl_wind_grate_010_mesh_layer_4_vtx_cull
                0x0000000007005a80                jrb_dl_wind_grate_009_mesh_layer_4_tri_0
                0x0000000007005a98                jrb_dl_wind_grate_009_mesh_layer_4_vtx_0
                0x0000000007005ad8                jrb_dl_wind_grate_009_mesh_layer_4_vtx_cull
                0x0000000007005b58                jrb_dl_wind_grate_008_mesh_layer_4_tri_0
                0x0000000007005b70                jrb_dl_wind_grate_008_mesh_layer_4_vtx_0
                0x0000000007005bb0                jrb_dl_wind_grate_008_mesh_layer_4_vtx_cull
                0x0000000007005c30                jrb_dl_wind_grate_007_mesh_layer_4_tri_0
                0x0000000007005c48                jrb_dl_wind_grate_007_mesh_layer_4_vtx_0
                0x0000000007005c88                jrb_dl_wind_grate_007_mesh_layer_4_vtx_cull
                0x0000000007005d08                jrb_dl_wind_grate_006_mesh_layer_4_tri_0
                0x0000000007005d48                jrb_dl_wind_grate_006_mesh_layer_4_vtx_0
                0x0000000007005ec8                jrb_dl_wind_grate_006_mesh_layer_4_vtx_cull
                0x0000000007005f48                jrb_dl_wind_grate_005_mesh_layer_4_tri_0
                0x0000000007005f60                jrb_dl_wind_grate_005_mesh_layer_4_vtx_0
                0x0000000007005fa0                jrb_dl_wind_grate_005_mesh_layer_4_vtx_cull
                0x0000000007006020                jrb_dl_wind_grate_004_mesh_layer_4_tri_0
                0x0000000007006038                jrb_dl_wind_grate_004_mesh_layer_4_vtx_0
                0x0000000007006078                jrb_dl_wind_grate_004_mesh_layer_4_vtx_cull
                0x00000000070060f8                jrb_dl_wind_grate_003_mesh_layer_4_tri_0
                0x0000000007006110                jrb_dl_wind_grate_003_mesh_layer_4_vtx_0
                0x0000000007006150                jrb_dl_wind_grate_003_mesh_layer_4_vtx_cull
                0x00000000070061d0                jrb_dl_wind_grate_002_mesh_layer_4_tri_0
                0x00000000070061e8                jrb_dl_wind_grate_002_mesh_layer_4_vtx_0
                0x0000000007006228                jrb_dl_wind_grate_002_mesh_layer_4_vtx_cull
                0x00000000070062a8                jrb_dl_wind_grate_001_mesh_layer_4_tri_0
                0x00000000070062c0                jrb_dl_wind_grate_001_mesh_layer_4_vtx_0
                0x0000000007006300                jrb_dl_wind_grate_001_mesh_layer_4_vtx_cull
                0x0000000007006380                jrb_dl_waterfall_mesh_layer_5_tri_1
                0x0000000007006398                jrb_dl_waterfall_mesh_layer_5_vtx_1
                0x00000000070063d8                jrb_dl_waterfall_mesh_layer_5_tri_0
                0x0000000007006458                jrb_dl_waterfall_mesh_layer_5_vtx_0
                0x0000000007006778                jrb_dl_waterfall_mesh_layer_5_vtx_cull
                0x00000000070067f8                jrb_dl_wall_002_mesh_layer_1_tri_0
                0x0000000007006888                jrb_dl_wall_002_mesh_layer_1_vtx_0
                0x0000000007006ba8                jrb_dl_wall_002_mesh_layer_1_vtx_cull
                0x0000000007006c28                jrb_dl_wall_001_mesh_layer_1_tri_1
                0x0000000007006c48                jrb_dl_wall_001_mesh_layer_1_vtx_1
                0x0000000007006ce8                jrb_dl_wall_001_mesh_layer_1_tri_0
                0x0000000007006e90                jrb_dl_wall_001_mesh_layer_1_vtx_0
                0x0000000007007760                jrb_dl_wall_001_mesh_layer_1_vtx_cull
                0x00000000070077e0                jrb_dl_wall_mesh_layer_1_tri_0
                0x0000000007007868                jrb_dl_wall_mesh_layer_1_vtx_0
                0x0000000007007b68                jrb_dl_wall_mesh_layer_1_vtx_cull
                0x0000000007007be8                jrb_dl_small_fan_004_mesh_layer_1_tri_1
                0x0000000007007c28                jrb_dl_small_fan_004_mesh_layer_1_vtx_1
                0x0000000007007da8                jrb_dl_small_fan_004_mesh_layer_1_tri_0
                0x0000000007007e20                jrb_dl_small_fan_004_mesh_layer_1_vtx_0
                0x0000000007008120                jrb_dl_small_fan_004_mesh_layer_1_vtx_cull
                0x00000000070081a0                jrb_dl_small_fan_003_mesh_layer_1_tri_1
                0x00000000070081e0                jrb_dl_small_fan_003_mesh_layer_1_vtx_1
                0x0000000007008360                jrb_dl_small_fan_003_mesh_layer_1_tri_0
                0x00000000070083d8                jrb_dl_small_fan_003_mesh_layer_1_vtx_0
                0x00000000070086d8                jrb_dl_small_fan_003_mesh_layer_1_vtx_cull
                0x0000000007008758                jrb_dl_small_fan_002_mesh_layer_1_tri_1
                0x0000000007008798                jrb_dl_small_fan_002_mesh_layer_1_vtx_1
                0x0000000007008918                jrb_dl_small_fan_002_mesh_layer_1_tri_0
                0x0000000007008990                jrb_dl_small_fan_002_mesh_layer_1_vtx_0
                0x0000000007008c90                jrb_dl_small_fan_002_mesh_layer_1_vtx_cull
                0x0000000007008d10                jrb_dl_small_fan_001_mesh_layer_1_tri_1
                0x0000000007008d50                jrb_dl_small_fan_001_mesh_layer_1_vtx_1
                0x0000000007008ed0                jrb_dl_small_fan_001_mesh_layer_1_tri_0
                0x0000000007008f48                jrb_dl_small_fan_001_mesh_layer_1_vtx_0
                0x0000000007009248                jrb_dl_small_fan_001_mesh_layer_1_vtx_cull
                0x00000000070092c8                jrb_dl_SM_Fountain_02_mesh_layer_1_tri_2
                0x00000000070095e0                jrb_dl_SM_Fountain_02_mesh_layer_1_vtx_2
                0x000000000700ab50                jrb_dl_SM_Fountain_02_mesh_layer_1_tri_1
                0x000000000700ac88                jrb_dl_SM_Fountain_02_mesh_layer_1_vtx_1
                0x000000000700b688                jrb_dl_SM_Fountain_02_mesh_layer_1_tri_0
                0x000000000700c810                jrb_dl_SM_Fountain_02_mesh_layer_1_vtx_0
                0x0000000007014330                jrb_dl_SM_Fountain_02_mesh_layer_1_vtx_cull
                0x00000000070143b0                jrb_dl_rock_016_mesh_layer_1_tri_2
                0x0000000007014400                jrb_dl_rock_016_mesh_layer_1_vtx_2
                0x0000000007014600                jrb_dl_rock_016_mesh_layer_1_tri_1
                0x0000000007014630                jrb_dl_rock_016_mesh_layer_1_vtx_1
                0x0000000007014700                jrb_dl_rock_016_mesh_layer_1_tri_0
                0x00000000070147c0                jrb_dl_rock_016_mesh_layer_1_vtx_0
                0x0000000007014cc0                jrb_dl_rock_016_mesh_layer_1_vtx_cull
                0x0000000007014d40                jrb_dl_rock_015_mesh_layer_1_tri_2
                0x0000000007014d90                jrb_dl_rock_015_mesh_layer_1_vtx_2
                0x0000000007014f90                jrb_dl_rock_015_mesh_layer_1_tri_1
                0x0000000007014fc0                jrb_dl_rock_015_mesh_layer_1_vtx_1
                0x0000000007015090                jrb_dl_rock_015_mesh_layer_1_tri_0
                0x0000000007015150                jrb_dl_rock_015_mesh_layer_1_vtx_0
                0x0000000007015650                jrb_dl_rock_015_mesh_layer_1_vtx_cull
                0x00000000070156d0                jrb_dl_rock_014_mesh_layer_1_tri_2
                0x0000000007015720                jrb_dl_rock_014_mesh_layer_1_vtx_2
                0x0000000007015920                jrb_dl_rock_014_mesh_layer_1_tri_1
                0x0000000007015950                jrb_dl_rock_014_mesh_layer_1_vtx_1
                0x0000000007015a10                jrb_dl_rock_014_mesh_layer_1_tri_0
                0x0000000007015ad0                jrb_dl_rock_014_mesh_layer_1_vtx_0
                0x0000000007015fd0                jrb_dl_rock_014_mesh_layer_1_vtx_cull
                0x0000000007016050                jrb_dl_rock_013_mesh_layer_1_tri_2
                0x00000000070160a0                jrb_dl_rock_013_mesh_layer_1_vtx_2
                0x00000000070162a0                jrb_dl_rock_013_mesh_layer_1_tri_1
                0x00000000070162d0                jrb_dl_rock_013_mesh_layer_1_vtx_1
                0x0000000007016390                jrb_dl_rock_013_mesh_layer_1_tri_0
                0x0000000007016450                jrb_dl_rock_013_mesh_layer_1_vtx_0
                0x0000000007016950                jrb_dl_rock_013_mesh_layer_1_vtx_cull
                0x00000000070169d0                jrb_dl_rock_012_mesh_layer_1_tri_2
                0x0000000007016a20                jrb_dl_rock_012_mesh_layer_1_vtx_2
                0x0000000007016c20                jrb_dl_rock_012_mesh_layer_1_tri_1
                0x0000000007016c50                jrb_dl_rock_012_mesh_layer_1_vtx_1
                0x0000000007016d10                jrb_dl_rock_012_mesh_layer_1_tri_0
                0x0000000007016dd0                jrb_dl_rock_012_mesh_layer_1_vtx_0
                0x00000000070172d0                jrb_dl_rock_012_mesh_layer_1_vtx_cull
                0x0000000007017350                jrb_dl_rock_011_mesh_layer_1_tri_0
                0x0000000007017438                jrb_dl_rock_011_mesh_layer_1_vtx_0
                0x0000000007017998                jrb_dl_rock_011_mesh_layer_1_vtx_cull
                0x0000000007017a18                jrb_dl_rock_010_mesh_layer_1_tri_0
                0x0000000007017b00                jrb_dl_rock_010_mesh_layer_1_vtx_0
                0x0000000007018060                jrb_dl_rock_010_mesh_layer_1_vtx_cull
                0x00000000070180e0                jrb_dl_rock_009_mesh_layer_1_tri_0
                0x00000000070181c8                jrb_dl_rock_009_mesh_layer_1_vtx_0
                0x0000000007018728                jrb_dl_rock_009_mesh_layer_1_vtx_cull
                0x00000000070187a8                jrb_dl_rock_008_mesh_layer_1_tri_2
                0x00000000070187f8                jrb_dl_rock_008_mesh_layer_1_vtx_2
                0x00000000070189f8                jrb_dl_rock_008_mesh_layer_1_tri_1
                0x0000000007018a28                jrb_dl_rock_008_mesh_layer_1_vtx_1
                0x0000000007018ae8                jrb_dl_rock_008_mesh_layer_1_tri_0
                0x0000000007018ba8                jrb_dl_rock_008_mesh_layer_1_vtx_0
                0x00000000070190a8                jrb_dl_rock_008_mesh_layer_1_vtx_cull
                0x0000000007019128                jrb_dl_rock_007_mesh_layer_1_tri_2
                0x0000000007019178                jrb_dl_rock_007_mesh_layer_1_vtx_2
                0x0000000007019378                jrb_dl_rock_007_mesh_layer_1_tri_1
                0x00000000070193a8                jrb_dl_rock_007_mesh_layer_1_vtx_1
                0x0000000007019478                jrb_dl_rock_007_mesh_layer_1_tri_0
                0x0000000007019538                jrb_dl_rock_007_mesh_layer_1_vtx_0
                0x0000000007019a38                jrb_dl_rock_007_mesh_layer_1_vtx_cull
                0x0000000007019ab8                jrb_dl_rock_006_mesh_layer_1_tri_2
                0x0000000007019b08                jrb_dl_rock_006_mesh_layer_1_vtx_2
                0x0000000007019d08                jrb_dl_rock_006_mesh_layer_1_tri_1
                0x0000000007019d38                jrb_dl_rock_006_mesh_layer_1_vtx_1
                0x0000000007019df8                jrb_dl_rock_006_mesh_layer_1_tri_0
                0x0000000007019eb8                jrb_dl_rock_006_mesh_layer_1_vtx_0
                0x000000000701a3b8                jrb_dl_rock_006_mesh_layer_1_vtx_cull
                0x000000000701a438                jrb_dl_rock_005_mesh_layer_1_tri_0
                0x000000000701a520                jrb_dl_rock_005_mesh_layer_1_vtx_0
                0x000000000701aa80                jrb_dl_rock_005_mesh_layer_1_vtx_cull
                0x000000000701ab00                jrb_dl_rock_004_mesh_layer_1_tri_0
                0x000000000701abe8                jrb_dl_rock_004_mesh_layer_1_vtx_0
                0x000000000701b148                jrb_dl_rock_004_mesh_layer_1_vtx_cull
                0x000000000701b1c8                jrb_dl_rock_003_mesh_layer_1_tri_0
                0x000000000701b2b0                jrb_dl_rock_003_mesh_layer_1_vtx_0
                0x000000000701b810                jrb_dl_rock_003_mesh_layer_1_vtx_cull
                0x000000000701b890                jrb_dl_rock_002_mesh_layer_1_tri_0
                0x000000000701b978                jrb_dl_rock_002_mesh_layer_1_vtx_0
                0x000000000701bed8                jrb_dl_rock_002_mesh_layer_1_vtx_cull
                0x000000000701bf58                jrb_dl_rock_001_mesh_layer_1_tri_0
                0x000000000701c040                jrb_dl_rock_001_mesh_layer_1_vtx_0
                0x000000000701c5a0                jrb_dl_rock_001_mesh_layer_1_vtx_cull
                0x000000000701c620                jrb_dl_rock_mesh_layer_1_tri_0
                0x000000000701c708                jrb_dl_rock_mesh_layer_1_vtx_0
                0x000000000701cc68                jrb_dl_rock_mesh_layer_1_vtx_cull
                0x000000000701cce8                jrb_dl_render_048_mesh_layer_1_tri_1
                0x000000000701ce50                jrb_dl_render_048_mesh_layer_1_vtx_1
                0x000000000701d650                jrb_dl_render_048_mesh_layer_1_tri_0
                0x000000000701d678                jrb_dl_render_048_mesh_layer_1_vtx_0
                0x000000000701d6f8                jrb_dl_render_048_mesh_layer_1_vtx_cull
                0x000000000701d778                jrb_dl_Plane_mesh_layer_6_tri_0
                0x000000000701d7b0                jrb_dl_Plane_mesh_layer_6_vtx_0
                0x000000000701d830                jrb_dl_Plane_mesh_layer_6_vtx_cull
                0x000000000701d8b0                jrb_dl_pillar_030_mesh_layer_1_tri_0
                0x000000000701d8f0                jrb_dl_pillar_030_mesh_layer_1_vtx_0
                0x000000000701da70                jrb_dl_pillar_030_mesh_layer_1_vtx_cull
                0x000000000701daf0                jrb_dl_pillar_029_mesh_layer_1_tri_0
                0x000000000701db30                jrb_dl_pillar_029_mesh_layer_1_vtx_0
                0x000000000701dcb0                jrb_dl_pillar_029_mesh_layer_1_vtx_cull
                0x000000000701dd30                jrb_dl_pillar_028_mesh_layer_1_tri_0
                0x000000000701dd70                jrb_dl_pillar_028_mesh_layer_1_vtx_0
                0x000000000701def0                jrb_dl_pillar_028_mesh_layer_1_vtx_cull
                0x000000000701df70                jrb_dl_pillar_027_mesh_layer_1_tri_0
                0x000000000701dfb0                jrb_dl_pillar_027_mesh_layer_1_vtx_0
                0x000000000701e130                jrb_dl_pillar_027_mesh_layer_1_vtx_cull
                0x000000000701e1b0                jrb_dl_pillar_026_mesh_layer_1_tri_0
                0x000000000701e1f0                jrb_dl_pillar_026_mesh_layer_1_vtx_0
                0x000000000701e370                jrb_dl_pillar_026_mesh_layer_1_vtx_cull
                0x000000000701e3f0                jrb_dl_pillar_025_mesh_layer_1_tri_0
                0x000000000701e430                jrb_dl_pillar_025_mesh_layer_1_vtx_0
                0x000000000701e5b0                jrb_dl_pillar_025_mesh_layer_1_vtx_cull
                0x000000000701e630                jrb_dl_pillar_024_mesh_layer_1_tri_0
                0x000000000701e670                jrb_dl_pillar_024_mesh_layer_1_vtx_0
                0x000000000701e7f0                jrb_dl_pillar_024_mesh_layer_1_vtx_cull
                0x000000000701e870                jrb_dl_pillar_019_mesh_layer_1_tri_0
                0x000000000701e8b0                jrb_dl_pillar_019_mesh_layer_1_vtx_0
                0x000000000701ea30                jrb_dl_pillar_019_mesh_layer_1_vtx_cull
                0x000000000701eab0                jrb_dl_pillar_014_mesh_layer_1_tri_0
                0x000000000701eaf0                jrb_dl_pillar_014_mesh_layer_1_vtx_0
                0x000000000701ec70                jrb_dl_pillar_014_mesh_layer_1_vtx_cull
                0x000000000701ecf0                jrb_dl_pillar_013_mesh_layer_1_tri_0
                0x000000000701ed30                jrb_dl_pillar_013_mesh_layer_1_vtx_0
                0x000000000701eeb0                jrb_dl_pillar_013_mesh_layer_1_vtx_cull
                0x000000000701ef30                jrb_dl_pillar_012_mesh_layer_1_tri_0
                0x000000000701ef70                jrb_dl_pillar_012_mesh_layer_1_vtx_0
                0x000000000701f0f0                jrb_dl_pillar_012_mesh_layer_1_vtx_cull
                0x000000000701f170                jrb_dl_pillar_011_mesh_layer_1_tri_0
                0x000000000701f1b0                jrb_dl_pillar_011_mesh_layer_1_vtx_0
                0x000000000701f330                jrb_dl_pillar_011_mesh_layer_1_vtx_cull
                0x000000000701f3b0                jrb_dl_pillar_010_mesh_layer_1_tri_0
                0x000000000701f3f0                jrb_dl_pillar_010_mesh_layer_1_vtx_0
                0x000000000701f570                jrb_dl_pillar_010_mesh_layer_1_vtx_cull
                0x000000000701f5f0                jrb_dl_pillar_009_mesh_layer_1_tri_0
                0x000000000701f630                jrb_dl_pillar_009_mesh_layer_1_vtx_0
                0x000000000701f7b0                jrb_dl_pillar_009_mesh_layer_1_vtx_cull
                0x000000000701f830                jrb_dl_pillar_008_mesh_layer_1_tri_0
                0x000000000701f870                jrb_dl_pillar_008_mesh_layer_1_vtx_0
                0x000000000701f9f0                jrb_dl_pillar_008_mesh_layer_1_vtx_cull
                0x000000000701fa70                jrb_dl_pillar_007_mesh_layer_1_tri_0
                0x000000000701fab0                jrb_dl_pillar_007_mesh_layer_1_vtx_0
                0x000000000701fc30                jrb_dl_pillar_007_mesh_layer_1_vtx_cull
                0x000000000701fcb0                jrb_dl_pillar_006_mesh_layer_1_tri_0
                0x000000000701fcf0                jrb_dl_pillar_006_mesh_layer_1_vtx_0
                0x000000000701fe70                jrb_dl_pillar_006_mesh_layer_1_vtx_cull
                0x000000000701fef0                jrb_dl_pillar_005_mesh_layer_1_tri_0
                0x000000000701ff30                jrb_dl_pillar_005_mesh_layer_1_vtx_0
                0x00000000070200b0                jrb_dl_pillar_005_mesh_layer_1_vtx_cull
                0x0000000007020130                jrb_dl_pillar_004_mesh_layer_1_tri_0
                0x0000000007020170                jrb_dl_pillar_004_mesh_layer_1_vtx_0
                0x00000000070202f0                jrb_dl_pillar_004_mesh_layer_1_vtx_cull
                0x0000000007020370                jrb_dl_pillar_003_mesh_layer_1_tri_0
                0x00000000070203b0                jrb_dl_pillar_003_mesh_layer_1_vtx_0
                0x0000000007020530                jrb_dl_pillar_003_mesh_layer_1_vtx_cull
                0x00000000070205b0                jrb_dl_pillar_002_mesh_layer_1_tri_0
                0x00000000070205f0                jrb_dl_pillar_002_mesh_layer_1_vtx_0
                0x0000000007020770                jrb_dl_pillar_002_mesh_layer_1_vtx_cull
                0x00000000070207f0                jrb_dl_pillar_001_mesh_layer_1_tri_0
                0x0000000007020830                jrb_dl_pillar_001_mesh_layer_1_vtx_0
                0x00000000070209b0                jrb_dl_pillar_001_mesh_layer_1_vtx_cull
                0x0000000007020a30                jrb_dl_pillar_mesh_layer_1_tri_2
                0x0000000007020a70                jrb_dl_pillar_mesh_layer_1_vtx_2
                0x0000000007020bf0                jrb_dl_pillar_mesh_layer_1_tri_1
                0x0000000007020c30                jrb_dl_pillar_mesh_layer_1_vtx_1
                0x0000000007020db0                jrb_dl_pillar_mesh_layer_1_tri_0
                0x0000000007020e38                jrb_dl_pillar_mesh_layer_1_vtx_0
                0x0000000007021178                jrb_dl_pillar_mesh_layer_1_vtx_cull
                0x00000000070211f8                jrb_dl_path_002_mesh_layer_6_tri_0
                0x0000000007021358                jrb_dl_path_002_mesh_layer_6_vtx_0
                0x0000000007021848                jrb_dl_path_002_mesh_layer_6_vtx_cull
                0x00000000070218c8                jrb_dl_path_001_mesh_layer_6_tri_0
                0x0000000007021b90                jrb_dl_path_001_mesh_layer_6_vtx_0
                0x0000000007022700                jrb_dl_path_001_mesh_layer_6_vtx_cull
                0x0000000007022780                jrb_dl_path_mesh_layer_6_tri_0
                0x0000000007022b80                jrb_dl_path_mesh_layer_6_vtx_0
                0x0000000007023e70                jrb_dl_path_mesh_layer_6_vtx_cull
                0x0000000007023ef0                jrb_dl_mossy_stone_019_mesh_layer_1_tri_0
                0x0000000007023f58                jrb_dl_mossy_stone_019_mesh_layer_1_vtx_0
                0x00000000070241d8                jrb_dl_mossy_stone_019_mesh_layer_1_vtx_cull
                0x0000000007024258                jrb_dl_mossy_stone_018_mesh_layer_1_tri_0
                0x00000000070242c0                jrb_dl_mossy_stone_018_mesh_layer_1_vtx_0
                0x0000000007024540                jrb_dl_mossy_stone_018_mesh_layer_1_vtx_cull
                0x00000000070245c0                jrb_dl_mossy_stone_017_mesh_layer_1_tri_0
                0x0000000007024628                jrb_dl_mossy_stone_017_mesh_layer_1_vtx_0
                0x00000000070248a8                jrb_dl_mossy_stone_017_mesh_layer_1_vtx_cull
                0x0000000007024928                jrb_dl_mossy_stone_016_mesh_layer_1_tri_0
                0x0000000007024990                jrb_dl_mossy_stone_016_mesh_layer_1_vtx_0
                0x0000000007024c10                jrb_dl_mossy_stone_016_mesh_layer_1_vtx_cull
                0x0000000007024c90                jrb_dl_mossy_stone_015_mesh_layer_1_tri_0
                0x0000000007024cf8                jrb_dl_mossy_stone_015_mesh_layer_1_vtx_0
                0x0000000007024f78                jrb_dl_mossy_stone_015_mesh_layer_1_vtx_cull
                0x0000000007024ff8                jrb_dl_mossy_stone_014_mesh_layer_1_tri_0
                0x0000000007025060                jrb_dl_mossy_stone_014_mesh_layer_1_vtx_0
                0x00000000070252e0                jrb_dl_mossy_stone_014_mesh_layer_1_vtx_cull
                0x0000000007025360                jrb_dl_mossy_stone_013_mesh_layer_1_tri_0
                0x00000000070253c8                jrb_dl_mossy_stone_013_mesh_layer_1_vtx_0
                0x0000000007025648                jrb_dl_mossy_stone_013_mesh_layer_1_vtx_cull
                0x00000000070256c8                jrb_dl_mossy_stone_012_mesh_layer_1_tri_0
                0x0000000007025730                jrb_dl_mossy_stone_012_mesh_layer_1_vtx_0
                0x00000000070259b0                jrb_dl_mossy_stone_012_mesh_layer_1_vtx_cull
                0x0000000007025a30                jrb_dl_mossy_stone_011_mesh_layer_1_tri_0
                0x0000000007025a98                jrb_dl_mossy_stone_011_mesh_layer_1_vtx_0
                0x0000000007025d18                jrb_dl_mossy_stone_011_mesh_layer_1_vtx_cull
                0x0000000007025d98                jrb_dl_mossy_stone_010_mesh_layer_1_tri_0
                0x0000000007025e00                jrb_dl_mossy_stone_010_mesh_layer_1_vtx_0
                0x0000000007026080                jrb_dl_mossy_stone_010_mesh_layer_1_vtx_cull
                0x0000000007026100                jrb_dl_mossy_stone_009_mesh_layer_1_tri_0
                0x0000000007026168                jrb_dl_mossy_stone_009_mesh_layer_1_vtx_0
                0x00000000070263e8                jrb_dl_mossy_stone_009_mesh_layer_1_vtx_cull
                0x0000000007026468                jrb_dl_mossy_stone_008_mesh_layer_1_tri_0
                0x00000000070264d0                jrb_dl_mossy_stone_008_mesh_layer_1_vtx_0
                0x0000000007026750                jrb_dl_mossy_stone_008_mesh_layer_1_vtx_cull
                0x00000000070267d0                jrb_dl_mossy_stone_007_mesh_layer_1_tri_0
                0x0000000007026838                jrb_dl_mossy_stone_007_mesh_layer_1_vtx_0
                0x0000000007026ab8                jrb_dl_mossy_stone_007_mesh_layer_1_vtx_cull
                0x0000000007026b38                jrb_dl_mossy_stone_006_mesh_layer_1_tri_0
                0x0000000007026ba0                jrb_dl_mossy_stone_006_mesh_layer_1_vtx_0
                0x0000000007026e20                jrb_dl_mossy_stone_006_mesh_layer_1_vtx_cull
                0x0000000007026ea0                jrb_dl_mossy_stone_005_mesh_layer_1_tri_0
                0x0000000007026f08                jrb_dl_mossy_stone_005_mesh_layer_1_vtx_0
                0x0000000007027188                jrb_dl_mossy_stone_005_mesh_layer_1_vtx_cull
                0x0000000007027208                jrb_dl_mossy_stone_004_mesh_layer_1_tri_0
                0x0000000007027270                jrb_dl_mossy_stone_004_mesh_layer_1_vtx_0
                0x00000000070274f0                jrb_dl_mossy_stone_004_mesh_layer_1_vtx_cull
                0x0000000007027570                jrb_dl_mossy_stone_003_mesh_layer_1_tri_0
                0x00000000070275d8                jrb_dl_mossy_stone_003_mesh_layer_1_vtx_0
                0x0000000007027858                jrb_dl_mossy_stone_003_mesh_layer_1_vtx_cull
                0x00000000070278d8                jrb_dl_mossy_stone_002_mesh_layer_1_tri_0
                0x0000000007027940                jrb_dl_mossy_stone_002_mesh_layer_1_vtx_0
                0x0000000007027bc0                jrb_dl_mossy_stone_002_mesh_layer_1_vtx_cull
                0x0000000007027c40                jrb_dl_mossy_stone_001_mesh_layer_1_tri_0
                0x0000000007027ca8                jrb_dl_mossy_stone_001_mesh_layer_1_vtx_0
                0x0000000007027f28                jrb_dl_mossy_stone_001_mesh_layer_1_vtx_cull
                0x0000000007027fa8                jrb_dl_mossy_stone_mesh_layer_1_tri_0
                0x0000000007028010                jrb_dl_mossy_stone_mesh_layer_1_vtx_0
                0x0000000007028290                jrb_dl_mossy_stone_mesh_layer_1_vtx_cull
                0x0000000007028310                jrb_dl_Mesh_Owl_mesh_layer_1_tri_0
                0x0000000007028ad8                jrb_dl_Mesh_Owl_mesh_layer_1_vtx_0
                0x000000000702c018                jrb_dl_Mesh_Owl_mesh_layer_1_vtx_cull
                0x000000000702c098                jrb_dl_massive_pillar_003_mesh_layer_4_tri_0
                0x000000000702c0d8                jrb_dl_massive_pillar_003_mesh_layer_4_vtx_0
                0x000000000702c1e8                jrb_dl_massive_pillar_003_mesh_layer_4_vtx_cull
                0x000000000702c268                jrb_dl_massive_pillar_mesh_layer_1_tri_5
                0x000000000702c280                jrb_dl_massive_pillar_mesh_layer_1_vtx_5
                0x000000000702c2c0                jrb_dl_massive_pillar_mesh_layer_1_tri_4
                0x000000000702c328                jrb_dl_massive_pillar_mesh_layer_1_vtx_4
                0x000000000702c5a8                jrb_dl_massive_pillar_mesh_layer_1_tri_3
                0x000000000702c670                jrb_dl_massive_pillar_mesh_layer_1_vtx_3
                0x000000000702ca40                jrb_dl_massive_pillar_mesh_layer_1_tri_2
                0x000000000702cac8                jrb_dl_massive_pillar_mesh_layer_1_vtx_2
                0x000000000702ce28                jrb_dl_massive_pillar_mesh_layer_1_tri_1
                0x000000000702ce78                jrb_dl_massive_pillar_mesh_layer_1_vtx_1
                0x000000000702d078                jrb_dl_massive_pillar_mesh_layer_1_tri_0
                0x000000000702d378                jrb_dl_massive_pillar_mesh_layer_1_vtx_0
                0x000000000702e5d8                jrb_dl_massive_pillar_mesh_layer_1_vtx_cull
                0x000000000702e658                jrb_dl_Icosphere_015_mesh_layer_1_tri_0
                0x000000000702ec60                jrb_dl_Icosphere_015_mesh_layer_1_vtx_0
                0x0000000007032860                jrb_dl_Icosphere_015_mesh_layer_1_vtx_cull
                0x00000000070328e0                jrb_dl_Icosphere_009_mesh_layer_1_tri_0
                0x0000000007032ee8                jrb_dl_Icosphere_009_mesh_layer_1_vtx_0
                0x0000000007036ae8                jrb_dl_Icosphere_009_mesh_layer_1_vtx_cull
                0x0000000007036b68                jrb_dl_Icosphere_008_mesh_layer_1_tri_0
                0x0000000007037170                jrb_dl_Icosphere_008_mesh_layer_1_vtx_0
                0x000000000703ad70                jrb_dl_Icosphere_008_mesh_layer_1_vtx_cull
                0x000000000703adf0                jrb_dl_Icosphere_007_mesh_layer_1_tri_0
                0x000000000703b3f8                jrb_dl_Icosphere_007_mesh_layer_1_vtx_0
                0x000000000703eff8                jrb_dl_Icosphere_007_mesh_layer_1_vtx_cull
                0x000000000703f078                jrb_dl_Icosphere_006_mesh_layer_1_tri_0
                0x000000000703f680                jrb_dl_Icosphere_006_mesh_layer_1_vtx_0
                0x0000000007043280                jrb_dl_Icosphere_006_mesh_layer_1_vtx_cull
                0x0000000007043300                jrb_dl_Icosphere_005_mesh_layer_1_tri_0
                0x0000000007043908                jrb_dl_Icosphere_005_mesh_layer_1_vtx_0
                0x0000000007047508                jrb_dl_Icosphere_005_mesh_layer_1_vtx_cull
                0x0000000007047588                jrb_dl_Icosphere_004_mesh_layer_1_tri_0
                0x0000000007047b90                jrb_dl_Icosphere_004_mesh_layer_1_vtx_0
                0x000000000704b790                jrb_dl_Icosphere_004_mesh_layer_1_vtx_cull
                0x000000000704b810                jrb_dl_Icosphere_003_mesh_layer_1_tri_0
                0x000000000704be18                jrb_dl_Icosphere_003_mesh_layer_1_vtx_0
                0x000000000704fa18                jrb_dl_Icosphere_003_mesh_layer_1_vtx_cull
                0x000000000704fa98                jrb_dl_Icosphere_002_mesh_layer_1_tri_0
                0x00000000070500a0                jrb_dl_Icosphere_002_mesh_layer_1_vtx_0
                0x0000000007053ca0                jrb_dl_Icosphere_002_mesh_layer_1_vtx_cull
                0x0000000007053d20                jrb_dl_Icosphere_001_mesh_layer_1_tri_0
                0x0000000007054328                jrb_dl_Icosphere_001_mesh_layer_1_vtx_0
                0x0000000007057f28                jrb_dl_Icosphere_001_mesh_layer_1_vtx_cull
                0x0000000007057fa8                jrb_dl_Houses_SecondAge_3_Level1_004_mesh_layer_1_tri_4
                0x0000000007057ff8                jrb_dl_Houses_SecondAge_3_Level1_004_mesh_layer_1_vtx_4
                0x00000000070581c8                jrb_dl_Houses_SecondAge_3_Level1_004_mesh_layer_1_tri_3
                0x00000000070584c8                jrb_dl_Houses_SecondAge_3_Level1_004_mesh_layer_1_vtx_3
                0x00000000070599c8                jrb_dl_Houses_SecondAge_3_Level1_004_mesh_layer_1_tri_2
                0x0000000007059d10                jrb_dl_Houses_SecondAge_3_Level1_004_mesh_layer_1_vtx_2
                0x000000000705b410                jrb_dl_Houses_SecondAge_3_Level1_004_mesh_layer_1_tri_1
                0x000000000705b430                jrb_dl_Houses_SecondAge_3_Level1_004_mesh_layer_1_vtx_1
                0x000000000705b4b0                jrb_dl_Houses_SecondAge_3_Level1_004_mesh_layer_1_tri_0
                0x000000000705b548                jrb_dl_Houses_SecondAge_3_Level1_004_mesh_layer_1_vtx_0
                0x000000000705b928                jrb_dl_Houses_SecondAge_3_Level1_004_mesh_layer_1_vtx_cull
                0x000000000705b9a8                jrb_dl_Houses_SecondAge_3_Level1_003_mesh_layer_1_tri_4
                0x000000000705b9f8                jrb_dl_Houses_SecondAge_3_Level1_003_mesh_layer_1_vtx_4
                0x000000000705bbc8                jrb_dl_Houses_SecondAge_3_Level1_003_mesh_layer_1_tri_3
                0x000000000705bed0                jrb_dl_Houses_SecondAge_3_Level1_003_mesh_layer_1_vtx_3
                0x000000000705d410                jrb_dl_Houses_SecondAge_3_Level1_003_mesh_layer_1_tri_2
                0x000000000705d750                jrb_dl_Houses_SecondAge_3_Level1_003_mesh_layer_1_vtx_2
                0x000000000705ee10                jrb_dl_Houses_SecondAge_3_Level1_003_mesh_layer_1_tri_1
                0x000000000705ee30                jrb_dl_Houses_SecondAge_3_Level1_003_mesh_layer_1_vtx_1
                0x000000000705eeb0                jrb_dl_Houses_SecondAge_3_Level1_003_mesh_layer_1_tri_0
                0x000000000705ef48                jrb_dl_Houses_SecondAge_3_Level1_003_mesh_layer_1_vtx_0
                0x000000000705f328                jrb_dl_Houses_SecondAge_3_Level1_003_mesh_layer_1_vtx_cull
                0x000000000705f3a8                jrb_dl_Houses_SecondAge_3_Level1_002_mesh_layer_1_tri_4
                0x000000000705f3f8                jrb_dl_Houses_SecondAge_3_Level1_002_mesh_layer_1_vtx_4
                0x000000000705f5c8                jrb_dl_Houses_SecondAge_3_Level1_002_mesh_layer_1_tri_3
                0x000000000705f8c8                jrb_dl_Houses_SecondAge_3_Level1_002_mesh_layer_1_vtx_3
                0x0000000007060dc8                jrb_dl_Houses_SecondAge_3_Level1_002_mesh_layer_1_tri_2
                0x0000000007061110                jrb_dl_Houses_SecondAge_3_Level1_002_mesh_layer_1_vtx_2
                0x0000000007062810                jrb_dl_Houses_SecondAge_3_Level1_002_mesh_layer_1_tri_1
                0x0000000007062830                jrb_dl_Houses_SecondAge_3_Level1_002_mesh_layer_1_vtx_1
                0x00000000070628b0                jrb_dl_Houses_SecondAge_3_Level1_002_mesh_layer_1_tri_0
                0x0000000007062948                jrb_dl_Houses_SecondAge_3_Level1_002_mesh_layer_1_vtx_0
                0x0000000007062d28                jrb_dl_Houses_SecondAge_3_Level1_002_mesh_layer_1_vtx_cull
                0x0000000007062da8                jrb_dl_Houses_SecondAge_3_Level1_001_mesh_layer_1_tri_4
                0x0000000007062df8                jrb_dl_Houses_SecondAge_3_Level1_001_mesh_layer_1_vtx_4
                0x0000000007062fc8                jrb_dl_Houses_SecondAge_3_Level1_001_mesh_layer_1_tri_3
                0x00000000070632d0                jrb_dl_Houses_SecondAge_3_Level1_001_mesh_layer_1_vtx_3
                0x0000000007064810                jrb_dl_Houses_SecondAge_3_Level1_001_mesh_layer_1_tri_2
                0x0000000007064b50                jrb_dl_Houses_SecondAge_3_Level1_001_mesh_layer_1_vtx_2
                0x0000000007066210                jrb_dl_Houses_SecondAge_3_Level1_001_mesh_layer_1_tri_1
                0x0000000007066230                jrb_dl_Houses_SecondAge_3_Level1_001_mesh_layer_1_vtx_1
                0x00000000070662b0                jrb_dl_Houses_SecondAge_3_Level1_001_mesh_layer_1_tri_0
                0x0000000007066348                jrb_dl_Houses_SecondAge_3_Level1_001_mesh_layer_1_vtx_0
                0x0000000007066728                jrb_dl_Houses_SecondAge_3_Level1_001_mesh_layer_1_vtx_cull
                0x00000000070667a8                jrb_dl_Houses_SecondAge_3_Level1_mesh_layer_1_tri_4
                0x00000000070667f8                jrb_dl_Houses_SecondAge_3_Level1_mesh_layer_1_vtx_4
                0x00000000070669c8                jrb_dl_Houses_SecondAge_3_Level1_mesh_layer_1_tri_3
                0x0000000007066cc8                jrb_dl_Houses_SecondAge_3_Level1_mesh_layer_1_vtx_3
                0x00000000070681c8                jrb_dl_Houses_SecondAge_3_Level1_mesh_layer_1_tri_2
                0x0000000007068510                jrb_dl_Houses_SecondAge_3_Level1_mesh_layer_1_vtx_2
                0x0000000007069c10                jrb_dl_Houses_SecondAge_3_Level1_mesh_layer_1_tri_1
                0x0000000007069c30                jrb_dl_Houses_SecondAge_3_Level1_mesh_layer_1_vtx_1
                0x0000000007069cb0                jrb_dl_Houses_SecondAge_3_Level1_mesh_layer_1_tri_0
                0x0000000007069d48                jrb_dl_Houses_SecondAge_3_Level1_mesh_layer_1_vtx_0
                0x000000000706a128                jrb_dl_Houses_SecondAge_3_Level1_mesh_layer_1_vtx_cull
                0x000000000706a1a8                jrb_dl_Houses_SecondAge_1_Level1_001_mesh_layer_1_tri_4
                0x000000000706a268                jrb_dl_Houses_SecondAge_1_Level1_001_mesh_layer_1_vtx_4
                0x000000000706a768                jrb_dl_Houses_SecondAge_1_Level1_001_mesh_layer_1_tri_3
                0x000000000706a7b8                jrb_dl_Houses_SecondAge_1_Level1_001_mesh_layer_1_vtx_3
                0x000000000706a998                jrb_dl_Houses_SecondAge_1_Level1_001_mesh_layer_1_tri_2
                0x000000000706b100                jrb_dl_Houses_SecondAge_1_Level1_001_mesh_layer_1_vtx_2
                0x000000000706e520                jrb_dl_Houses_SecondAge_1_Level1_001_mesh_layer_1_tri_1
                0x000000000706e560                jrb_dl_Houses_SecondAge_1_Level1_001_mesh_layer_1_vtx_1
                0x000000000706e6d0                jrb_dl_Houses_SecondAge_1_Level1_001_mesh_layer_1_tri_0
                0x000000000706e6f0                jrb_dl_Houses_SecondAge_1_Level1_001_mesh_layer_1_vtx_0
                0x000000000706e770                jrb_dl_Houses_SecondAge_1_Level1_001_mesh_layer_1_vtx_cull
                0x000000000706e7f0                jrb_dl_flowers_003_mesh_layer_5_tri_0
                0x000000000706e888                jrb_dl_flowers_003_mesh_layer_5_vtx_0
                0x000000000706eb88                jrb_dl_flowers_003_mesh_layer_5_vtx_cull
                0x000000000706ec08                jrb_dl_flowers_003_mesh_layer_4_tri_0
                0x000000000706ec58                jrb_dl_flowers_003_mesh_layer_4_vtx_0
                0x000000000706edb8                jrb_dl_flowers_003_mesh_layer_4_vtx_cull
                0x000000000706ee38                jrb_dl_flowers_002_mesh_layer_5_tri_0
                0x000000000706eee8                jrb_dl_flowers_002_mesh_layer_5_vtx_0
                0x000000000706f228                jrb_dl_flowers_002_mesh_layer_5_vtx_cull
                0x000000000706f2a8                jrb_dl_flowers_002_mesh_layer_4_tri_0
                0x000000000706f2f8                jrb_dl_flowers_002_mesh_layer_4_vtx_0
                0x000000000706f498                jrb_dl_flowers_002_mesh_layer_4_vtx_cull
                0x000000000706f518                jrb_dl_flowers_001_mesh_layer_5_tri_0
                0x000000000706f5b0                jrb_dl_flowers_001_mesh_layer_5_vtx_0
                0x000000000706f8b0                jrb_dl_flowers_001_mesh_layer_5_vtx_cull
                0x000000000706f930                jrb_dl_flowers_001_mesh_layer_4_tri_0
                0x000000000706f980                jrb_dl_flowers_001_mesh_layer_4_vtx_0
                0x000000000706fae0                jrb_dl_flowers_001_mesh_layer_4_vtx_cull
                0x000000000706fb60                jrb_dl_flowers_mesh_layer_5_tri_0
                0x000000000706fbf8                jrb_dl_flowers_mesh_layer_5_vtx_0
                0x000000000706fef8                jrb_dl_flowers_mesh_layer_5_vtx_cull
                0x000000000706ff78                jrb_dl_flowers_mesh_layer_4_tri_0
                0x000000000706ffc8                jrb_dl_flowers_mesh_layer_4_vtx_0
                0x0000000007070128                jrb_dl_flowers_mesh_layer_4_vtx_cull
                0x00000000070701a8                jrb_dl_death_plane_mesh_layer_1_tri_0
                0x00000000070701c0                jrb_dl_death_plane_mesh_layer_1_vtx_0
                0x0000000007070200                jrb_dl_death_plane_mesh_layer_1_vtx_cull
                0x0000000007070280                jrb_dl_Cylinder_006_mesh_layer_1_tri_2
                0x0000000007070310                jrb_dl_Cylinder_006_mesh_layer_1_vtx_2
                0x0000000007070600                jrb_dl_Cylinder_006_mesh_layer_1_tri_1
                0x00000000070707b8                jrb_dl_Cylinder_006_mesh_layer_1_vtx_1
                0x0000000007071148                jrb_dl_Cylinder_006_mesh_layer_1_tri_0
                0x0000000007071280                jrb_dl_Cylinder_006_mesh_layer_1_vtx_0
                0x00000000070718b0                jrb_dl_Cylinder_006_mesh_layer_1_vtx_cull
                0x0000000007071930                jrb_dl_Cylinder_005_mesh_layer_1_tri_1
                0x0000000007071cf8                jrb_dl_Cylinder_005_mesh_layer_1_vtx_1
                0x0000000007073018                jrb_dl_Cylinder_005_mesh_layer_1_tri_0
                0x00000000070733b0                jrb_dl_Cylinder_005_mesh_layer_1_vtx_0
                0x0000000007074640                jrb_dl_Cylinder_005_mesh_layer_1_vtx_cull
                0x00000000070746c0                jrb_dl_Cylinder_004_mesh_layer_1_tri_1
                0x0000000007074a68                jrb_dl_Cylinder_004_mesh_layer_1_vtx_1
                0x0000000007075cd8                jrb_dl_Cylinder_004_mesh_layer_1_tri_0
                0x0000000007076048                jrb_dl_Cylinder_004_mesh_layer_1_vtx_0
                0x0000000007077218                jrb_dl_Cylinder_004_mesh_layer_1_vtx_cull
                0x0000000007077298                jrb_dl_Cylinder_003_mesh_layer_1_tri_1
                0x0000000007077320                jrb_dl_Cylinder_003_mesh_layer_1_vtx_1
                0x0000000007077520                jrb_dl_Cylinder_003_mesh_layer_1_tri_0
                0x00000000070776c8                jrb_dl_Cylinder_003_mesh_layer_1_vtx_0
                0x00000000070780c8                jrb_dl_Cylinder_003_mesh_layer_1_vtx_cull
                0x0000000007078148                jrb_dl_Cylinder_002_mesh_layer_1_tri_1
                0x00000000070781d0                jrb_dl_Cylinder_002_mesh_layer_1_vtx_1
                0x00000000070783d0                jrb_dl_Cylinder_002_mesh_layer_1_tri_0
                0x0000000007078578                jrb_dl_Cylinder_002_mesh_layer_1_vtx_0
                0x0000000007078f78                jrb_dl_Cylinder_002_mesh_layer_1_vtx_cull
                0x0000000007078ff8                jrb_dl_Cylinder_001_mesh_layer_6_tri_0
                0x0000000007079050                jrb_dl_Cylinder_001_mesh_layer_6_vtx_0
                0x0000000007079140                jrb_dl_Cylinder_001_mesh_layer_6_vtx_cull
                0x00000000070791c0                jrb_dl_Cylinder_mesh_layer_1_tri_2
                0x0000000007079250                jrb_dl_Cylinder_mesh_layer_1_vtx_2
                0x0000000007079610                jrb_dl_Cylinder_mesh_layer_1_tri_1
                0x0000000007079798                jrb_dl_Cylinder_mesh_layer_1_vtx_1
                0x000000000707a0c8                jrb_dl_Cylinder_mesh_layer_1_tri_0
                0x000000000707a190                jrb_dl_Cylinder_mesh_layer_1_vtx_0
                0x000000000707a4a0                jrb_dl_Cylinder_mesh_layer_1_vtx_cull
                0x000000000707a520                jrb_dl_Cube_069_mesh_layer_6_tri_0
                0x000000000707a598                jrb_dl_Cube_069_mesh_layer_6_vtx_0
                0x000000000707a6d8                jrb_dl_Cube_069_mesh_layer_6_vtx_cull
                0x000000000707a758                jrb_dl_Cube_068_mesh_layer_6_tri_0
                0x000000000707a820                jrb_dl_Cube_068_mesh_layer_6_vtx_0
                0x000000000707aa20                jrb_dl_Cube_068_mesh_layer_6_vtx_cull
                0x000000000707aaa0                jrb_dl_Cube_067_mesh_layer_6_tri_0
                0x000000000707ab48                jrb_dl_Cube_067_mesh_layer_6_vtx_0
                0x000000000707ad08                jrb_dl_Cube_067_mesh_layer_6_vtx_cull
                0x000000000707ad88                jrb_dl_Cube_066_mesh_layer_6_tri_0
                0x000000000707ae50                jrb_dl_Cube_066_mesh_layer_6_vtx_0
                0x000000000707b050                jrb_dl_Cube_066_mesh_layer_6_vtx_cull
                0x000000000707b0d0                jrb_dl_Cube_065_mesh_layer_6_tri_0
                0x000000000707b198                jrb_dl_Cube_065_mesh_layer_6_vtx_0
                0x000000000707b398                jrb_dl_Cube_065_mesh_layer_6_vtx_cull
                0x000000000707b418                jrb_dl_Cube_064_mesh_layer_1_tri_5
                0x000000000707b470                jrb_dl_Cube_064_mesh_layer_1_vtx_5
                0x000000000707b770                jrb_dl_Cube_064_mesh_layer_1_tri_4
                0x000000000707b7b0                jrb_dl_Cube_064_mesh_layer_1_vtx_4
                0x000000000707b930                jrb_dl_Cube_064_mesh_layer_1_tri_3
                0x000000000707b970                jrb_dl_Cube_064_mesh_layer_1_vtx_3
                0x000000000707baf0                jrb_dl_Cube_064_mesh_layer_1_tri_2
                0x000000000707bb58                jrb_dl_Cube_064_mesh_layer_1_vtx_2
                0x000000000707bdd8                jrb_dl_Cube_064_mesh_layer_1_tri_1
                0x000000000707bfb8                jrb_dl_Cube_064_mesh_layer_1_vtx_1
                0x000000000707cc38                jrb_dl_Cube_064_mesh_layer_1_tri_0
                0x000000000707d0e8                jrb_dl_Cube_064_mesh_layer_1_vtx_0
                0x000000000707f4e8                jrb_dl_Cube_064_mesh_layer_1_vtx_cull
                0x000000000707f568                jrb_dl_Cube_063_mesh_layer_6_tri_0
                0x000000000707f630                jrb_dl_Cube_063_mesh_layer_6_vtx_0
                0x000000000707f830                jrb_dl_Cube_063_mesh_layer_6_vtx_cull
                0x000000000707f8b0                jrb_dl_Cube_062_mesh_layer_1_tri_0
                0x000000000707fa78                jrb_dl_Cube_062_mesh_layer_1_vtx_0
                0x0000000007080638                jrb_dl_Cube_062_mesh_layer_1_vtx_cull
                0x00000000070806b8                jrb_dl_Cube_061_mesh_layer_6_tri_0
                0x0000000007080780                jrb_dl_Cube_061_mesh_layer_6_vtx_0
                0x0000000007080980                jrb_dl_Cube_061_mesh_layer_6_vtx_cull
                0x0000000007080a00                jrb_dl_Cube_060_mesh_layer_6_tri_0
                0x0000000007080ac8                jrb_dl_Cube_060_mesh_layer_6_vtx_0
                0x0000000007080cc8                jrb_dl_Cube_060_mesh_layer_6_vtx_cull
                0x0000000007080d48                jrb_dl_Cube_059_mesh_layer_6_tri_0
                0x0000000007080e10                jrb_dl_Cube_059_mesh_layer_6_vtx_0
                0x0000000007081010                jrb_dl_Cube_059_mesh_layer_6_vtx_cull
                0x0000000007081090                jrb_dl_Cube_058_mesh_layer_1_tri_0
                0x0000000007081258                jrb_dl_Cube_058_mesh_layer_1_vtx_0
                0x0000000007081e18                jrb_dl_Cube_058_mesh_layer_1_vtx_cull
                0x0000000007081e98                jrb_dl_Cube_057_mesh_layer_6_tri_0
                0x0000000007081f60                jrb_dl_Cube_057_mesh_layer_6_vtx_0
                0x0000000007082160                jrb_dl_Cube_057_mesh_layer_6_vtx_cull
                0x00000000070821e0                jrb_dl_Cube_056_mesh_layer_1_tri_1
                0x00000000070821f8                jrb_dl_Cube_056_mesh_layer_1_vtx_1
                0x0000000007082238                jrb_dl_Cube_056_mesh_layer_1_tri_0
                0x0000000007082270                jrb_dl_Cube_056_mesh_layer_1_vtx_0
                0x00000000070823b0                jrb_dl_Cube_056_mesh_layer_1_vtx_cull
                0x0000000007082430                jrb_dl_Cube_055_mesh_layer_1_tri_0
                0x0000000007082470                jrb_dl_Cube_055_mesh_layer_1_vtx_0
                0x00000000070825f0                jrb_dl_Cube_055_mesh_layer_1_vtx_cull
                0x0000000007082670                jrb_dl_Cube_054_mesh_layer_6_tri_0
                0x0000000007082738                jrb_dl_Cube_054_mesh_layer_6_vtx_0
                0x0000000007082938                jrb_dl_Cube_054_mesh_layer_6_vtx_cull
                0x00000000070829b8                jrb_dl_Cube_053_mesh_layer_6_tri_0
                0x0000000007082a80                jrb_dl_Cube_053_mesh_layer_6_vtx_0
                0x0000000007082c80                jrb_dl_Cube_053_mesh_layer_6_vtx_cull
                0x0000000007082d00                jrb_dl_Cube_051_mesh_layer_1_tri_0
                0x0000000007082ec8                jrb_dl_Cube_051_mesh_layer_1_vtx_0
                0x0000000007083a88                jrb_dl_Cube_051_mesh_layer_1_vtx_cull
                0x0000000007083b08                jrb_dl_Cube_050_mesh_layer_1_tri_1
                0x0000000007083b80                jrb_dl_Cube_050_mesh_layer_1_vtx_1
                0x0000000007083e50                jrb_dl_Cube_050_mesh_layer_1_tri_0
                0x0000000007083ec8                jrb_dl_Cube_050_mesh_layer_1_vtx_0
                0x0000000007084198                jrb_dl_Cube_050_mesh_layer_1_vtx_cull
                0x0000000007084218                jrb_dl_Cube_049_mesh_layer_1_tri_1
                0x0000000007084320                jrb_dl_Cube_049_mesh_layer_1_vtx_1
                0x00000000070849b0                jrb_dl_Cube_049_mesh_layer_1_tri_0
                0x0000000007084a70                jrb_dl_Cube_049_mesh_layer_1_vtx_0
                0x0000000007084f10                jrb_dl_Cube_049_mesh_layer_1_vtx_cull
                0x0000000007084f90                jrb_dl_Cube_048_mesh_layer_1_tri_0
                0x0000000007084fd0                jrb_dl_Cube_048_mesh_layer_1_vtx_0
                0x0000000007085150                jrb_dl_Cube_048_mesh_layer_1_vtx_cull
                0x00000000070851d0                jrb_dl_Cube_047_mesh_layer_1_tri_0
                0x0000000007085210                jrb_dl_Cube_047_mesh_layer_1_vtx_0
                0x0000000007085390                jrb_dl_Cube_047_mesh_layer_1_vtx_cull
                0x0000000007085410                jrb_dl_Cube_046_mesh_layer_6_tri_0
                0x00000000070854d8                jrb_dl_Cube_046_mesh_layer_6_vtx_0
                0x00000000070856d8                jrb_dl_Cube_046_mesh_layer_6_vtx_cull
                0x0000000007085758                jrb_dl_Cube_045_mesh_layer_1_tri_1
                0x0000000007085788                jrb_dl_Cube_045_mesh_layer_1_vtx_1
                0x0000000007085888                jrb_dl_Cube_045_mesh_layer_1_tri_0
                0x00000000070858a8                jrb_dl_Cube_045_mesh_layer_1_vtx_0
                0x0000000007085928                jrb_dl_Cube_045_mesh_layer_1_vtx_cull
                0x00000000070859a8                jrb_dl_Cube_044_mesh_layer_1_tri_1
                0x0000000007085a48                jrb_dl_Cube_044_mesh_layer_1_vtx_1
                0x0000000007085d18                jrb_dl_Cube_044_mesh_layer_1_tri_0
                0x0000000007085e38                jrb_dl_Cube_044_mesh_layer_1_vtx_0
                0x0000000007086318                jrb_dl_Cube_044_mesh_layer_1_vtx_cull
                0x0000000007086398                jrb_dl_Cube_043_mesh_layer_1_tri_0
                0x00000000070863c8                jrb_dl_Cube_043_mesh_layer_1_vtx_0
                0x00000000070864e8                jrb_dl_Cube_043_mesh_layer_1_vtx_cull
                0x0000000007086568                jrb_dl_Cube_042_mesh_layer_1_tri_1
                0x0000000007086660                jrb_dl_Cube_042_mesh_layer_1_vtx_1
                0x0000000007086b80                jrb_dl_Cube_042_mesh_layer_1_tri_0
                0x0000000007086d20                jrb_dl_Cube_042_mesh_layer_1_vtx_0
                0x0000000007087550                jrb_dl_Cube_042_mesh_layer_1_vtx_cull
                0x00000000070875d0                jrb_dl_Cube_041_mesh_layer_1_tri_0
                0x0000000007087610                jrb_dl_Cube_041_mesh_layer_1_vtx_0
                0x0000000007087790                jrb_dl_Cube_041_mesh_layer_1_vtx_cull
                0x0000000007087810                jrb_dl_Cube_040_mesh_layer_1_tri_0
                0x0000000007087850                jrb_dl_Cube_040_mesh_layer_1_vtx_0
                0x00000000070879d0                jrb_dl_Cube_040_mesh_layer_1_vtx_cull
                0x0000000007087a50                jrb_dl_Cube_039_mesh_layer_1_tri_0
                0x0000000007087a80                jrb_dl_Cube_039_mesh_layer_1_vtx_0
                0x0000000007087ba0                jrb_dl_Cube_039_mesh_layer_1_vtx_cull
                0x0000000007087c20                jrb_dl_Cube_038_mesh_layer_5_tri_0
                0x0000000007087c40                jrb_dl_Cube_038_mesh_layer_5_vtx_0
                0x0000000007087ca0                jrb_dl_Cube_038_mesh_layer_5_vtx_cull
                0x0000000007087d20                jrb_dl_Cube_037_mesh_layer_1_tri_0
                0x0000000007087d60                jrb_dl_Cube_037_mesh_layer_1_vtx_0
                0x0000000007087ee0                jrb_dl_Cube_037_mesh_layer_1_vtx_cull
                0x0000000007087f60                jrb_dl_Cube_036_mesh_layer_1_tri_1
                0x0000000007087f90                jrb_dl_Cube_036_mesh_layer_1_vtx_1
                0x0000000007088090                jrb_dl_Cube_036_mesh_layer_1_tri_0
                0x00000000070880b0                jrb_dl_Cube_036_mesh_layer_1_vtx_0
                0x0000000007088130                jrb_dl_Cube_036_mesh_layer_1_vtx_cull
                0x00000000070881b0                jrb_dl_Cube_035_mesh_layer_5_tri_0
                0x00000000070881f0                jrb_dl_Cube_035_mesh_layer_5_vtx_0
                0x0000000007088370                jrb_dl_Cube_035_mesh_layer_5_vtx_cull
                0x00000000070883f0                jrb_dl_Cube_035_mesh_layer_4_tri_0
                0x0000000007088430                jrb_dl_Cube_035_mesh_layer_4_vtx_0
                0x00000000070885b0                jrb_dl_Cube_035_mesh_layer_4_vtx_cull
                0x0000000007088630                jrb_dl_Cube_035_mesh_layer_1_tri_9
                0x0000000007089598                jrb_dl_Cube_035_mesh_layer_1_vtx_9
                0x0000000007090088                jrb_dl_Cube_035_mesh_layer_1_tri_8
                0x0000000007090258                jrb_dl_Cube_035_mesh_layer_1_vtx_8
                0x0000000007090d18                jrb_dl_Cube_035_mesh_layer_1_tri_7
                0x0000000007090d48                jrb_dl_Cube_035_mesh_layer_1_vtx_7
                0x0000000007090e38                jrb_dl_Cube_035_mesh_layer_1_tri_6
                0x0000000007090fc8                jrb_dl_Cube_035_mesh_layer_1_vtx_6
                0x00000000070918a8                jrb_dl_Cube_035_mesh_layer_1_tri_5
                0x0000000007091958                jrb_dl_Cube_035_mesh_layer_1_vtx_5
                0x0000000007091dd8                jrb_dl_Cube_035_mesh_layer_1_tri_4
                0x0000000007092110                jrb_dl_Cube_035_mesh_layer_1_vtx_4
                0x0000000007093790                jrb_dl_Cube_035_mesh_layer_1_tri_3
                0x00000000070937c8                jrb_dl_Cube_035_mesh_layer_1_vtx_3
                0x00000000070938d8                jrb_dl_Cube_035_mesh_layer_1_tri_2
                0x0000000007093918                jrb_dl_Cube_035_mesh_layer_1_vtx_2
                0x0000000007093a98                jrb_dl_Cube_035_mesh_layer_1_tri_1
                0x0000000007093c78                jrb_dl_Cube_035_mesh_layer_1_vtx_1
                0x0000000007094708                jrb_dl_Cube_035_mesh_layer_1_tri_0
                0x0000000007094768                jrb_dl_Cube_035_mesh_layer_1_vtx_0
                0x0000000007094928                jrb_dl_Cube_035_mesh_layer_1_vtx_cull
                0x00000000070949a8                jrb_dl_Cube_034_mesh_layer_1_tri_1
                0x00000000070949c0                jrb_dl_Cube_034_mesh_layer_1_vtx_1
                0x0000000007094a00                jrb_dl_Cube_034_mesh_layer_1_tri_0
                0x0000000007094a38                jrb_dl_Cube_034_mesh_layer_1_vtx_0
                0x0000000007094b78                jrb_dl_Cube_034_mesh_layer_1_vtx_cull
                0x0000000007094bf8                jrb_dl_Cube_033_mesh_layer_6_tri_0
                0x0000000007094cc0                jrb_dl_Cube_033_mesh_layer_6_vtx_0
                0x0000000007094ec0                jrb_dl_Cube_033_mesh_layer_6_vtx_cull
                0x0000000007094f40                jrb_dl_Cube_032_mesh_layer_1_tri_0
                0x0000000007094fb8                jrb_dl_Cube_032_mesh_layer_1_vtx_0
                0x00000000070952b8                jrb_dl_Cube_032_mesh_layer_1_vtx_cull
                0x0000000007095338                jrb_dl_Cube_031_mesh_layer_1_tri_1
                0x0000000007095368                jrb_dl_Cube_031_mesh_layer_1_vtx_1
                0x0000000007095468                jrb_dl_Cube_031_mesh_layer_1_tri_0
                0x0000000007095488                jrb_dl_Cube_031_mesh_layer_1_vtx_0
                0x0000000007095508                jrb_dl_Cube_031_mesh_layer_1_vtx_cull
                0x0000000007095588                jrb_dl_Cube_030_mesh_layer_1_tri_0
                0x0000000007095750                jrb_dl_Cube_030_mesh_layer_1_vtx_0
                0x0000000007096310                jrb_dl_Cube_030_mesh_layer_1_vtx_cull
                0x0000000007096390                jrb_dl_Cube_029_mesh_layer_1_tri_0
                0x0000000007096558                jrb_dl_Cube_029_mesh_layer_1_vtx_0
                0x0000000007097118                jrb_dl_Cube_029_mesh_layer_1_vtx_cull
                0x0000000007097198                jrb_dl_Cube_028_mesh_layer_1_tri_0
                0x0000000007097360                jrb_dl_Cube_028_mesh_layer_1_vtx_0
                0x0000000007097f20                jrb_dl_Cube_028_mesh_layer_1_vtx_cull
                0x0000000007097fa0                jrb_dl_Cube_027_mesh_layer_6_tri_0
                0x0000000007098068                jrb_dl_Cube_027_mesh_layer_6_vtx_0
                0x0000000007098268                jrb_dl_Cube_027_mesh_layer_6_vtx_cull
                0x00000000070982e8                jrb_dl_Cube_026_mesh_layer_1_tri_1
                0x0000000007098318                jrb_dl_Cube_026_mesh_layer_1_vtx_1
                0x0000000007098418                jrb_dl_Cube_026_mesh_layer_1_tri_0
                0x0000000007098438                jrb_dl_Cube_026_mesh_layer_1_vtx_0
                0x00000000070984b8                jrb_dl_Cube_026_mesh_layer_1_vtx_cull
                0x0000000007098538                jrb_dl_Cube_024_mesh_layer_1_tri_1
                0x0000000007098568                jrb_dl_Cube_024_mesh_layer_1_vtx_1
                0x0000000007098668                jrb_dl_Cube_024_mesh_layer_1_tri_0
                0x0000000007098688                jrb_dl_Cube_024_mesh_layer_1_vtx_0
                0x0000000007098708                jrb_dl_Cube_024_mesh_layer_1_vtx_cull
                0x0000000007098788                jrb_dl_Cube_023_mesh_layer_5_tri_0
                0x0000000007098810                jrb_dl_Cube_023_mesh_layer_5_vtx_0
                0x0000000007098b90                jrb_dl_Cube_023_mesh_layer_5_vtx_cull
                0x0000000007098c10                jrb_dl_Cube_022_mesh_layer_6_tri_0
                0x0000000007098c48                jrb_dl_Cube_022_mesh_layer_6_vtx_0
                0x0000000007098cd8                jrb_dl_Cube_022_mesh_layer_6_vtx_cull
                0x0000000007098d58                jrb_dl_Cube_021_mesh_layer_1_tri_1
                0x0000000007098d88                jrb_dl_Cube_021_mesh_layer_1_vtx_1
                0x0000000007098e88                jrb_dl_Cube_021_mesh_layer_1_tri_0
                0x0000000007098ea8                jrb_dl_Cube_021_mesh_layer_1_vtx_0
                0x0000000007098f28                jrb_dl_Cube_021_mesh_layer_1_vtx_cull
                0x0000000007098fa8                jrb_dl_Cube_020_mesh_layer_5_tri_0
                0x0000000007099030                jrb_dl_Cube_020_mesh_layer_5_vtx_0
                0x0000000007099330                jrb_dl_Cube_020_mesh_layer_5_vtx_cull
                0x00000000070993b0                jrb_dl_Cube_019_mesh_layer_1_tri_3
                0x00000000070993e8                jrb_dl_Cube_019_mesh_layer_1_vtx_3
                0x0000000007099528                jrb_dl_Cube_019_mesh_layer_1_tri_2
                0x0000000007099560                jrb_dl_Cube_019_mesh_layer_1_vtx_2
                0x0000000007099620                jrb_dl_Cube_019_mesh_layer_1_tri_1
                0x0000000007099668                jrb_dl_Cube_019_mesh_layer_1_vtx_1
                0x00000000070997c8                jrb_dl_Cube_019_mesh_layer_1_tri_0
                0x0000000007099800                jrb_dl_Cube_019_mesh_layer_1_vtx_0
                0x0000000007099900                jrb_dl_Cube_019_mesh_layer_1_vtx_cull
                0x0000000007099980                jrb_dl_Cube_018_mesh_layer_5_tri_1
                0x00000000070999a0                jrb_dl_Cube_018_mesh_layer_5_vtx_1
                0x0000000007099a20                jrb_dl_Cube_018_mesh_layer_5_tri_0
                0x0000000007099a98                jrb_dl_Cube_018_mesh_layer_5_vtx_0
                0x0000000007099d98                jrb_dl_Cube_018_mesh_layer_5_vtx_cull
                0x0000000007099e18                jrb_dl_Cube_017_mesh_layer_1_tri_0
                0x0000000007099fe0                jrb_dl_Cube_017_mesh_layer_1_vtx_0
                0x000000000709aba0                jrb_dl_Cube_017_mesh_layer_1_vtx_cull
                0x000000000709ac20                jrb_dl_Cube_016_mesh_layer_1_tri_0
                0x000000000709ac60                jrb_dl_Cube_016_mesh_layer_1_vtx_0
                0x000000000709ade0                jrb_dl_Cube_016_mesh_layer_1_vtx_cull
                0x000000000709ae60                jrb_dl_Cube_015_mesh_layer_1_tri_1
                0x000000000709ae78                jrb_dl_Cube_015_mesh_layer_1_vtx_1
                0x000000000709aeb8                jrb_dl_Cube_015_mesh_layer_1_tri_0
                0x000000000709aef0                jrb_dl_Cube_015_mesh_layer_1_vtx_0
                0x000000000709b030                jrb_dl_Cube_015_mesh_layer_1_vtx_cull
                0x000000000709b0b0                jrb_dl_Cube_014_mesh_layer_1_tri_0
                0x000000000709b118                jrb_dl_Cube_014_mesh_layer_1_vtx_0
                0x000000000709b398                jrb_dl_Cube_014_mesh_layer_1_vtx_cull
                0x000000000709b418                jrb_dl_Cube_013_mesh_layer_1_tri_4
                0x000000000709b468                jrb_dl_Cube_013_mesh_layer_1_vtx_4
                0x000000000709b588                jrb_dl_Cube_013_mesh_layer_1_tri_3
                0x000000000709b708                jrb_dl_Cube_013_mesh_layer_1_vtx_3
                0x000000000709bff8                jrb_dl_Cube_013_mesh_layer_1_tri_2
                0x000000000709c040                jrb_dl_Cube_013_mesh_layer_1_vtx_2
                0x000000000709c180                jrb_dl_Cube_013_mesh_layer_1_tri_1
                0x000000000709c350                jrb_dl_Cube_013_mesh_layer_1_vtx_1
                0x000000000709cf00                jrb_dl_Cube_013_mesh_layer_1_tri_0
                0x000000000709d430                jrb_dl_Cube_013_mesh_layer_1_vtx_0
                0x000000000709ead0                jrb_dl_Cube_013_mesh_layer_1_vtx_cull
                0x000000000709eb50                jrb_dl_Cube_012_mesh_layer_1_tri_1
                0x000000000709eb68                jrb_dl_Cube_012_mesh_layer_1_vtx_1
                0x000000000709eba8                jrb_dl_Cube_012_mesh_layer_1_tri_0
                0x000000000709ec00                jrb_dl_Cube_012_mesh_layer_1_vtx_0
                0x000000000709edc0                jrb_dl_Cube_012_mesh_layer_1_vtx_cull
                0x000000000709ee40                jrb_dl_Cube_011_mesh_layer_1_tri_0
                0x000000000709ee80                jrb_dl_Cube_011_mesh_layer_1_vtx_0
                0x000000000709f000                jrb_dl_Cube_011_mesh_layer_1_vtx_cull
                0x000000000709f080                jrb_dl_Cube_010_mesh_layer_5_tri_0
                0x000000000709f0d0                jrb_dl_Cube_010_mesh_layer_5_vtx_0
                0x000000000709f1f0                jrb_dl_Cube_010_mesh_layer_5_vtx_cull
                0x000000000709f270                jrb_dl_Cube_009_mesh_layer_1_tri_0
                0x000000000709f2b0                jrb_dl_Cube_009_mesh_layer_1_vtx_0
                0x000000000709f430                jrb_dl_Cube_009_mesh_layer_1_vtx_cull
                0x000000000709f4b0                jrb_dl_Cube_008_mesh_layer_5_tri_0
                0x000000000709f4f8                jrb_dl_Cube_008_mesh_layer_5_vtx_0
                0x000000000709f618                jrb_dl_Cube_008_mesh_layer_5_vtx_cull
                0x000000000709f698                jrb_dl_Cube_007_mesh_layer_1_tri_0
                0x000000000709f860                jrb_dl_Cube_007_mesh_layer_1_vtx_0
                0x00000000070a0420                jrb_dl_Cube_007_mesh_layer_1_vtx_cull
                0x00000000070a04a0                jrb_dl_Cube_006_mesh_layer_1_tri_0
                0x00000000070a0668                jrb_dl_Cube_006_mesh_layer_1_vtx_0
                0x00000000070a1228                jrb_dl_Cube_006_mesh_layer_1_vtx_cull
                0x00000000070a12a8                jrb_dl_Cube_005_mesh_layer_1_tri_0
                0x00000000070a1470                jrb_dl_Cube_005_mesh_layer_1_vtx_0
                0x00000000070a2030                jrb_dl_Cube_005_mesh_layer_1_vtx_cull
                0x00000000070a20b0                jrb_dl_Cube_004_mesh_layer_1_tri_0
                0x00000000070a20f0                jrb_dl_Cube_004_mesh_layer_1_vtx_0
                0x00000000070a2270                jrb_dl_Cube_004_mesh_layer_1_vtx_cull
                0x00000000070a22f0                jrb_dl_Cube_003_mesh_layer_1_tri_0
                0x00000000070a2440                jrb_dl_Cube_003_mesh_layer_1_vtx_0
                0x00000000070a2bd0                jrb_dl_Cube_003_mesh_layer_1_vtx_cull
                0x00000000070a2c50                jrb_dl_Cube_002_mesh_layer_1_tri_0
                0x00000000070a2d68                jrb_dl_Cube_002_mesh_layer_1_vtx_0
                0x00000000070a34e8                jrb_dl_Cube_002_mesh_layer_1_vtx_cull
                0x00000000070a3568                jrb_dl_Cube_001_mesh_layer_5_tri_0
                0x00000000070a35a8                jrb_dl_Cube_001_mesh_layer_5_vtx_0
                0x00000000070a3728                jrb_dl_Cube_001_mesh_layer_5_vtx_cull
                0x00000000070a37a8                jrb_dl_Cube_mesh_layer_1_tri_4
                0x00000000070a37f8                jrb_dl_Cube_mesh_layer_1_vtx_4
                0x00000000070a3958                jrb_dl_Cube_mesh_layer_1_tri_3
                0x00000000070a39a0                jrb_dl_Cube_mesh_layer_1_vtx_3
                0x00000000070a3b20                jrb_dl_Cube_mesh_layer_1_tri_2
                0x00000000070a3b40                jrb_dl_Cube_mesh_layer_1_vtx_2
                0x00000000070a3b90                jrb_dl_Cube_mesh_layer_1_tri_1
                0x00000000070a3cb0                jrb_dl_Cube_mesh_layer_1_vtx_1
                0x00000000070a43e0                jrb_dl_Cube_mesh_layer_1_tri_0
                0x00000000070a4528                jrb_dl_Cube_mesh_layer_1_vtx_0
                0x00000000070a4bb8                jrb_dl_Cube_mesh_layer_1_vtx_cull
                0x00000000070a4c38                jrb_dl_bridge_mesh_layer_1_tri_0
                0x00000000070a4d70                jrb_dl_bridge_mesh_layer_1_vtx_0
                0x00000000070a52e0                jrb_dl_bridge_mesh_layer_1_vtx_cull
                0x00000000070a5360                jrb_dl_Alpha_002_mesh_layer_6_tri_0
                0x00000000070a53a8                jrb_dl_Alpha_002_mesh_layer_6_vtx_0
                0x00000000070a5538                jrb_dl_Alpha_002_mesh_layer_6_vtx_cull
                0x00000000070a55b8                jrb_dl_Alpha_001_mesh_layer_6_tri_0
                0x00000000070a5770                jrb_dl_Alpha_001_mesh_layer_6_vtx_0
                0x00000000070a6220                jrb_dl_Alpha_001_mesh_layer_6_vtx_cull
                0x00000000070a62a0                jrb_dl_Alpha_mesh_layer_1_tri_2
                0x00000000070a6318                jrb_dl_Alpha_mesh_layer_1_vtx_2
                0x00000000070a6618                jrb_dl_Alpha_mesh_layer_1_tri_1
                0x00000000070a6700                jrb_dl_Alpha_mesh_layer_1_vtx_1
                0x00000000070a6cc0                jrb_dl_Alpha_mesh_layer_1_tri_0
                0x00000000070a7050                jrb_dl_Alpha_mesh_layer_1_vtx_0
                0x00000000070a84d0                jrb_dl_Alpha_mesh_layer_1_vtx_cull
                0x00000000070a8550                jrb_dl_grate_pal_rgba16
                0x00000000070a8638                jrb_dl_grate_pal_rgba16_aligner
                0x00000000070a8640                jrb_dl_grate_ci8
                0x00000000070a8a40                jrb_dl_grate_ci8_aligner
                0x00000000070a8a48                jrb_dl_rgba16_anonmoose_GreenishSquare_pal_rgba16
                0x00000000070a8a70                jrb_dl_rgba16_anonmoose_GreenishSquare_pal_rgba16_aligner
                0x00000000070a8a78                jrb_dl_rgba16_anonmoose_GreenishSquare_ci8
                0x00000000070a8e78                jrb_dl_rgba16_anonmoose_GreenishSquare_ci8_aligner
                0x00000000070a8e80                jrb_dl_flower_pal_rgba16_copy
                0x00000000070a8ee0                jrb_dl_flower_pal_rgba16_copy_aligner
                0x00000000070a8ee8                jrb_dl_flower_ci8_copy
                0x00000000070a92e8                jrb_dl_flower_ci8_copy_aligner
                0x00000000070a92f0                jrb_dl__7_pal_rgba16
                0x00000000070a93b0                jrb_dl__7_pal_rgba16_aligner
                0x00000000070a93b8                jrb_dl__7_ci8
                0x00000000070a97b8                jrb_dl__7_ci8_aligner
                0x00000000070a97c0                jrb_dl_flower_pal_rgba16
                0x00000000070a9820                jrb_dl_flower_pal_rgba16_aligner
                0x00000000070a9828                jrb_dl_flower_ci8
                0x00000000070a9c28                jrb_dl_flower_ci8_aligner
                0x00000000070a9c30                jrb_dl_i4_sophie_static_i8
                0x00000000070aac30                jrb_dl_i4_sophie_static_i8_aligner
                0x00000000070aac38                jrb_dl_ci4_sophie_hay_pal_rgba16
                0x00000000070aac58                jrb_dl_ci4_sophie_hay_pal_rgba16_aligner
                0x00000000070aac60                jrb_dl_ci4_sophie_hay_ci4
                0x00000000070ab460                jrb_dl_ci4_sophie_hay_ci4_aligner
                0x00000000070ab468                jrb_dl_rgba16_anonmoose_swirl1_pal_rgba16
                0x00000000070ab4b8                jrb_dl_rgba16_anonmoose_swirl1_pal_rgba16_aligner
                0x00000000070ab4c0                jrb_dl_rgba16_anonmoose_swirl1_ci8
                0x00000000070ab8c0                jrb_dl_rgba16_anonmoose_swirl1_ci8_aligner
                0x00000000070ab8c8                jrb_dl_ci4_sophie_tablecloth_pal_rgba16
                0x00000000070ab8e8                jrb_dl_ci4_sophie_tablecloth_pal_rgba16_aligner
                0x00000000070ab8f0                jrb_dl_ci4_sophie_tablecloth_ci4
                0x00000000070ac0f0                jrb_dl_ci4_sophie_tablecloth_ci4_aligner
                0x00000000070ac0f8                jrb_dl_rings_pal_rgba16
                0x00000000070ac1d8                jrb_dl_rings_pal_rgba16_aligner
                0x00000000070ac1e0                jrb_dl_rings_ci8
                0x00000000070ac5e0                jrb_dl_rings_ci8_aligner
                0x00000000070ac5e8                jrb_dl_yucky_pal_rgba16
                0x00000000070ac648                jrb_dl_yucky_pal_rgba16_aligner
                0x00000000070ac650                jrb_dl_yucky_ci8
                0x00000000070aca50                jrb_dl_yucky_ci8_aligner
                0x00000000070aca58                jrb_dl_KKIIDDZZ_DAT_964__p00_pal_rgba16_copy
                0x00000000070acb38                jrb_dl_KKIIDDZZ_DAT_964__p00_pal_rgba16_copy_aligner
                0x00000000070acb40                jrb_dl_KKIIDDZZ_DAT_964__p00_ci8_copy
                0x00000000070acf40                jrb_dl_KKIIDDZZ_DAT_964__p00_ci8_copy_aligner
                0x00000000070acf48                jrb_dl_GM4E01_3b9bd952_14_pal_rgba16
                0x00000000070acf70                jrb_dl_GM4E01_3b9bd952_14_pal_rgba16_aligner
                0x00000000070acf78                jrb_dl_GM4E01_3b9bd952_14_ci8
                0x00000000070ad378                jrb_dl_GM4E01_3b9bd952_14_ci8_aligner
                0x00000000070ad380                jrb_dl_light_pal_rgba16
                0x00000000070ad388                jrb_dl_light_pal_rgba16_aligner
                0x00000000070ad390                jrb_dl_light_ci4
                0x00000000070ad590                jrb_dl_light_ci4_aligner
                0x00000000070ad598                jrb_dl_KKIIDDZZ_DAT_1060__p00_pal_rgba16
                0x00000000070ad638                jrb_dl_KKIIDDZZ_DAT_1060__p00_pal_rgba16_aligner
                0x00000000070ad640                jrb_dl_KKIIDDZZ_DAT_1060__p00_ci8
                0x00000000070ada40                jrb_dl_KKIIDDZZ_DAT_1060__p00_ci8_aligner
                0x00000000070ada48                jrb_dl_ci4_sophie_wall_pal_rgba16
                0x00000000070ada68                jrb_dl_ci4_sophie_wall_pal_rgba16_aligner
                0x00000000070ada70                jrb_dl_ci4_sophie_wall_ci4
                0x00000000070ae270                jrb_dl_ci4_sophie_wall_ci4_aligner
                0x00000000070ae278                jrb_dl_ci4_sophie_metal2_pal_rgba16
                0x00000000070ae298                jrb_dl_ci4_sophie_metal2_pal_rgba16_aligner
                0x00000000070ae2a0                jrb_dl_ci4_sophie_metal2_ci4
                0x00000000070aeaa0                jrb_dl_ci4_sophie_metal2_ci4_aligner
                0x00000000070aeaa8                jrb_dl_rgba16_anonmoose_envmap_gold1_pal_rgba16
                0x00000000070aec18                jrb_dl_rgba16_anonmoose_envmap_gold1_pal_rgba16_aligner
                0x00000000070aec20                jrb_dl_rgba16_anonmoose_envmap_gold1_ci8
                0x00000000070af020                jrb_dl_rgba16_anonmoose_envmap_gold1_ci8_aligner
                0x00000000070af028                jrb_dl_ci4_anonmoose_whiteblock_pal_rgba16
                0x00000000070af048                jrb_dl_ci4_anonmoose_whiteblock_pal_rgba16_aligner
                0x00000000070af050                jrb_dl_ci4_anonmoose_whiteblock_ci4
                0x00000000070af850                jrb_dl_ci4_anonmoose_whiteblock_ci4_aligner
                0x00000000070af858                jrb_dl_tempImgEd032C_pal_rgba16
                0x00000000070af9d8                jrb_dl_tempImgEd032C_pal_rgba16_aligner
                0x00000000070af9e0                jrb_dl_tempImgEd032C_ci8
                0x00000000070afde0                jrb_dl_tempImgEd032C_ci8_aligner
                0x00000000070afde8                jrb_dl_KKIIDDZZ_DAT_972__p00_pal_rgba16
                0x00000000070aff18                jrb_dl_KKIIDDZZ_DAT_972__p00_pal_rgba16_aligner
                0x00000000070aff20                jrb_dl_KKIIDDZZ_DAT_972__p00_ci8
                0x00000000070b0320                jrb_dl_KKIIDDZZ_DAT_972__p00_ci8_aligner
                0x00000000070b0328                jrb_dl_invisible_ia8
                0x00000000070b0728                jrb_dl_invisible_ia8_aligner
                0x00000000070b0730                jrb_dl_KKIIDDZZ_DAT_1061__p00_pal_rgba16
                0x00000000070b07f8                jrb_dl_KKIIDDZZ_DAT_1061__p00_pal_rgba16_aligner
                0x00000000070b0800                jrb_dl_KKIIDDZZ_DAT_1061__p00_ci8
                0x00000000070b0c00                jrb_dl_KKIIDDZZ_DAT_1061__p00_ci8_aligner
                0x00000000070b0c08                jrb_dl_KKIIDDZZ_DAT_971__p00_pal_rgba16
                0x00000000070b0d30                jrb_dl_KKIIDDZZ_DAT_971__p00_pal_rgba16_aligner
                0x00000000070b0d38                jrb_dl_KKIIDDZZ_DAT_971__p00_ci8
                0x00000000070b1138                jrb_dl_KKIIDDZZ_DAT_971__p00_ci8_aligner
                0x00000000070b1140                jrb_dl_KKIIDDZZ_DAT_1059__p00_pal_rgba16
                0x00000000070b11c8                jrb_dl_KKIIDDZZ_DAT_1059__p00_pal_rgba16_aligner
                0x00000000070b11d0                jrb_dl_KKIIDDZZ_DAT_1059__p00_ci8
                0x00000000070b15d0                jrb_dl_KKIIDDZZ_DAT_1059__p00_ci8_aligner
                0x00000000070b15d8                jrb_dl_ci4_anonmoose_treebark1_pal_rgba16
                0x00000000070b15f8                jrb_dl_ci4_anonmoose_treebark1_pal_rgba16_aligner
                0x00000000070b1600                jrb_dl_ci4_anonmoose_treebark1_ci4
                0x00000000070b1e00                jrb_dl_ci4_anonmoose_treebark1_ci4_aligner
                0x00000000070b1e08                jrb_dl__25_pal_rgba16
                0x00000000070b1e78                jrb_dl__25_pal_rgba16_aligner
                0x00000000070b1e80                jrb_dl__25_ci8
                0x00000000070b2280                jrb_dl__25_ci8_aligner
                0x00000000070b2288                jrb_dl_KKIIDDZZ_DAT_964__p00_pal_rgba16
                0x00000000070b2368                jrb_dl_KKIIDDZZ_DAT_964__p00_pal_rgba16_aligner
                0x00000000070b2370                jrb_dl_KKIIDDZZ_DAT_964__p00_ci8
                0x00000000070b2770                jrb_dl_KKIIDDZZ_DAT_964__p00_ci8_aligner
                0x00000000070b2778                jrb_dl_ci4_zeina_water_1_pal_rgba16
                0x00000000070b2798                jrb_dl_ci4_zeina_water_1_pal_rgba16_aligner
                0x00000000070b27a0                jrb_dl_ci4_zeina_water_1_ci4
                0x00000000070b2fa0                jrb_dl_ci4_zeina_water_1_ci4_aligner
                0x00000000070b2fa8                jrb_dl_ci4_sophie_rooftile_pal_rgba16
                0x00000000070b2fc8                jrb_dl_ci4_sophie_rooftile_pal_rgba16_aligner
                0x00000000070b2fd0                jrb_dl_ci4_sophie_rooftile_ci4
                0x00000000070b37d0                jrb_dl_ci4_sophie_rooftile_ci4_aligner
                0x00000000070b37d8                jrb_dl_ci4_sophie_broom_pal_rgba16
                0x00000000070b37f8                jrb_dl_ci4_sophie_broom_pal_rgba16_aligner
                0x00000000070b3800                jrb_dl_ci4_sophie_broom_ci4
                0x00000000070b4000                jrb_dl_ci4_sophie_broom_ci4_aligner
                0x00000000070b4008                jrb_dl_ci4_sophie_wood2_pal_rgba16
                0x00000000070b4028                jrb_dl_ci4_sophie_wood2_pal_rgba16_aligner
                0x00000000070b4030                jrb_dl_ci4_sophie_wood2_ci4
                0x00000000070b4830                jrb_dl_ci4_sophie_wood2_ci4_aligner
                0x00000000070b4838                jrb_dl_ci4_sophie_interiorwall_pal_rgba16
                0x00000000070b4850                jrb_dl_ci4_sophie_interiorwall_pal_rgba16_aligner
                0x00000000070b4858                jrb_dl_ci4_sophie_interiorwall_ci4
                0x00000000070b5058                jrb_dl_ci4_sophie_interiorwall_ci4_aligner
                0x00000000070b5060                jrb_dl_KKIIDDZZ_DAT_1818__p00_pal_rgba16
                0x00000000070b5138                jrb_dl_KKIIDDZZ_DAT_1818__p00_pal_rgba16_aligner
                0x00000000070b5140                jrb_dl_KKIIDDZZ_DAT_1818__p00_ci8
                0x00000000070b5540                jrb_dl_KKIIDDZZ_DAT_1818__p00_ci8_aligner
                0x00000000070b5548                jrb_dl_ci4_anonmoose_Dirt1_pal_rgba16
                0x00000000070b5580                jrb_dl_ci4_anonmoose_Dirt1_pal_rgba16_aligner
                0x00000000070b5588                jrb_dl_ci4_anonmoose_Dirt1_ci8
                0x00000000070b5988                jrb_dl_ci4_anonmoose_Dirt1_ci8_aligner
                0x00000000070b5990                jrb_dl_YOSHIS_ISLAND_6467B7C8B140_all_ia8
                0x00000000070b6990                jrb_dl_YOSHIS_ISLAND_6467B7C8B140_all_ia8_aligner
                0x00000000070b6998                jrb_dl_KKIIDDZZ_DAT_2237__p00_pal_rgba16
                0x00000000070b69b8                jrb_dl_KKIIDDZZ_DAT_2237__p00_pal_rgba16_aligner
                0x00000000070b69c0                jrb_dl_KKIIDDZZ_DAT_2237__p00_ci4
                0x00000000070b71c0                jrb_dl_KKIIDDZZ_DAT_2237__p00_ci4_aligner
                0x00000000070b71c8                jrb_dl_KKIIDDZZ_DAT_2238__p00_pal_rgba16
                0x00000000070b71e8                jrb_dl_KKIIDDZZ_DAT_2238__p00_pal_rgba16_aligner
                0x00000000070b71f0                jrb_dl_KKIIDDZZ_DAT_2238__p00_ci4
                0x00000000070b79f0                jrb_dl_KKIIDDZZ_DAT_2238__p00_ci4_aligner
                0x00000000070b79f8                jrb_dl_KKIIDDZZ_DAT_684__p00_pal_rgba16
                0x00000000070b7a10                jrb_dl_KKIIDDZZ_DAT_684__p00_pal_rgba16_aligner
                0x00000000070b7a18                jrb_dl_KKIIDDZZ_DAT_684__p00_ci4
                0x00000000070b8218                jrb_dl_KKIIDDZZ_DAT_684__p00_ci4_aligner
                0x00000000070b8220                jrb_area_1_macro_objs
                0x00000000070b8224                jrb_area_1_collision
                0x00000000070e8a1c                jrb_movtex_sunken_ship_water
                0x00000000070e8a4c                jrb_seg7_area_2_macro_objs
                0x00000000070e8a58                jrb_seg7_area_2_collision
                0x00000000070e9b08                jrb_seg7_dl_07010548
                0x00000000070ea158                jrb_seg7_dl_0700FE48
                0x00000000070eaf38                jrb_seg7_dl_0700EF00
                0x00000000070ec900                jrb_movtex_initial_mist
                0x00000000070ec930                jrb_movtex_water
                0x00000000070ec988                jrb_seg7_trajectory_unagi_2
                0x00000000070ec9d4                jrb_seg7_trajectory_unagi_1
                0x00000000070eca08                jrb_seg7_collision_0700D1DC
                0x00000000070eca3c                jrb_seg7_collision_pillar_base
                0x00000000070eca88                jrb_seg7_collision_in_sunken_ship_2
                0x00000000070ecd0c                jrb_seg7_collision_0700CEF0
                0x00000000070ecdb4                jrb_seg7_collision_in_sunken_ship
                0x00000000070ece60                jrb_seg7_collision_in_sunken_ship_3
                0x00000000070ed4a8                jrb_seg7_collision_floating_box
                0x00000000070ed544                jrb_seg7_collision_floating_platform
                0x00000000070ed5e0                jrb_seg7_collision_rock_solid
                0x00000000070ed6d4                jrb_seg7_area_1_macro_objs
                0x00000000070ed944                jrb_seg7_area_1_collision
                0x00000000070ef208                jrb_seg7_dl_0700AFB0
                0x00000000070ef358                jrb_seg7_dl_0700AE48
                0x00000000070ef4e8                jrb_seg7_dl_0700AC68
                0x00000000070efaa8                jrb_seg7_dl_0700A608
                0x00000000070f0460                jrb_seg7_dl_07009B30
                0x00000000070f0540                jrb_seg7_dl_07009A58
                0x00000000070f0df0                jrb_seg7_dl_070090B0
                0x00000000070f0ed0                jrb_seg7_dl_07008FD8
                0x00000000070f1c38                jrb_seg7_dl_070080F8
                0x00000000070f1f08                jrb_seg7_dl_07007DC8
                0x00000000070f2200                jrb_seg7_dl_07007AC8
                0x00000000070f2528                jrb_seg7_dl_07007718
                0x00000000070f26e0                jrb_seg7_dl_07007570
                0x00000000070f3170                jrb_seg7_dl_070069B0
                0x00000000070f40c8                jrb_seg7_dl_070058C8
                0x00000000070f4bb0                jrb_seg7_dl_07004C78
                0x00000000070f4e88                jrb_seg7_dl_07004940
                0x00000000070f6528                jrb_seg7_dl_07002FD0

.data1
 *(.data1)

.got.plt
 *(.got.plt)
                0x00000000070f9500                . = .
                0x00000000070f9500                . = .
                0x00000000071014f0                _gp = (ALIGN (0x10) + 0x7ff0)

.got
 *(.got)

.sdata
 *(.sdata .sdata.* .gnu.linkonce.s.*)

.lit8
 *(.lit8)

.lit4
 *(.lit4)
                0x00000000070f9500                _edata = .
                [!provide]                        PROVIDE (edata = .)
                0x00000000070f9500                . = .
                0x00000000070f9500                __bss_start = .
                0x00000000070f9500                _fbss = .

.sbss
 *(.dynsbss)
 *(.sbss .sbss.* .gnu.linkonce.sb.*)
 *(.scommon)

.bss            0x00000000070f9500        0x0 load address 0x00000000070f9518
 *(.dynbss)
 *(.bss .bss.* .gnu.linkonce.b.*)
 .bss           0x00000000070f9500        0x0 build/us_n64/levels/jrb/leveldata.o
 *(COMMON)
                0x00000000070f9500                . = ALIGN ((. != 0x0)?0x4:0x1)
                0x00000000070f9500                . = ALIGN (0x4)
                0x00000000070f9500                . = SEGMENT_START ("ldata-segment", .)
                0x00000000070f9500                . = ALIGN (0x4)
                0x00000000070f9500                _end = .
                [!provide]                        PROVIDE (end = .)
                0x00000000070f9500                . = DATA_SEGMENT_END (.)

.stab
 *(.stab)

.stabstr
 *(.stabstr)

.stab.excl
 *(.stab.excl)

.stab.exclstr
 *(.stab.exclstr)

.stab.index
 *(.stab.index)

.stab.indexstr
 *(.stab.indexstr)

.comment        0x0000000000000000       0x12
 *(.comment)
 .comment       0x0000000000000000       0x12 build/us_n64/levels/jrb/leveldata.o
                                         0x13 (size before relaxing)

.pdr            0x0000000000000000        0x0
 .pdr           0x0000000000000000        0x0 build/us_n64/levels/jrb/leveldata.o

.debug
 *(.debug)

.line
 *(.line)

.debug_srcinfo
 *(.debug_srcinfo)

.debug_sfnames
 *(.debug_sfnames)

.debug_aranges
 *(.debug_aranges)

.debug_pubnames
 *(.debug_pubnames)

.debug_info
 *(.debug_info .gnu.linkonce.wi.*)

.debug_abbrev
 *(.debug_abbrev)

.debug_line
 *(.debug_line .debug_line.* .debug_line_end)

.debug_frame
 *(.debug_frame)

.debug_str
 *(.debug_str)

.debug_loc
 *(.debug_loc)

.debug_macinfo
 *(.debug_macinfo)

.debug_weaknames
 *(.debug_weaknames)

.debug_funcnames
 *(.debug_funcnames)

.debug_typenames
 *(.debug_typenames)

.debug_varnames
 *(.debug_varnames)

.debug_pubtypes
 *(.debug_pubtypes)

.debug_ranges
 *(.debug_ranges)

.debug_macro
 *(.debug_macro)

.debug_addr
 *(.debug_addr)

.gnu.attributes
                0x0000000000000000       0x10
 *(.gnu.attributes)
 .gnu.attributes
                0x0000000000000000       0x10 build/us_n64/levels/jrb/leveldata.o

.gptab.sdata
 *(.gptab.data)
 *(.gptab.sdata)

.gptab.sbss
 *(.gptab.bss)
 *(.gptab.sbss)

.mdebug.abi32   0x0000000000000000        0x0
 *(.mdebug.abi32)
 .mdebug.abi32  0x0000000000000000        0x0 build/us_n64/levels/jrb/leveldata.o

.mdebug.abiN32
 *(.mdebug.abiN32)

.mdebug.abi64
 *(.mdebug.abi64)

.mdebug.abiO64
 *(.mdebug.abiO64)

.mdebug.eabi32
 *(.mdebug.eabi32)

.mdebug.eabi64
 *(.mdebug.eabi64)

.gcc_compiled_long32
 *(.gcc_compiled_long32)

.gcc_compiled_long64
 *(.gcc_compiled_long64)

/DISCARD/
 *(.note.GNU-stack)
 *(.gnu_debuglink)
 *(.gnu.lto_*)
OUTPUT(build/us_n64/levels/jrb/leveldata.elf elf32-bigmips)
