
Memory Configuration

Name             Origin             Length             Attributes
*default*        0x0000000000000000 0xffffffffffffffff

Linker script and memory map

Address of section .text set to 0x7000000
LOAD build/us_n64/bin/water.elf
LOAD build/us_n64/levels/jrb/leveldata.o
                [!provide]                        PROVIDE (__executable_start = SEGMENT_START ("text-segment", 0x400000))
                0x0000000000400000                . = SEGMENT_START ("text-segment", 0x400000)

.interp
 *(.interp)

.MIPS.abiflags  0x0000000000400000       0x18
 *(.MIPS.abiflags)
 .MIPS.abiflags
                0x0000000000400000       0x18 build/us_n64/levels/jrb/leveldata.o

.reginfo        0x0000000000400018       0x18
 *(.reginfo)
 .reginfo       0x0000000000400018       0x18 build/us_n64/levels/jrb/leveldata.o

.note.gnu.build-id
 *(.note.gnu.build-id)

.dynamic
 *(.dynamic)

.hash
 *(.hash)

.gnu.hash
 *(.gnu.hash)

.dynsym
 *(.dynsym)

.dynstr
 *(.dynstr)

.gnu.version
 *(.gnu.version)

.gnu.version_d
 *(.gnu.version_d)

.gnu.version_r
 *(.gnu.version_r)

.rel.dyn        0x0000000000400018        0x0 load address 0x0000000000400030
 *(.rel.init)
 *(.rel.text .rel.text.* .rel.gnu.linkonce.t.*)
 *(.rel.fini)
 *(.rel.rodata .rel.rodata.* .rel.gnu.linkonce.r.*)
 *(.rel.data.rel.ro .rel.data.rel.ro.* .rel.gnu.linkonce.d.rel.ro.*)
 *(.rel.data .rel.data.* .rel.gnu.linkonce.d.*)
 *(.rel.tdata .rel.tdata.* .rel.gnu.linkonce.td.*)
 *(.rel.tbss .rel.tbss.* .rel.gnu.linkonce.tb.*)
 *(.rel.ctors)
 *(.rel.dtors)
 *(.rel.got)
 *(.rel.dyn)
 .rel.dyn       0x0000000000400018        0x0 build/us_n64/levels/jrb/leveldata.o
 *(.rel.sdata .rel.sdata.* .rel.gnu.linkonce.s.*)
 *(.rel.sbss .rel.sbss.* .rel.gnu.linkonce.sb.*)
 *(.rel.sdata2 .rel.sdata2.* .rel.gnu.linkonce.s2.*)
 *(.rel.sbss2 .rel.sbss2.* .rel.gnu.linkonce.sb2.*)
 *(.rel.bss .rel.bss.* .rel.gnu.linkonce.b.*)
                [!provide]                        PROVIDE (__rel_iplt_start = .)
 *(.rel.iplt)
                [!provide]                        PROVIDE (__rel_iplt_end = .)

.rela.dyn       0x0000000000400018        0x0
 *(.rela.init)
 *(.rela.text .rela.text.* .rela.gnu.linkonce.t.*)
 *(.rela.fini)
 *(.rela.rodata .rela.rodata.* .rela.gnu.linkonce.r.*)
 *(.rela.data .rela.data.* .rela.gnu.linkonce.d.*)
 *(.rela.tdata .rela.tdata.* .rela.gnu.linkonce.td.*)
 *(.rela.tbss .rela.tbss.* .rela.gnu.linkonce.tb.*)
 *(.rela.ctors)
 *(.rela.dtors)
 *(.rela.got)
 *(.rela.sdata .rela.sdata.* .rela.gnu.linkonce.s.*)
 *(.rela.sbss .rela.sbss.* .rela.gnu.linkonce.sb.*)
 *(.rela.sdata2 .rela.sdata2.* .rela.gnu.linkonce.s2.*)
 *(.rela.sbss2 .rela.sbss2.* .rela.gnu.linkonce.sb2.*)
 *(.rela.bss .rela.bss.* .rela.gnu.linkonce.b.*)
                [!provide]                        PROVIDE (__rela_iplt_start = .)
 *(.rela.iplt)
                [!provide]                        PROVIDE (__rela_iplt_end = .)

.rel.plt
 *(.rel.plt)

.rela.plt
 *(.rela.plt)

.init
 *(SORT_NONE(.init))

.plt
 *(.plt)

.iplt
 *(.iplt)

.text           0x0000000007000000        0x0 load address 0x0000000007000018
                0x0000000007000000                _ftext = .
 *(.text.unlikely .text.*_unlikely .text.unlikely.*)
 *(.text.exit .text.exit.*)
 *(.text.startup .text.startup.*)
 *(.text.hot .text.hot.*)
 *(.text .stub .text.* .gnu.linkonce.t.*)
 .text          0x0000000007000000        0x0 build/us_n64/levels/jrb/leveldata.o
 *(.gnu.warning)
 *(.mips16.fn.*)
 *(.mips16.call.*)

.fini
 *(SORT_NONE(.fini))
                [!provide]                        PROVIDE (__etext = .)
                [!provide]                        PROVIDE (_etext = .)
                [!provide]                        PROVIDE (etext = .)

.rodata
 *(.rodata .rodata.* .gnu.linkonce.r.*)

.rodata1
 *(.rodata1)

.sdata2
 *(.sdata2 .sdata2.* .gnu.linkonce.s2.*)

.sbss2
 *(.sbss2 .sbss2.* .gnu.linkonce.sb2.*)

.eh_frame_hdr
 *(.eh_frame_hdr)
 *(.eh_frame_entry .eh_frame_entry.*)

.eh_frame
 *(.eh_frame)
 *(.eh_frame.*)

.gcc_except_table
 *(.gcc_except_table .gcc_except_table.*)

.gnu_extab
 *(.gnu_extab*)

.exception_ranges
 *(.exception_ranges .exception_ranges*)
                0x0000000007000000                . = DATA_SEGMENT_ALIGN (CONSTANT (MAXPAGESIZE), CONSTANT (COMMONPAGESIZE))

.eh_frame
 *(.eh_frame)
 *(.eh_frame.*)

.gnu_extab
 *(.gnu_extab)

.gcc_except_table
 *(.gcc_except_table .gcc_except_table.*)

.exception_ranges
 *(.exception_ranges .exception_ranges*)

.tdata
 *(.tdata .tdata.* .gnu.linkonce.td.*)

.tbss
 *(.tbss .tbss.* .gnu.linkonce.tb.*)
 *(.tcommon)

.preinit_array  0x0000000007000000        0x0
                [!provide]                        PROVIDE (__preinit_array_start = .)
 *(.preinit_array)
                [!provide]                        PROVIDE (__preinit_array_end = .)

.init_array     0x0000000007000000        0x0
                [!provide]                        PROVIDE (__init_array_start = .)
 *(SORT_BY_INIT_PRIORITY(.init_array.*) SORT_BY_INIT_PRIORITY(.ctors.*))
 *(.init_array EXCLUDE_FILE(*crtend?.o *crtend.o *crtbegin?.o *crtbegin.o) .ctors)
                [!provide]                        PROVIDE (__init_array_end = .)

.fini_array     0x0000000007000000        0x0
                [!provide]                        PROVIDE (__fini_array_start = .)
 *(SORT_BY_INIT_PRIORITY(.fini_array.*) SORT_BY_INIT_PRIORITY(.dtors.*))
 *(.fini_array EXCLUDE_FILE(*crtend?.o *crtend.o *crtbegin?.o *crtbegin.o) .dtors)
                [!provide]                        PROVIDE (__fini_array_end = .)

.ctors
 *crtbegin.o(.ctors)
 *crtbegin?.o(.ctors)
 *(EXCLUDE_FILE(*crtend?.o *crtend.o) .ctors)
 *(SORT_BY_NAME(.ctors.*))
 *(.ctors)

.dtors
 *crtbegin.o(.dtors)
 *crtbegin?.o(.dtors)
 *(EXCLUDE_FILE(*crtend?.o *crtend.o) .dtors)
 *(SORT_BY_NAME(.dtors.*))
 *(.dtors)

.jcr
 *(.jcr)

.data.rel.ro
 *(.data.rel.ro.local* .gnu.linkonce.d.rel.ro.local.*)
 *(.data.rel.ro .data.rel.ro.* .gnu.linkonce.d.rel.ro.*)
                0x0000000007000000                . = DATA_SEGMENT_RELRO_END (., 0x0)

.data           0x0000000007000000    0xf1a90 load address 0x0000000007000018
                0x0000000007000000                _fdata = .
 *(.data .data.* .gnu.linkonce.d.*)
 .data          0x0000000007000000    0xf1a90 build/us_n64/levels/jrb/leveldata.o
                0x0000000007000000                jrb_dl_final_revert_mesh_layer_4
                0x0000000007000040                jrb_dl_final_revert_mesh_layer_5
                0x0000000007000080                jrb_dl_final_revert_mesh_layer_1
                0x00000000070000c0                jrb_dl_wind_platform_004_mesh_layer_4
                0x0000000007000100                jrb_dl_wind_platform_003_mesh_layer_4
                0x0000000007000140                jrb_dl_wind_platform_002_mesh_layer_4
                0x0000000007000180                jrb_dl_wind_platform_001_mesh_layer_4
                0x00000000070001c0                jrb_dl_wind_platform_mesh_layer_4
                0x0000000007000200                jrb_dl_waterfall_mesh_layer_5
                0x0000000007000240                jrb_dl_water_mesh_layer_5
                0x0000000007000280                jrb_dl_tree_mesh_layer_1
                0x00000000070002d8                jrb_dl_small_fan_001_mesh_layer_1
                0x0000000007000330                jrb_dl_SM_Fountain_02_mesh_layer_1
                0x00000000070003a0                jrb_dl_rock_002_mesh_layer_1
                0x00000000070003e0                jrb_dl_rock_001_mesh_layer_1
                0x0000000007000420                jrb_dl_rock_mesh_layer_1
                0x0000000007000460                jrb_dl_render_004_mesh_layer_1
                0x00000000070004a0                jrb_dl_render_003_mesh_layer_1
                0x00000000070004e0                jrb_dl_render_002_mesh_layer_1
                0x0000000007000520                jrb_dl_render_001_mesh_layer_1
                0x0000000007000560                jrb_dl_pillar_030_mesh_layer_1
                0x00000000070005a0                jrb_dl_pillar_029_mesh_layer_1
                0x00000000070005e0                jrb_dl_pillar_028_mesh_layer_1
                0x0000000007000620                jrb_dl_pillar_027_mesh_layer_1
                0x0000000007000660                jrb_dl_pillar_026_mesh_layer_1
                0x00000000070006a0                jrb_dl_pillar_025_mesh_layer_1
                0x00000000070006e0                jrb_dl_pillar_024_mesh_layer_1
                0x0000000007000720                jrb_dl_pillar_022_mesh_layer_1
                0x0000000007000760                jrb_dl_pillar_021_mesh_layer_1
                0x00000000070007a0                jrb_dl_pillar_020_mesh_layer_4
                0x00000000070007e0                jrb_dl_pillar_019_mesh_layer_1
                0x0000000007000820                jrb_dl_pillar_018_mesh_layer_1
                0x0000000007000860                jrb_dl_pillar_017_mesh_layer_1
                0x00000000070008a0                jrb_dl_pillar_016_mesh_layer_1
                0x00000000070008e0                jrb_dl_pillar_015_mesh_layer_1
                0x0000000007000920                jrb_dl_pillar_014_mesh_layer_1
                0x0000000007000960                jrb_dl_pillar_013_mesh_layer_1
                0x00000000070009a0                jrb_dl_pillar_012_mesh_layer_1
                0x00000000070009e0                jrb_dl_pillar_011_mesh_layer_1
                0x0000000007000a20                jrb_dl_pillar_009_mesh_layer_1
                0x0000000007000a60                jrb_dl_pillar_008_mesh_layer_1
                0x0000000007000aa0                jrb_dl_pillar_007_mesh_layer_1
                0x0000000007000ae0                jrb_dl_pillar_006_mesh_layer_1
                0x0000000007000b20                jrb_dl_pillar_005_mesh_layer_1
                0x0000000007000b60                jrb_dl_pillar_004_mesh_layer_1
                0x0000000007000ba0                jrb_dl_pillar_003_mesh_layer_1
                0x0000000007000be0                jrb_dl_pillar_002_mesh_layer_1
                0x0000000007000c20                jrb_dl_pillar_001_mesh_layer_1
                0x0000000007000c60                jrb_dl_pillar_mesh_layer_1
                0x0000000007000cd0                jrb_dl_picnic_mesh_layer_1
                0x0000000007000d10                jrb_dl_owl_crest_mesh_layer_1
                0x0000000007000d80                jrb_dl_mossy_stone_001_mesh_layer_1
                0x0000000007000dc0                jrb_dl_mossy_stone_mesh_layer_1
                0x0000000007000e00                jrb_dl_massive_pillar_003_mesh_layer_4
                0x0000000007000e40                jrb_dl_massive_pillar_mesh_layer_1
                0x0000000007000ec8                jrb_dl_Icosphere_015_mesh_layer_1
                0x0000000007000f08                jrb_dl_Icosphere_014_mesh_layer_1
                0x0000000007000f48                jrb_dl_Icosphere_013_mesh_layer_1
                0x0000000007000fe8                jrb_dl_Icosphere_003_mesh_layer_1
                0x0000000007001028                jrb_dl_Icosphere_002_mesh_layer_1
                0x0000000007001068                jrb_dl_Icosphere_001_mesh_layer_1
                0x00000000070010a8                jrb_dl_Houses_SecondAge_3_Level1_004_mesh_layer_1
                0x0000000007001148                jrb_dl_Houses_SecondAge_3_Level1_003_mesh_layer_1
                0x00000000070011e8                jrb_dl_Houses_SecondAge_3_Level1_002_mesh_layer_1
                0x0000000007001288                jrb_dl_Houses_SecondAge_3_Level1_001_mesh_layer_1
                0x0000000007001328                jrb_dl_Houses_SecondAge_3_Level1_mesh_layer_1
                0x00000000070013c8                jrb_dl_Houses_SecondAge_1_Level1_001_mesh_layer_1
                0x0000000007001468                jrb_dl_flowers_mesh_layer_5
                0x00000000070014a8                jrb_dl_flowers_mesh_layer_4
                0x00000000070014e8                jrb_dl_Cylinder_001_mesh_layer_1
                0x0000000007001570                jrb_dl_Cylinder_mesh_layer_1
                0x00000000070015f8                jrb_dl_Cube_066_mesh_layer_1
                0x0000000007001638                jrb_dl_Cube_065_mesh_layer_1
                0x0000000007001678                jrb_dl_Cube_064_mesh_layer_1
                0x00000000070016b8                jrb_dl_Cube_063_mesh_layer_1
                0x00000000070016f8                jrb_dl_Cube_060_mesh_layer_1
                0x0000000007001738                jrb_dl_Cube_058_mesh_layer_1
                0x0000000007001778                jrb_dl_Cube_057_mesh_layer_1
                0x00000000070017b8                jrb_dl_Cube_056_mesh_layer_1
                0x00000000070017f8                jrb_dl_Cube_055_mesh_layer_1
                0x0000000007001838                jrb_dl_Cube_054_mesh_layer_1
                0x0000000007001878                jrb_dl_Cube_053_mesh_layer_1
                0x00000000070018b8                jrb_dl_Cube_052_mesh_layer_1
                0x00000000070018f8                jrb_dl_Cube_051_mesh_layer_1
                0x0000000007001938                jrb_dl_Cube_050_mesh_layer_1
                0x0000000007001978                jrb_dl_Cube_049_mesh_layer_1
                0x00000000070019b8                jrb_dl_Cube_048_mesh_layer_1
                0x00000000070019f8                jrb_dl_Cube_047_mesh_layer_1
                0x0000000007001a38                jrb_dl_Cube_046_mesh_layer_1
                0x0000000007001a78                jrb_dl_Cube_045_mesh_layer_1
                0x0000000007001ab8                jrb_dl_Cube_044_mesh_layer_1
                0x0000000007001af8                jrb_dl_Cube_043_mesh_layer_1
                0x0000000007001b38                jrb_dl_Cube_042_mesh_layer_1
                0x0000000007001b78                jrb_dl_Cube_041_mesh_layer_1
                0x0000000007001bb8                jrb_dl_Cube_040_mesh_layer_1
                0x0000000007001bf8                jrb_dl_Cube_039_mesh_layer_5
                0x0000000007001c38                jrb_dl_Cube_037_mesh_layer_1
                0x0000000007001c78                jrb_dl_Cube_036_mesh_layer_1
                0x0000000007001cb8                jrb_dl_Cube_035_mesh_layer_1
                0x0000000007001d28                jrb_dl_Cube_034_mesh_layer_1
                0x0000000007001d68                jrb_dl_Cube_031_mesh_layer_1
                0x0000000007001da8                jrb_dl_Cube_030_mesh_layer_1
                0x0000000007001de8                jrb_dl_Cube_029_mesh_layer_4
                0x0000000007001e28                jrb_dl_Cube_020_mesh_layer_5
                0x0000000007001e68                jrb_dl_Cube_019_mesh_layer_1
                0x0000000007001ef0                jrb_dl_Cube_018_mesh_layer_5
                0x0000000007001f30                jrb_dl_Cube_017_mesh_layer_1
                0x0000000007001f70                jrb_dl_Cube_016_mesh_layer_5
                0x0000000007001fb0                jrb_dl_Cube_014_mesh_layer_1
                0x0000000007001ff0                jrb_dl_Cube_013_mesh_layer_1
                0x0000000007002030                jrb_dl_Cube_012_mesh_layer_1
                0x0000000007002088                jrb_dl_Cube_011_mesh_layer_5
                0x00000000070020c8                jrb_dl_Cube_011_mesh_layer_1
                0x0000000007002120                jrb_dl_Cube_010_mesh_layer_1
                0x0000000007002160                jrb_dl_Cube_009_mesh_layer_1
                0x00000000070021a0                jrb_dl_Cube_008_mesh_layer_1
                0x00000000070021e0                jrb_dl_Cube_007_mesh_layer_1
                0x0000000007002220                jrb_dl_Cube_006_mesh_layer_1
                0x0000000007002260                jrb_dl_Cube_005_mesh_layer_1
                0x00000000070022a0                jrb_dl_Cube_004_mesh_layer_1
                0x00000000070022e0                jrb_dl_Cube_003_mesh_layer_1
                0x0000000007002320                jrb_dl_Cube_002_mesh_layer_1
                0x0000000007002360                jrb_dl_Cube_mesh_layer_1
                0x0000000007002400                jrb_dl_bell_mesh_layer_1
                0x0000000007002440                jrb_dl_Beach_Chairs_and_Umbrella_mesh_layer_1
                0x0000000007002498                mat_revert_jrb_dl_tree_rings
                0x00000000070024b8                mat_jrb_dl_tree_rings
                0x0000000007002548                mat_revert_jrb_dl_bark
                0x0000000007002568                mat_jrb_dl_bark
                0x00000000070025f8                mat_revert_jrb_dl_metal_2
                0x0000000007002618                mat_jrb_dl_metal_2
                0x00000000070026a8                mat_revert_jrb_dl_grey_diamond
                0x00000000070026c8                mat_jrb_dl_grey_diamond
                0x0000000007002758                mat_revert_jrb_dl_white_bevel
                0x0000000007002780                mat_jrb_dl_white_bevel
                0x0000000007002818                mat_revert_jrb_dl_old_stone
                0x0000000007002838                mat_jrb_dl_old_stone
                0x00000000070028c8                mat_revert_jrb_dl_picnic
                0x00000000070028e8                mat_jrb_dl_picnic
                0x0000000007002978                mat_revert_jrb_dl_f3dlite_material
                0x0000000007002998                mat_jrb_dl_f3dlite_material
                0x0000000007002a28                mat_revert_jrb_dl_metal_1
                0x0000000007002a48                mat_jrb_dl_metal_1
                0x0000000007002ad8                mat_revert_jrb_dl_gold
                0x0000000007002af8                mat_jrb_dl_gold
                0x0000000007002b88                mat_revert_jrb_dl_flowers_002
                0x0000000007002bb0                mat_jrb_dl_flowers_002
                0x0000000007002c48                mat_revert_jrb_dl_bricks_001
                0x0000000007002c68                mat_jrb_dl_bricks_001
                0x0000000007002cf8                mat_revert_jrb_dl_light_dirt
                0x0000000007002d18                mat_jrb_dl_light_dirt
                0x0000000007002da8                mat_revert_jrb_dl_invisible
                0x0000000007002dc8                mat_jrb_dl_invisible
                0x0000000007002e48                mat_revert_jrb_dl_flowers
                0x0000000007002e70                mat_jrb_dl_flowers
                0x0000000007002f08                mat_revert_jrb_dl_light
                0x0000000007002f30                mat_jrb_dl_light
                0x0000000007002fd0                mat_revert_jrb_dl_f3dlite_material_001
                0x0000000007002ff0                mat_jrb_dl_f3dlite_material_001
                0x0000000007003080                mat_revert_jrb_dl_grate
                0x00000000070030a8                mat_jrb_dl_grate
                0x0000000007003140                mat_revert_jrb_dl_stone_path
                0x0000000007003160                mat_jrb_dl_stone_path
                0x00000000070031f0                mat_revert_jrb_dl_dirt_with_grass
                0x0000000007003210                mat_jrb_dl_dirt_with_grass
                0x00000000070032a0                mat_revert_jrb_dl_mossy_stone
                0x00000000070032c0                mat_jrb_dl_mossy_stone
                0x0000000007003350                mat_revert_jrb_dl_swirl
                0x0000000007003370                mat_jrb_dl_swirl
                0x0000000007003400                mat_revert_jrb_dl_stone_star
                0x0000000007003420                mat_jrb_dl_stone_star
                0x00000000070034b0                mat_revert_jrb_dl_water
                0x00000000070034d8                mat_jrb_dl_water
                0x0000000007003578                mat_revert_jrb_dl_dirt2
                0x0000000007003598                mat_jrb_dl_dirt2
                0x0000000007003628                mat_revert_jrb_dl_grass
                0x0000000007003648                mat_jrb_dl_grass
                0x00000000070036d8                mat_revert_jrb_dl_dirt
                0x00000000070036f8                mat_jrb_dl_dirt
                0x0000000007003788                mat_revert_jrb_dl_black
                0x00000000070037a0                mat_jrb_dl_black
                0x00000000070037e8                mat_revert_jrb_dl_rock
                0x0000000007003808                mat_jrb_dl_rock
                0x0000000007003898                mat_revert_jrb_dl_old_checker
                0x00000000070038b8                mat_jrb_dl_old_checker
                0x0000000007003948                mat_revert_jrb_dl_shingles
                0x0000000007003968                mat_jrb_dl_shingles
                0x00000000070039f8                mat_revert_jrb_dl_bricks
                0x0000000007003a18                mat_jrb_dl_bricks
                0x0000000007003aa8                mat_revert_jrb_dl_wood
                0x0000000007003ac8                mat_jrb_dl_wood
                0x0000000007003b58                mat_revert_jrb_dl_interior
                0x0000000007003b78                mat_jrb_dl_interior
                0x0000000007003c08                mat_revert_jrb_dl_caution
                0x0000000007003c28                mat_jrb_dl_caution
                0x0000000007003cb8                mat_revert_jrb_dl_hay
                0x0000000007003cd8                mat_jrb_dl_hay
                0x0000000007003d68                mat_revert_jrb_dl_wood2
                0x0000000007003d88                mat_jrb_dl_wood2
                0x0000000007003e18                jrb_dl_wind_platform_004_mesh_layer_4_tri_0
                0x0000000007003e30                jrb_dl_wind_platform_004_mesh_layer_4_vtx_0
                0x0000000007003e70                jrb_dl_wind_platform_004_mesh_layer_4_vtx_cull
                0x0000000007003ef0                jrb_dl_wind_platform_003_mesh_layer_4_tri_0
                0x0000000007003f08                jrb_dl_wind_platform_003_mesh_layer_4_vtx_0
                0x0000000007003f48                jrb_dl_wind_platform_003_mesh_layer_4_vtx_cull
                0x0000000007003fc8                jrb_dl_wind_platform_002_mesh_layer_4_tri_0
                0x0000000007003fe0                jrb_dl_wind_platform_002_mesh_layer_4_vtx_0
                0x0000000007004020                jrb_dl_wind_platform_002_mesh_layer_4_vtx_cull
                0x00000000070040a0                jrb_dl_wind_platform_001_mesh_layer_4_tri_0
                0x00000000070040b8                jrb_dl_wind_platform_001_mesh_layer_4_vtx_0
                0x00000000070040f8                jrb_dl_wind_platform_001_mesh_layer_4_vtx_cull
                0x0000000007004178                jrb_dl_wind_platform_mesh_layer_4_tri_0
                0x0000000007004190                jrb_dl_wind_platform_mesh_layer_4_vtx_0
                0x00000000070041d0                jrb_dl_wind_platform_mesh_layer_4_vtx_cull
                0x0000000007004250                jrb_dl_waterfall_mesh_layer_5_tri_0
                0x00000000070042d8                jrb_dl_waterfall_mesh_layer_5_vtx_0
                0x0000000007004658                jrb_dl_waterfall_mesh_layer_5_vtx_cull
                0x00000000070046d8                jrb_dl_water_mesh_layer_5_tri_0
                0x0000000007004718                jrb_dl_water_mesh_layer_5_vtx_0
                0x0000000007004898                jrb_dl_water_mesh_layer_5_vtx_cull
                0x0000000007004918                jrb_dl_tree_mesh_layer_1_tri_1
                0x0000000007004980                jrb_dl_tree_mesh_layer_1_vtx_1
                0x0000000007004c00                jrb_dl_tree_mesh_layer_1_tri_0
                0x0000000007004de0                jrb_dl_tree_mesh_layer_1_vtx_0
                0x0000000007005a60                jrb_dl_tree_mesh_layer_1_vtx_cull
                0x0000000007005ae0                jrb_dl_small_fan_001_mesh_layer_1_tri_1
                0x0000000007005b20                jrb_dl_small_fan_001_mesh_layer_1_vtx_1
                0x0000000007005ca0                jrb_dl_small_fan_001_mesh_layer_1_tri_0
                0x0000000007005d18                jrb_dl_small_fan_001_mesh_layer_1_vtx_0
                0x0000000007006018                jrb_dl_small_fan_001_mesh_layer_1_vtx_cull
                0x0000000007006098                jrb_dl_SM_Fountain_02_mesh_layer_1_tri_2
                0x00000000070063b0                jrb_dl_SM_Fountain_02_mesh_layer_1_vtx_2
                0x0000000007007920                jrb_dl_SM_Fountain_02_mesh_layer_1_tri_1
                0x0000000007007a58                jrb_dl_SM_Fountain_02_mesh_layer_1_vtx_1
                0x0000000007008458                jrb_dl_SM_Fountain_02_mesh_layer_1_tri_0
                0x00000000070095e0                jrb_dl_SM_Fountain_02_mesh_layer_1_vtx_0
                0x0000000007011100                jrb_dl_SM_Fountain_02_mesh_layer_1_vtx_cull
                0x0000000007011180                jrb_dl_rock_002_mesh_layer_1_tri_0
                0x0000000007011208                jrb_dl_rock_002_mesh_layer_1_vtx_0
                0x0000000007011508                jrb_dl_rock_002_mesh_layer_1_vtx_cull
                0x0000000007011588                jrb_dl_rock_001_mesh_layer_1_tri_0
                0x0000000007011610                jrb_dl_rock_001_mesh_layer_1_vtx_0
                0x0000000007011910                jrb_dl_rock_001_mesh_layer_1_vtx_cull
                0x0000000007011990                jrb_dl_rock_mesh_layer_1_tri_0
                0x0000000007011a18                jrb_dl_rock_mesh_layer_1_vtx_0
                0x0000000007011d18                jrb_dl_rock_mesh_layer_1_vtx_cull
                0x0000000007011d98                jrb_dl_render_004_mesh_layer_1_tri_0
                0x0000000007013688                jrb_dl_render_004_mesh_layer_1_vtx_0
                0x0000000007022e88                jrb_dl_render_004_mesh_layer_1_vtx_cull
                0x0000000007022f08                jrb_dl_render_003_mesh_layer_1_tri_0
                0x00000000070247f8                jrb_dl_render_003_mesh_layer_1_vtx_0
                0x0000000007033ff8                jrb_dl_render_003_mesh_layer_1_vtx_cull
                0x0000000007034078                jrb_dl_render_002_mesh_layer_1_tri_0
                0x0000000007035968                jrb_dl_render_002_mesh_layer_1_vtx_0
                0x0000000007045168                jrb_dl_render_002_mesh_layer_1_vtx_cull
                0x00000000070451e8                jrb_dl_render_001_mesh_layer_1_tri_0
                0x0000000007046ad8                jrb_dl_render_001_mesh_layer_1_vtx_0
                0x00000000070562d8                jrb_dl_render_001_mesh_layer_1_vtx_cull
                0x0000000007056358                jrb_dl_pillar_030_mesh_layer_1_tri_0
                0x0000000007056398                jrb_dl_pillar_030_mesh_layer_1_vtx_0
                0x0000000007056518                jrb_dl_pillar_030_mesh_layer_1_vtx_cull
                0x0000000007056598                jrb_dl_pillar_029_mesh_layer_1_tri_0
                0x00000000070565d8                jrb_dl_pillar_029_mesh_layer_1_vtx_0
                0x0000000007056758                jrb_dl_pillar_029_mesh_layer_1_vtx_cull
                0x00000000070567d8                jrb_dl_pillar_028_mesh_layer_1_tri_0
                0x0000000007056818                jrb_dl_pillar_028_mesh_layer_1_vtx_0
                0x0000000007056998                jrb_dl_pillar_028_mesh_layer_1_vtx_cull
                0x0000000007056a18                jrb_dl_pillar_027_mesh_layer_1_tri_0
                0x0000000007056a58                jrb_dl_pillar_027_mesh_layer_1_vtx_0
                0x0000000007056bd8                jrb_dl_pillar_027_mesh_layer_1_vtx_cull
                0x0000000007056c58                jrb_dl_pillar_026_mesh_layer_1_tri_0
                0x0000000007056c98                jrb_dl_pillar_026_mesh_layer_1_vtx_0
                0x0000000007056e18                jrb_dl_pillar_026_mesh_layer_1_vtx_cull
                0x0000000007056e98                jrb_dl_pillar_025_mesh_layer_1_tri_0
                0x0000000007056ed8                jrb_dl_pillar_025_mesh_layer_1_vtx_0
                0x0000000007057058                jrb_dl_pillar_025_mesh_layer_1_vtx_cull
                0x00000000070570d8                jrb_dl_pillar_024_mesh_layer_1_tri_0
                0x0000000007057118                jrb_dl_pillar_024_mesh_layer_1_vtx_0
                0x0000000007057298                jrb_dl_pillar_024_mesh_layer_1_vtx_cull
                0x0000000007057318                jrb_dl_pillar_022_mesh_layer_1_tri_0
                0x0000000007057358                jrb_dl_pillar_022_mesh_layer_1_vtx_0
                0x00000000070574d8                jrb_dl_pillar_022_mesh_layer_1_vtx_cull
                0x0000000007057558                jrb_dl_pillar_021_mesh_layer_1_tri_0
                0x0000000007057598                jrb_dl_pillar_021_mesh_layer_1_vtx_0
                0x0000000007057718                jrb_dl_pillar_021_mesh_layer_1_vtx_cull
                0x0000000007057798                jrb_dl_pillar_020_mesh_layer_4_tri_0
                0x00000000070577d8                jrb_dl_pillar_020_mesh_layer_4_vtx_0
                0x0000000007057958                jrb_dl_pillar_020_mesh_layer_4_vtx_cull
                0x00000000070579d8                jrb_dl_pillar_019_mesh_layer_1_tri_0
                0x0000000007057a18                jrb_dl_pillar_019_mesh_layer_1_vtx_0
                0x0000000007057b98                jrb_dl_pillar_019_mesh_layer_1_vtx_cull
                0x0000000007057c18                jrb_dl_pillar_018_mesh_layer_1_tri_0
                0x0000000007057c58                jrb_dl_pillar_018_mesh_layer_1_vtx_0
                0x0000000007057dd8                jrb_dl_pillar_018_mesh_layer_1_vtx_cull
                0x0000000007057e58                jrb_dl_pillar_017_mesh_layer_1_tri_0
                0x0000000007057e98                jrb_dl_pillar_017_mesh_layer_1_vtx_0
                0x0000000007058018                jrb_dl_pillar_017_mesh_layer_1_vtx_cull
                0x0000000007058098                jrb_dl_pillar_016_mesh_layer_1_tri_0
                0x00000000070580d8                jrb_dl_pillar_016_mesh_layer_1_vtx_0
                0x0000000007058258                jrb_dl_pillar_016_mesh_layer_1_vtx_cull
                0x00000000070582d8                jrb_dl_pillar_015_mesh_layer_1_tri_0
                0x0000000007058318                jrb_dl_pillar_015_mesh_layer_1_vtx_0
                0x0000000007058498                jrb_dl_pillar_015_mesh_layer_1_vtx_cull
                0x0000000007058518                jrb_dl_pillar_014_mesh_layer_1_tri_0
                0x0000000007058558                jrb_dl_pillar_014_mesh_layer_1_vtx_0
                0x00000000070586d8                jrb_dl_pillar_014_mesh_layer_1_vtx_cull
                0x0000000007058758                jrb_dl_pillar_013_mesh_layer_1_tri_0
                0x0000000007058798                jrb_dl_pillar_013_mesh_layer_1_vtx_0
                0x0000000007058918                jrb_dl_pillar_013_mesh_layer_1_vtx_cull
                0x0000000007058998                jrb_dl_pillar_012_mesh_layer_1_tri_0
                0x00000000070589d8                jrb_dl_pillar_012_mesh_layer_1_vtx_0
                0x0000000007058b58                jrb_dl_pillar_012_mesh_layer_1_vtx_cull
                0x0000000007058bd8                jrb_dl_pillar_011_mesh_layer_1_tri_0
                0x0000000007058c18                jrb_dl_pillar_011_mesh_layer_1_vtx_0
                0x0000000007058d98                jrb_dl_pillar_011_mesh_layer_1_vtx_cull
                0x0000000007058e18                jrb_dl_pillar_009_mesh_layer_1_tri_0
                0x0000000007058e58                jrb_dl_pillar_009_mesh_layer_1_vtx_0
                0x0000000007058fd8                jrb_dl_pillar_009_mesh_layer_1_vtx_cull
                0x0000000007059058                jrb_dl_pillar_008_mesh_layer_1_tri_0
                0x0000000007059098                jrb_dl_pillar_008_mesh_layer_1_vtx_0
                0x0000000007059218                jrb_dl_pillar_008_mesh_layer_1_vtx_cull
                0x0000000007059298                jrb_dl_pillar_007_mesh_layer_1_tri_0
                0x00000000070592d8                jrb_dl_pillar_007_mesh_layer_1_vtx_0
                0x0000000007059458                jrb_dl_pillar_007_mesh_layer_1_vtx_cull
                0x00000000070594d8                jrb_dl_pillar_006_mesh_layer_1_tri_0
                0x0000000007059518                jrb_dl_pillar_006_mesh_layer_1_vtx_0
                0x0000000007059698                jrb_dl_pillar_006_mesh_layer_1_vtx_cull
                0x0000000007059718                jrb_dl_pillar_005_mesh_layer_1_tri_0
                0x0000000007059758                jrb_dl_pillar_005_mesh_layer_1_vtx_0
                0x00000000070598d8                jrb_dl_pillar_005_mesh_layer_1_vtx_cull
                0x0000000007059958                jrb_dl_pillar_004_mesh_layer_1_tri_0
                0x0000000007059998                jrb_dl_pillar_004_mesh_layer_1_vtx_0
                0x0000000007059b18                jrb_dl_pillar_004_mesh_layer_1_vtx_cull
                0x0000000007059b98                jrb_dl_pillar_003_mesh_layer_1_tri_0
                0x0000000007059bd8                jrb_dl_pillar_003_mesh_layer_1_vtx_0
                0x0000000007059d58                jrb_dl_pillar_003_mesh_layer_1_vtx_cull
                0x0000000007059dd8                jrb_dl_pillar_002_mesh_layer_1_tri_0
                0x0000000007059e18                jrb_dl_pillar_002_mesh_layer_1_vtx_0
                0x0000000007059f98                jrb_dl_pillar_002_mesh_layer_1_vtx_cull
                0x000000000705a018                jrb_dl_pillar_001_mesh_layer_1_tri_0
                0x000000000705a058                jrb_dl_pillar_001_mesh_layer_1_vtx_0
                0x000000000705a1d8                jrb_dl_pillar_001_mesh_layer_1_vtx_cull
                0x000000000705a258                jrb_dl_pillar_mesh_layer_1_tri_2
                0x000000000705a298                jrb_dl_pillar_mesh_layer_1_vtx_2
                0x000000000705a418                jrb_dl_pillar_mesh_layer_1_tri_1
                0x000000000705a458                jrb_dl_pillar_mesh_layer_1_vtx_1
                0x000000000705a5d8                jrb_dl_pillar_mesh_layer_1_tri_0
                0x000000000705a660                jrb_dl_pillar_mesh_layer_1_vtx_0
                0x000000000705a9a0                jrb_dl_pillar_mesh_layer_1_vtx_cull
                0x000000000705aa20                jrb_dl_picnic_mesh_layer_1_tri_0
                0x000000000705aa60                jrb_dl_picnic_mesh_layer_1_vtx_0
                0x000000000705abe0                jrb_dl_picnic_mesh_layer_1_vtx_cull
                0x000000000705ac60                jrb_dl_owl_crest_mesh_layer_1_tri_2
                0x000000000705ac90                jrb_dl_owl_crest_mesh_layer_1_vtx_2
                0x000000000705ad20                jrb_dl_owl_crest_mesh_layer_1_tri_1
                0x000000000705aeb8                jrb_dl_owl_crest_mesh_layer_1_vtx_1
                0x000000000705b6c8                jrb_dl_owl_crest_mesh_layer_1_tri_0
                0x000000000705b778                jrb_dl_owl_crest_mesh_layer_1_vtx_0
                0x000000000705bbf8                jrb_dl_owl_crest_mesh_layer_1_vtx_cull
                0x000000000705bc78                jrb_dl_mossy_stone_001_mesh_layer_1_tri_0
                0x000000000705bce0                jrb_dl_mossy_stone_001_mesh_layer_1_vtx_0
                0x000000000705bf60                jrb_dl_mossy_stone_001_mesh_layer_1_vtx_cull
                0x000000000705bfe0                jrb_dl_mossy_stone_mesh_layer_1_tri_0
                0x000000000705c048                jrb_dl_mossy_stone_mesh_layer_1_vtx_0
                0x000000000705c2c8                jrb_dl_mossy_stone_mesh_layer_1_vtx_cull
                0x000000000705c348                jrb_dl_massive_pillar_003_mesh_layer_4_tri_0
                0x000000000705c388                jrb_dl_massive_pillar_003_mesh_layer_4_vtx_0
                0x000000000705c498                jrb_dl_massive_pillar_003_mesh_layer_4_vtx_cull
                0x000000000705c518                jrb_dl_massive_pillar_mesh_layer_1_tri_3
                0x000000000705c5c0                jrb_dl_massive_pillar_mesh_layer_1_vtx_3
                0x000000000705c900                jrb_dl_massive_pillar_mesh_layer_1_tri_2
                0x000000000705c988                jrb_dl_massive_pillar_mesh_layer_1_vtx_2
                0x000000000705cce8                jrb_dl_massive_pillar_mesh_layer_1_tri_1
                0x000000000705cd38                jrb_dl_massive_pillar_mesh_layer_1_vtx_1
                0x000000000705cf38                jrb_dl_massive_pillar_mesh_layer_1_tri_0
                0x000000000705d2e0                jrb_dl_massive_pillar_mesh_layer_1_vtx_0
                0x000000000705e540                jrb_dl_massive_pillar_mesh_layer_1_vtx_cull
                0x000000000705e5c0                jrb_dl_Icosphere_015_mesh_layer_1_tri_0
                0x000000000705ebc8                jrb_dl_Icosphere_015_mesh_layer_1_vtx_0
                0x00000000070627c8                jrb_dl_Icosphere_015_mesh_layer_1_vtx_cull
                0x0000000007062848                jrb_dl_Icosphere_014_mesh_layer_1_tri_0
                0x0000000007062e50                jrb_dl_Icosphere_014_mesh_layer_1_vtx_0
                0x0000000007066a50                jrb_dl_Icosphere_014_mesh_layer_1_vtx_cull
                0x0000000007066ad0                jrb_dl_Icosphere_013_mesh_layer_1_tri_4
                0x0000000007066b48                jrb_dl_Icosphere_013_mesh_layer_1_vtx_4
                0x0000000007066d78                jrb_dl_Icosphere_013_mesh_layer_1_tri_3
                0x0000000007066e30                jrb_dl_Icosphere_013_mesh_layer_1_vtx_3
                0x00000000070671d0                jrb_dl_Icosphere_013_mesh_layer_1_tri_2
                0x0000000007067260                jrb_dl_Icosphere_013_mesh_layer_1_vtx_2
                0x0000000007067510                jrb_dl_Icosphere_013_mesh_layer_1_tri_1
                0x0000000007067658                jrb_dl_Icosphere_013_mesh_layer_1_vtx_1
                0x0000000007067d88                jrb_dl_Icosphere_013_mesh_layer_1_tri_0
                0x0000000007068008                jrb_dl_Icosphere_013_mesh_layer_1_vtx_0
                0x0000000007068d18                jrb_dl_Icosphere_013_mesh_layer_1_vtx_cull
                0x0000000007068d98                jrb_dl_Icosphere_003_mesh_layer_1_tri_0
                0x00000000070693a0                jrb_dl_Icosphere_003_mesh_layer_1_vtx_0
                0x000000000706cfa0                jrb_dl_Icosphere_003_mesh_layer_1_vtx_cull
                0x000000000706d020                jrb_dl_Icosphere_002_mesh_layer_1_tri_0
                0x000000000706d628                jrb_dl_Icosphere_002_mesh_layer_1_vtx_0
                0x0000000007071228                jrb_dl_Icosphere_002_mesh_layer_1_vtx_cull
                0x00000000070712a8                jrb_dl_Icosphere_001_mesh_layer_1_tri_0
                0x00000000070718b0                jrb_dl_Icosphere_001_mesh_layer_1_vtx_0
                0x00000000070754b0                jrb_dl_Icosphere_001_mesh_layer_1_vtx_cull
                0x0000000007075530                jrb_dl_Houses_SecondAge_3_Level1_004_mesh_layer_1_tri_4
                0x0000000007075580                jrb_dl_Houses_SecondAge_3_Level1_004_mesh_layer_1_vtx_4
                0x0000000007075750                jrb_dl_Houses_SecondAge_3_Level1_004_mesh_layer_1_tri_3
                0x0000000007075a50                jrb_dl_Houses_SecondAge_3_Level1_004_mesh_layer_1_vtx_3
                0x0000000007076f50                jrb_dl_Houses_SecondAge_3_Level1_004_mesh_layer_1_tri_2
                0x0000000007077298                jrb_dl_Houses_SecondAge_3_Level1_004_mesh_layer_1_vtx_2
                0x0000000007078998                jrb_dl_Houses_SecondAge_3_Level1_004_mesh_layer_1_tri_1
                0x00000000070789b8                jrb_dl_Houses_SecondAge_3_Level1_004_mesh_layer_1_vtx_1
                0x0000000007078a38                jrb_dl_Houses_SecondAge_3_Level1_004_mesh_layer_1_tri_0
                0x0000000007078ad0                jrb_dl_Houses_SecondAge_3_Level1_004_mesh_layer_1_vtx_0
                0x0000000007078eb0                jrb_dl_Houses_SecondAge_3_Level1_004_mesh_layer_1_vtx_cull
                0x0000000007078f30                jrb_dl_Houses_SecondAge_3_Level1_003_mesh_layer_1_tri_4
                0x0000000007078f80                jrb_dl_Houses_SecondAge_3_Level1_003_mesh_layer_1_vtx_4
                0x0000000007079150                jrb_dl_Houses_SecondAge_3_Level1_003_mesh_layer_1_tri_3
                0x0000000007079458                jrb_dl_Houses_SecondAge_3_Level1_003_mesh_layer_1_vtx_3
                0x000000000707a998                jrb_dl_Houses_SecondAge_3_Level1_003_mesh_layer_1_tri_2
                0x000000000707acd8                jrb_dl_Houses_SecondAge_3_Level1_003_mesh_layer_1_vtx_2
                0x000000000707c398                jrb_dl_Houses_SecondAge_3_Level1_003_mesh_layer_1_tri_1
                0x000000000707c3b8                jrb_dl_Houses_SecondAge_3_Level1_003_mesh_layer_1_vtx_1
                0x000000000707c438                jrb_dl_Houses_SecondAge_3_Level1_003_mesh_layer_1_tri_0
                0x000000000707c4d0                jrb_dl_Houses_SecondAge_3_Level1_003_mesh_layer_1_vtx_0
                0x000000000707c8b0                jrb_dl_Houses_SecondAge_3_Level1_003_mesh_layer_1_vtx_cull
                0x000000000707c930                jrb_dl_Houses_SecondAge_3_Level1_002_mesh_layer_1_tri_4
                0x000000000707c980                jrb_dl_Houses_SecondAge_3_Level1_002_mesh_layer_1_vtx_4
                0x000000000707cb50                jrb_dl_Houses_SecondAge_3_Level1_002_mesh_layer_1_tri_3
                0x000000000707ce50                jrb_dl_Houses_SecondAge_3_Level1_002_mesh_layer_1_vtx_3
                0x000000000707e350                jrb_dl_Houses_SecondAge_3_Level1_002_mesh_layer_1_tri_2
                0x000000000707e698                jrb_dl_Houses_SecondAge_3_Level1_002_mesh_layer_1_vtx_2
                0x000000000707fd98                jrb_dl_Houses_SecondAge_3_Level1_002_mesh_layer_1_tri_1
                0x000000000707fdb8                jrb_dl_Houses_SecondAge_3_Level1_002_mesh_layer_1_vtx_1
                0x000000000707fe38                jrb_dl_Houses_SecondAge_3_Level1_002_mesh_layer_1_tri_0
                0x000000000707fed0                jrb_dl_Houses_SecondAge_3_Level1_002_mesh_layer_1_vtx_0
                0x00000000070802b0                jrb_dl_Houses_SecondAge_3_Level1_002_mesh_layer_1_vtx_cull
                0x0000000007080330                jrb_dl_Houses_SecondAge_3_Level1_001_mesh_layer_1_tri_4
                0x0000000007080380                jrb_dl_Houses_SecondAge_3_Level1_001_mesh_layer_1_vtx_4
                0x0000000007080550                jrb_dl_Houses_SecondAge_3_Level1_001_mesh_layer_1_tri_3
                0x0000000007080858                jrb_dl_Houses_SecondAge_3_Level1_001_mesh_layer_1_vtx_3
                0x0000000007081d98                jrb_dl_Houses_SecondAge_3_Level1_001_mesh_layer_1_tri_2
                0x00000000070820d8                jrb_dl_Houses_SecondAge_3_Level1_001_mesh_layer_1_vtx_2
                0x0000000007083798                jrb_dl_Houses_SecondAge_3_Level1_001_mesh_layer_1_tri_1
                0x00000000070837b8                jrb_dl_Houses_SecondAge_3_Level1_001_mesh_layer_1_vtx_1
                0x0000000007083838                jrb_dl_Houses_SecondAge_3_Level1_001_mesh_layer_1_tri_0
                0x00000000070838d0                jrb_dl_Houses_SecondAge_3_Level1_001_mesh_layer_1_vtx_0
                0x0000000007083cb0                jrb_dl_Houses_SecondAge_3_Level1_001_mesh_layer_1_vtx_cull
                0x0000000007083d30                jrb_dl_Houses_SecondAge_3_Level1_mesh_layer_1_tri_4
                0x0000000007083d80                jrb_dl_Houses_SecondAge_3_Level1_mesh_layer_1_vtx_4
                0x0000000007083f50                jrb_dl_Houses_SecondAge_3_Level1_mesh_layer_1_tri_3
                0x0000000007084250                jrb_dl_Houses_SecondAge_3_Level1_mesh_layer_1_vtx_3
                0x0000000007085750                jrb_dl_Houses_SecondAge_3_Level1_mesh_layer_1_tri_2
                0x0000000007085a98                jrb_dl_Houses_SecondAge_3_Level1_mesh_layer_1_vtx_2
                0x0000000007087198                jrb_dl_Houses_SecondAge_3_Level1_mesh_layer_1_tri_1
                0x00000000070871b8                jrb_dl_Houses_SecondAge_3_Level1_mesh_layer_1_vtx_1
                0x0000000007087238                jrb_dl_Houses_SecondAge_3_Level1_mesh_layer_1_tri_0
                0x00000000070872d0                jrb_dl_Houses_SecondAge_3_Level1_mesh_layer_1_vtx_0
                0x00000000070876b0                jrb_dl_Houses_SecondAge_3_Level1_mesh_layer_1_vtx_cull
                0x0000000007087730                jrb_dl_Houses_SecondAge_1_Level1_001_mesh_layer_1_tri_4
                0x00000000070877f0                jrb_dl_Houses_SecondAge_1_Level1_001_mesh_layer_1_vtx_4
                0x0000000007087cf0                jrb_dl_Houses_SecondAge_1_Level1_001_mesh_layer_1_tri_3
                0x0000000007087d40                jrb_dl_Houses_SecondAge_1_Level1_001_mesh_layer_1_vtx_3
                0x0000000007087f20                jrb_dl_Houses_SecondAge_1_Level1_001_mesh_layer_1_tri_2
                0x0000000007088688                jrb_dl_Houses_SecondAge_1_Level1_001_mesh_layer_1_vtx_2
                0x000000000708baa8                jrb_dl_Houses_SecondAge_1_Level1_001_mesh_layer_1_tri_1
                0x000000000708bae8                jrb_dl_Houses_SecondAge_1_Level1_001_mesh_layer_1_vtx_1
                0x000000000708bc58                jrb_dl_Houses_SecondAge_1_Level1_001_mesh_layer_1_tri_0
                0x000000000708bc78                jrb_dl_Houses_SecondAge_1_Level1_001_mesh_layer_1_vtx_0
                0x000000000708bcf8                jrb_dl_Houses_SecondAge_1_Level1_001_mesh_layer_1_vtx_cull
                0x000000000708bd78                jrb_dl_flowers_mesh_layer_5_tri_0
                0x000000000708be10                jrb_dl_flowers_mesh_layer_5_vtx_0
                0x000000000708c110                jrb_dl_flowers_mesh_layer_5_vtx_cull
                0x000000000708c190                jrb_dl_flowers_mesh_layer_4_tri_0
                0x000000000708c1e0                jrb_dl_flowers_mesh_layer_4_vtx_0
                0x000000000708c340                jrb_dl_flowers_mesh_layer_4_vtx_cull
                0x000000000708c3c0                jrb_dl_Cylinder_001_mesh_layer_1_tri_3
                0x000000000708c438                jrb_dl_Cylinder_001_mesh_layer_1_vtx_3
                0x000000000708c738                jrb_dl_Cylinder_001_mesh_layer_1_tri_2
                0x000000000708c7c8                jrb_dl_Cylinder_001_mesh_layer_1_vtx_2
                0x000000000708ca68                jrb_dl_Cylinder_001_mesh_layer_1_tri_1
                0x000000000708cb50                jrb_dl_Cylinder_001_mesh_layer_1_vtx_1
                0x000000000708d110                jrb_dl_Cylinder_001_mesh_layer_1_tri_0
                0x000000000708d268                jrb_dl_Cylinder_001_mesh_layer_1_vtx_0
                0x000000000708d848                jrb_dl_Cylinder_001_mesh_layer_1_vtx_cull
                0x000000000708d8c8                jrb_dl_Cylinder_mesh_layer_1_tri_3
                0x000000000708d958                jrb_dl_Cylinder_mesh_layer_1_vtx_3
                0x000000000708dd18                jrb_dl_Cylinder_mesh_layer_1_tri_2
                0x000000000708dd40                jrb_dl_Cylinder_mesh_layer_1_vtx_2
                0x000000000708ddb0                jrb_dl_Cylinder_mesh_layer_1_tri_1
                0x000000000708df38                jrb_dl_Cylinder_mesh_layer_1_vtx_1
                0x000000000708e868                jrb_dl_Cylinder_mesh_layer_1_tri_0
                0x000000000708e8d8                jrb_dl_Cylinder_mesh_layer_1_vtx_0
                0x000000000708ea88                jrb_dl_Cylinder_mesh_layer_1_vtx_cull
                0x000000000708eb08                jrb_dl_Cube_066_mesh_layer_1_tri_0
                0x000000000708eb48                jrb_dl_Cube_066_mesh_layer_1_vtx_0
                0x000000000708ecc8                jrb_dl_Cube_066_mesh_layer_1_vtx_cull
                0x000000000708ed48                jrb_dl_Cube_065_mesh_layer_1_tri_0
                0x000000000708ed88                jrb_dl_Cube_065_mesh_layer_1_vtx_0
                0x000000000708ef08                jrb_dl_Cube_065_mesh_layer_1_vtx_cull
                0x000000000708ef88                jrb_dl_Cube_064_mesh_layer_1_tri_0
                0x000000000708efc8                jrb_dl_Cube_064_mesh_layer_1_vtx_0
                0x000000000708f148                jrb_dl_Cube_064_mesh_layer_1_vtx_cull
                0x000000000708f1c8                jrb_dl_Cube_063_mesh_layer_1_tri_0
                0x000000000708f208                jrb_dl_Cube_063_mesh_layer_1_vtx_0
                0x000000000708f388                jrb_dl_Cube_063_mesh_layer_1_vtx_cull
                0x000000000708f408                jrb_dl_Cube_060_mesh_layer_1_tri_0
                0x000000000708f448                jrb_dl_Cube_060_mesh_layer_1_vtx_0
                0x000000000708f5c8                jrb_dl_Cube_060_mesh_layer_1_vtx_cull
                0x000000000708f648                jrb_dl_Cube_058_mesh_layer_1_tri_0
                0x000000000708f810                jrb_dl_Cube_058_mesh_layer_1_vtx_0
                0x00000000070903d0                jrb_dl_Cube_058_mesh_layer_1_vtx_cull
                0x0000000007090450                jrb_dl_Cube_057_mesh_layer_1_tri_0
                0x0000000007090490                jrb_dl_Cube_057_mesh_layer_1_vtx_0
                0x0000000007090610                jrb_dl_Cube_057_mesh_layer_1_vtx_cull
                0x0000000007090690                jrb_dl_Cube_056_mesh_layer_1_tri_0
                0x00000000070906d0                jrb_dl_Cube_056_mesh_layer_1_vtx_0
                0x0000000007090850                jrb_dl_Cube_056_mesh_layer_1_vtx_cull
                0x00000000070908d0                jrb_dl_Cube_055_mesh_layer_1_tri_0
                0x0000000007090910                jrb_dl_Cube_055_mesh_layer_1_vtx_0
                0x0000000007090a90                jrb_dl_Cube_055_mesh_layer_1_vtx_cull
                0x0000000007090b10                jrb_dl_Cube_054_mesh_layer_1_tri_0
                0x0000000007090b50                jrb_dl_Cube_054_mesh_layer_1_vtx_0
                0x0000000007090cd0                jrb_dl_Cube_054_mesh_layer_1_vtx_cull
                0x0000000007090d50                jrb_dl_Cube_053_mesh_layer_1_tri_0
                0x0000000007090d90                jrb_dl_Cube_053_mesh_layer_1_vtx_0
                0x0000000007090f10                jrb_dl_Cube_053_mesh_layer_1_vtx_cull
                0x0000000007090f90                jrb_dl_Cube_052_mesh_layer_1_tri_0
                0x0000000007090fd0                jrb_dl_Cube_052_mesh_layer_1_vtx_0
                0x0000000007091150                jrb_dl_Cube_052_mesh_layer_1_vtx_cull
                0x00000000070911d0                jrb_dl_Cube_051_mesh_layer_1_tri_0
                0x0000000007091210                jrb_dl_Cube_051_mesh_layer_1_vtx_0
                0x0000000007091390                jrb_dl_Cube_051_mesh_layer_1_vtx_cull
                0x0000000007091410                jrb_dl_Cube_050_mesh_layer_1_tri_0
                0x0000000007091450                jrb_dl_Cube_050_mesh_layer_1_vtx_0
                0x00000000070915d0                jrb_dl_Cube_050_mesh_layer_1_vtx_cull
                0x0000000007091650                jrb_dl_Cube_049_mesh_layer_1_tri_0
                0x0000000007091690                jrb_dl_Cube_049_mesh_layer_1_vtx_0
                0x0000000007091810                jrb_dl_Cube_049_mesh_layer_1_vtx_cull
                0x0000000007091890                jrb_dl_Cube_048_mesh_layer_1_tri_0
                0x00000000070918d0                jrb_dl_Cube_048_mesh_layer_1_vtx_0
                0x0000000007091a50                jrb_dl_Cube_048_mesh_layer_1_vtx_cull
                0x0000000007091ad0                jrb_dl_Cube_047_mesh_layer_1_tri_0
                0x0000000007091b10                jrb_dl_Cube_047_mesh_layer_1_vtx_0
                0x0000000007091c90                jrb_dl_Cube_047_mesh_layer_1_vtx_cull
                0x0000000007091d10                jrb_dl_Cube_046_mesh_layer_1_tri_0
                0x0000000007091d78                jrb_dl_Cube_046_mesh_layer_1_vtx_0
                0x0000000007091fe8                jrb_dl_Cube_046_mesh_layer_1_vtx_cull
                0x0000000007092068                jrb_dl_Cube_045_mesh_layer_1_tri_0
                0x00000000070920a8                jrb_dl_Cube_045_mesh_layer_1_vtx_0
                0x0000000007092228                jrb_dl_Cube_045_mesh_layer_1_vtx_cull
                0x00000000070922a8                jrb_dl_Cube_044_mesh_layer_1_tri_0
                0x00000000070922e8                jrb_dl_Cube_044_mesh_layer_1_vtx_0
                0x0000000007092468                jrb_dl_Cube_044_mesh_layer_1_vtx_cull
                0x00000000070924e8                jrb_dl_Cube_043_mesh_layer_1_tri_0
                0x0000000007092528                jrb_dl_Cube_043_mesh_layer_1_vtx_0
                0x00000000070926a8                jrb_dl_Cube_043_mesh_layer_1_vtx_cull
                0x0000000007092728                jrb_dl_Cube_042_mesh_layer_1_tri_0
                0x0000000007092768                jrb_dl_Cube_042_mesh_layer_1_vtx_0
                0x00000000070928e8                jrb_dl_Cube_042_mesh_layer_1_vtx_cull
                0x0000000007092968                jrb_dl_Cube_041_mesh_layer_1_tri_0
                0x00000000070929a8                jrb_dl_Cube_041_mesh_layer_1_vtx_0
                0x0000000007092b28                jrb_dl_Cube_041_mesh_layer_1_vtx_cull
                0x0000000007092ba8                jrb_dl_Cube_040_mesh_layer_1_tri_0
                0x0000000007092be8                jrb_dl_Cube_040_mesh_layer_1_vtx_0
                0x0000000007092d68                jrb_dl_Cube_040_mesh_layer_1_vtx_cull
                0x0000000007092de8                jrb_dl_Cube_039_mesh_layer_5_tri_0
                0x0000000007092e28                jrb_dl_Cube_039_mesh_layer_5_vtx_0
                0x0000000007092fa8                jrb_dl_Cube_039_mesh_layer_5_vtx_cull
                0x0000000007093028                jrb_dl_Cube_037_mesh_layer_1_tri_0
                0x0000000007093090                jrb_dl_Cube_037_mesh_layer_1_vtx_0
                0x00000000070932d0                jrb_dl_Cube_037_mesh_layer_1_vtx_cull
                0x0000000007093350                jrb_dl_Cube_036_mesh_layer_1_tri_0
                0x00000000070933b8                jrb_dl_Cube_036_mesh_layer_1_vtx_0
                0x00000000070935f8                jrb_dl_Cube_036_mesh_layer_1_vtx_cull
                0x0000000007093678                jrb_dl_Cube_035_mesh_layer_1_tri_2
                0x00000000070936b0                jrb_dl_Cube_035_mesh_layer_1_vtx_2
                0x00000000070937c0                jrb_dl_Cube_035_mesh_layer_1_tri_1
                0x0000000007093860                jrb_dl_Cube_035_mesh_layer_1_vtx_1
                0x0000000007093b70                jrb_dl_Cube_035_mesh_layer_1_tri_0
                0x0000000007093bd0                jrb_dl_Cube_035_mesh_layer_1_vtx_0
                0x0000000007093d90                jrb_dl_Cube_035_mesh_layer_1_vtx_cull
                0x0000000007093e10                jrb_dl_Cube_034_mesh_layer_1_tri_0
                0x0000000007093e78                jrb_dl_Cube_034_mesh_layer_1_vtx_0
                0x00000000070940b8                jrb_dl_Cube_034_mesh_layer_1_vtx_cull
                0x0000000007094138                jrb_dl_Cube_031_mesh_layer_1_tri_0
                0x00000000070941a0                jrb_dl_Cube_031_mesh_layer_1_vtx_0
                0x00000000070943e0                jrb_dl_Cube_031_mesh_layer_1_vtx_cull
                0x0000000007094460                jrb_dl_Cube_030_mesh_layer_1_tri_0
                0x00000000070944f8                jrb_dl_Cube_030_mesh_layer_1_vtx_0
                0x00000000070947f8                jrb_dl_Cube_030_mesh_layer_1_vtx_cull
                0x0000000007094878                jrb_dl_Cube_029_mesh_layer_4_tri_0
                0x0000000007094958                jrb_dl_Cube_029_mesh_layer_4_vtx_0
                0x0000000007094d78                jrb_dl_Cube_029_mesh_layer_4_vtx_cull
                0x0000000007094df8                jrb_dl_Cube_020_mesh_layer_5_tri_0
                0x0000000007094e80                jrb_dl_Cube_020_mesh_layer_5_vtx_0
                0x0000000007095180                jrb_dl_Cube_020_mesh_layer_5_vtx_cull
                0x0000000007095200                jrb_dl_Cube_019_mesh_layer_1_tri_3
                0x0000000007095220                jrb_dl_Cube_019_mesh_layer_1_vtx_3
                0x00000000070952a0                jrb_dl_Cube_019_mesh_layer_1_tri_2
                0x00000000070952b8                jrb_dl_Cube_019_mesh_layer_1_vtx_2
                0x00000000070952f8                jrb_dl_Cube_019_mesh_layer_1_tri_1
                0x0000000007095340                jrb_dl_Cube_019_mesh_layer_1_vtx_1
                0x00000000070954a0                jrb_dl_Cube_019_mesh_layer_1_tri_0
                0x0000000007095500                jrb_dl_Cube_019_mesh_layer_1_vtx_0
                0x0000000007095700                jrb_dl_Cube_019_mesh_layer_1_vtx_cull
                0x0000000007095780                jrb_dl_Cube_018_mesh_layer_5_tri_0
                0x0000000007095808                jrb_dl_Cube_018_mesh_layer_5_vtx_0
                0x0000000007095b88                jrb_dl_Cube_018_mesh_layer_5_vtx_cull
                0x0000000007095c08                jrb_dl_Cube_017_mesh_layer_1_tri_0
                0x0000000007095dd0                jrb_dl_Cube_017_mesh_layer_1_vtx_0
                0x0000000007096990                jrb_dl_Cube_017_mesh_layer_1_vtx_cull
                0x0000000007096a10                jrb_dl_Cube_016_mesh_layer_5_tri_0
                0x0000000007096a50                jrb_dl_Cube_016_mesh_layer_5_vtx_0
                0x0000000007096bd0                jrb_dl_Cube_016_mesh_layer_5_vtx_cull
                0x0000000007096c50                jrb_dl_Cube_014_mesh_layer_1_tri_0
                0x0000000007096cb8                jrb_dl_Cube_014_mesh_layer_1_vtx_0
                0x0000000007096f38                jrb_dl_Cube_014_mesh_layer_1_vtx_cull
                0x0000000007096fb8                jrb_dl_Cube_013_mesh_layer_1_tri_0
                0x0000000007096ff8                jrb_dl_Cube_013_mesh_layer_1_vtx_0
                0x0000000007097178                jrb_dl_Cube_013_mesh_layer_1_vtx_cull
                0x00000000070971f8                jrb_dl_Cube_012_mesh_layer_1_tri_1
                0x0000000007097210                jrb_dl_Cube_012_mesh_layer_1_vtx_1
                0x0000000007097250                jrb_dl_Cube_012_mesh_layer_1_tri_0
                0x00000000070972a8                jrb_dl_Cube_012_mesh_layer_1_vtx_0
                0x0000000007097468                jrb_dl_Cube_012_mesh_layer_1_vtx_cull
                0x00000000070974e8                jrb_dl_Cube_011_mesh_layer_5_tri_0
                0x0000000007097518                jrb_dl_Cube_011_mesh_layer_5_vtx_0
                0x00000000070975f8                jrb_dl_Cube_011_mesh_layer_5_vtx_cull
                0x0000000007097678                jrb_dl_Cube_011_mesh_layer_1_tri_1
                0x0000000007097710                jrb_dl_Cube_011_mesh_layer_1_vtx_1
                0x0000000007097a40                jrb_dl_Cube_011_mesh_layer_1_tri_0
                0x0000000007097af0                jrb_dl_Cube_011_mesh_layer_1_vtx_0
                0x0000000007097ec0                jrb_dl_Cube_011_mesh_layer_1_vtx_cull
                0x0000000007097f40                jrb_dl_Cube_010_mesh_layer_1_tri_0
                0x0000000007097f80                jrb_dl_Cube_010_mesh_layer_1_vtx_0
                0x0000000007098100                jrb_dl_Cube_010_mesh_layer_1_vtx_cull
                0x0000000007098180                jrb_dl_Cube_009_mesh_layer_1_tri_0
                0x00000000070981c0                jrb_dl_Cube_009_mesh_layer_1_vtx_0
                0x0000000007098340                jrb_dl_Cube_009_mesh_layer_1_vtx_cull
                0x00000000070983c0                jrb_dl_Cube_008_mesh_layer_1_tri_0
                0x0000000007098428                jrb_dl_Cube_008_mesh_layer_1_vtx_0
                0x00000000070986a8                jrb_dl_Cube_008_mesh_layer_1_vtx_cull
                0x0000000007098728                jrb_dl_Cube_007_mesh_layer_1_tri_0
                0x00000000070988f0                jrb_dl_Cube_007_mesh_layer_1_vtx_0
                0x00000000070994b0                jrb_dl_Cube_007_mesh_layer_1_vtx_cull
                0x0000000007099530                jrb_dl_Cube_006_mesh_layer_1_tri_0
                0x00000000070996f8                jrb_dl_Cube_006_mesh_layer_1_vtx_0
                0x000000000709a2b8                jrb_dl_Cube_006_mesh_layer_1_vtx_cull
                0x000000000709a338                jrb_dl_Cube_005_mesh_layer_1_tri_0
                0x000000000709a500                jrb_dl_Cube_005_mesh_layer_1_vtx_0
                0x000000000709b0c0                jrb_dl_Cube_005_mesh_layer_1_vtx_cull
                0x000000000709b140                jrb_dl_Cube_004_mesh_layer_1_tri_0
                0x000000000709b180                jrb_dl_Cube_004_mesh_layer_1_vtx_0
                0x000000000709b300                jrb_dl_Cube_004_mesh_layer_1_vtx_cull
                0x000000000709b380                jrb_dl_Cube_003_mesh_layer_1_tri_0
                0x000000000709b518                jrb_dl_Cube_003_mesh_layer_1_vtx_0
                0x000000000709be78                jrb_dl_Cube_003_mesh_layer_1_vtx_cull
                0x000000000709bef8                jrb_dl_Cube_002_mesh_layer_1_tri_0
                0x000000000709bfe0                jrb_dl_Cube_002_mesh_layer_1_vtx_0
                0x000000000709c4a0                jrb_dl_Cube_002_mesh_layer_1_vtx_cull
                0x000000000709c520                jrb_dl_Cube_mesh_layer_1_tri_4
                0x000000000709c570                jrb_dl_Cube_mesh_layer_1_vtx_4
                0x000000000709c6d0                jrb_dl_Cube_mesh_layer_1_tri_3
                0x000000000709c718                jrb_dl_Cube_mesh_layer_1_vtx_3
                0x000000000709c898                jrb_dl_Cube_mesh_layer_1_tri_2
                0x000000000709c8b8                jrb_dl_Cube_mesh_layer_1_vtx_2
                0x000000000709c908                jrb_dl_Cube_mesh_layer_1_tri_1
                0x000000000709ca28                jrb_dl_Cube_mesh_layer_1_vtx_1
                0x000000000709d158                jrb_dl_Cube_mesh_layer_1_tri_0
                0x000000000709d2a0                jrb_dl_Cube_mesh_layer_1_vtx_0
                0x000000000709d930                jrb_dl_Cube_mesh_layer_1_vtx_cull
                0x000000000709d9b0                jrb_dl_bell_mesh_layer_1_tri_0
                0x000000000709e908                jrb_dl_bell_mesh_layer_1_vtx_0
                0x00000000070a5008                jrb_dl_bell_mesh_layer_1_vtx_cull
                0x00000000070a5088                jrb_dl_Beach_Chairs_and_Umbrella_mesh_layer_1_tri_1
                0x00000000070a50d8                jrb_dl_Beach_Chairs_and_Umbrella_mesh_layer_1_vtx_1
                0x00000000070a51e8                jrb_dl_Beach_Chairs_and_Umbrella_mesh_layer_1_tri_0
                0x00000000070a5c00                jrb_dl_Beach_Chairs_and_Umbrella_mesh_layer_1_vtx_0
                0x00000000070a9060                jrb_dl_Beach_Chairs_and_Umbrella_mesh_layer_1_vtx_cull
                0x00000000070a90e0                jrb_dl_rings_pal_rgba16
                0x00000000070a91c0                jrb_dl_rings_pal_rgba16_aligner
                0x00000000070a91c8                jrb_dl_rings_ci8
                0x00000000070a95c8                jrb_dl_rings_ci8_aligner
                0x00000000070a95d0                jrb_dl_ci4_anonmoose_treebark1_pal_rgba16
                0x00000000070a95f0                jrb_dl_ci4_anonmoose_treebark1_pal_rgba16_aligner
                0x00000000070a95f8                jrb_dl_ci4_anonmoose_treebark1_ci4
                0x00000000070a9df8                jrb_dl_ci4_anonmoose_treebark1_ci4_aligner
                0x00000000070a9e00                jrb_dl_rgba16_anonmoose_GreenishSquare_pal_rgba16
                0x00000000070a9e28                jrb_dl_rgba16_anonmoose_GreenishSquare_pal_rgba16_aligner
                0x00000000070a9e30                jrb_dl_rgba16_anonmoose_GreenishSquare_ci8
                0x00000000070aa230                jrb_dl_rgba16_anonmoose_GreenishSquare_ci8_aligner
                0x00000000070aa238                jrb_dl__1_pal_rgba16
                0x00000000070aa2a0                jrb_dl__1_pal_rgba16_aligner
                0x00000000070aa2a8                jrb_dl__1_ci8
                0x00000000070aa6a8                _::jrb_dl(char, int, _aligner)
                0x00000000070aa6b0                jrb_dl_ci4_anonmoose_whiteblock_pal_rgba16
                0x00000000070aa6d0                jrb_dl_ci4_anonmoose_whiteblock_pal_rgba16_aligner
                0x00000000070aa6d8                jrb_dl_ci4_anonmoose_whiteblock_ci4
                0x00000000070aaed8                jrb_dl_ci4_anonmoose_whiteblock_ci4_aligner
                0x00000000070aaee0                jrb_dl_KKIIDDZZ_DAT_1059__p00_pal_rgba16
                0x00000000070aaf68                jrb_dl_KKIIDDZZ_DAT_1059__p00_pal_rgba16_aligner
                0x00000000070aaf70                jrb_dl_KKIIDDZZ_DAT_1059__p00_ci8
                0x00000000070ab370                jrb_dl_KKIIDDZZ_DAT_1059__p00_ci8_aligner
                0x00000000070ab378                jrb_dl_ci4_sophie_tablecloth_pal_rgba16
                0x00000000070ab398                jrb_dl_ci4_sophie_tablecloth_pal_rgba16_aligner
                0x00000000070ab3a0                jrb_dl_ci4_sophie_tablecloth_ci4
                0x00000000070abba0                jrb_dl_ci4_sophie_tablecloth_ci4_aligner
                0x00000000070abba8                jrb_dl_ci4_sophie_wall_pal_rgba16
                0x00000000070abbc8                jrb_dl_ci4_sophie_wall_pal_rgba16_aligner
                0x00000000070abbd0                jrb_dl_ci4_sophie_wall_ci4
                0x00000000070ac3d0                jrb_dl_ci4_sophie_wall_ci4_aligner
                0x00000000070ac3d8                jrb_dl_ci4_sophie_metal2_pal_rgba16
                0x00000000070ac3f8                jrb_dl_ci4_sophie_metal2_pal_rgba16_aligner
                0x00000000070ac400                jrb_dl_ci4_sophie_metal2_ci4
                0x00000000070acc00                jrb_dl_ci4_sophie_metal2_ci4_aligner
                0x00000000070acc08                jrb_dl_rgba16_anonmoose_envmap_gold1_pal_rgba16
                0x00000000070acd78                jrb_dl_rgba16_anonmoose_envmap_gold1_pal_rgba16_aligner
                0x00000000070acd80                jrb_dl_rgba16_anonmoose_envmap_gold1_ci8
                0x00000000070ad180                jrb_dl_rgba16_anonmoose_envmap_gold1_ci8_aligner
                0x00000000070ad188                jrb_dl_flower_pal_rgba16_copy
                0x00000000070ad1e8                jrb_dl_flower_pal_rgba16_copy_aligner
                0x00000000070ad1f0                jrb_dl_flower_ci8_copy
                0x00000000070ad5f0                jrb_dl_flower_ci8_copy_aligner
                0x00000000070ad5f8                jrb_dl__7_pal_rgba16
                0x00000000070ad6b8                jrb_dl__7_pal_rgba16_aligner
                0x00000000070ad6c0                jrb_dl__7_ci8
                0x00000000070adac0                jrb_dl__7_ci8_aligner
                0x00000000070adac8                jrb_dl_ci4_sophie_darkdirt_pal_rgba16
                0x00000000070adae0                jrb_dl_ci4_sophie_darkdirt_pal_rgba16_aligner
                0x00000000070adae8                jrb_dl_ci4_sophie_darkdirt_ci4
                0x00000000070ae2e8                jrb_dl_ci4_sophie_darkdirt_ci4_aligner
                0x00000000070ae2f0                jrb_dl_invisible_ia8
                0x00000000070ae6f0                jrb_dl_invisible_ia8_aligner
                0x00000000070ae6f8                jrb_dl_flower_pal_rgba16
                0x00000000070ae758                jrb_dl_flower_pal_rgba16_aligner
                0x00000000070ae760                jrb_dl_flower_ci8
                0x00000000070aeb60                jrb_dl_flower_ci8_aligner
                0x00000000070aeb68                jrb_dl_light_pal_rgba16
                0x00000000070aeb70                jrb_dl_light_pal_rgba16_aligner
                0x00000000070aeb78                jrb_dl_light_ci4
                0x00000000070aed78                jrb_dl_light_ci4_aligner
                0x00000000070aed80                jrb_dl_tempImgEd032C_pal_rgba16
                0x00000000070aef00                jrb_dl_tempImgEd032C_pal_rgba16_aligner
                0x00000000070aef08                jrb_dl_tempImgEd032C_ci8
                0x00000000070af308                jrb_dl_tempImgEd032C_ci8_aligner
                0x00000000070af310                jrb_dl_grate_pal_rgba16
                0x00000000070af3f8                jrb_dl_grate_pal_rgba16_aligner
                0x00000000070af400                jrb_dl_grate_ci8
                0x00000000070af800                jrb_dl_grate_ci8_aligner
                0x00000000070af808                jrb_dl__3563512_pal_rgba16
                0x00000000070af828                jrb_dl__3563512_pal_rgba16_aligner
                0x00000000070af830                jrb_dl__3563512_ci4
                0x00000000070b0030                jrb_dl__3563512_ci4_aligner
                0x00000000070b0038                jrb_dl_KKIIDDZZ_DAT_2238__p00_pal_rgba16
                0x00000000070b0058                jrb_dl_KKIIDDZZ_DAT_2238__p00_pal_rgba16_aligner
                0x00000000070b0060                jrb_dl_KKIIDDZZ_DAT_2238__p00_ci4
                0x00000000070b0860                jrb_dl_KKIIDDZZ_DAT_2238__p00_ci4_aligner
                0x00000000070b0868                jrb_dl_KKIIDDZZ_DAT_971__p00_pal_rgba16
                0x00000000070b0990                jrb_dl_KKIIDDZZ_DAT_971__p00_pal_rgba16_aligner
                0x00000000070b0998                jrb_dl_KKIIDDZZ_DAT_971__p00_ci8
                0x00000000070b0d98                jrb_dl_KKIIDDZZ_DAT_971__p00_ci8_aligner
                0x00000000070b0da0                jrb_dl_rgba16_anonmoose_swirl1_pal_rgba16
                0x00000000070b0df0                jrb_dl_rgba16_anonmoose_swirl1_pal_rgba16_aligner
                0x00000000070b0df8                jrb_dl_rgba16_anonmoose_swirl1_ci8
                0x00000000070b11f8                jrb_dl_rgba16_anonmoose_swirl1_ci8_aligner
                0x00000000070b1200                jrb_dl_KKIIDDZZ_DAT_964__p00_pal_rgba16
                0x00000000070b12e0                jrb_dl_KKIIDDZZ_DAT_964__p00_pal_rgba16_aligner
                0x00000000070b12e8                jrb_dl_KKIIDDZZ_DAT_964__p00_ci8
                0x00000000070b16e8                jrb_dl_KKIIDDZZ_DAT_964__p00_ci8_aligner
                0x00000000070b16f0                jrb_dl_ci4_zeina_water_1_pal_rgba16
                0x00000000070b1710                jrb_dl_ci4_zeina_water_1_pal_rgba16_aligner
                0x00000000070b1718                jrb_dl_ci4_zeina_water_1_ci4
                0x00000000070b1f18                jrb_dl_ci4_zeina_water_1_ci4_aligner
                0x00000000070b1f20                jrb_dl_KKIIDDZZ_DAT_2237__p00_pal_rgba16
                0x00000000070b1f40                jrb_dl_KKIIDDZZ_DAT_2237__p00_pal_rgba16_aligner
                0x00000000070b1f48                jrb_dl_KKIIDDZZ_DAT_2237__p00_ci4
                0x00000000070b2748                jrb_dl_KKIIDDZZ_DAT_2237__p00_ci4_aligner
                0x00000000070b2750                jrb_dl_KKIIDDZZ_DAT_684__p00_pal_rgba16
                0x00000000070b2768                jrb_dl_KKIIDDZZ_DAT_684__p00_pal_rgba16_aligner
                0x00000000070b2770                jrb_dl_KKIIDDZZ_DAT_684__p00_ci4
                0x00000000070b2f70                jrb_dl_KKIIDDZZ_DAT_684__p00_ci4_aligner
                0x00000000070b2f78                jrb_dl_ci4_anonmoose_Dirt1_pal_rgba16
                0x00000000070b2fb0                jrb_dl_ci4_anonmoose_Dirt1_pal_rgba16_aligner
                0x00000000070b2fb8                jrb_dl_ci4_anonmoose_Dirt1_ci8
                0x00000000070b33b8                jrb_dl_ci4_anonmoose_Dirt1_ci8_aligner
                0x00000000070b33c0                jrb_dl__25_pal_rgba16
                0x00000000070b3430                jrb_dl__25_pal_rgba16_aligner
                0x00000000070b3438                jrb_dl__25_ci8
                0x00000000070b3838                jrb_dl__25_ci8_aligner
                0x00000000070b3840                jrb_dl_KKIIDDZZ_DAT_1060__p00_pal_rgba16
                0x00000000070b38e0                jrb_dl_KKIIDDZZ_DAT_1060__p00_pal_rgba16_aligner
                0x00000000070b38e8                jrb_dl_KKIIDDZZ_DAT_1060__p00_ci8
                0x00000000070b3ce8                jrb_dl_KKIIDDZZ_DAT_1060__p00_ci8_aligner
                0x00000000070b3cf0                jrb_dl_ci4_sophie_rooftile_pal_rgba16
                0x00000000070b3d10                jrb_dl_ci4_sophie_rooftile_pal_rgba16_aligner
                0x00000000070b3d18                jrb_dl_ci4_sophie_rooftile_ci4
                0x00000000070b4518                jrb_dl_ci4_sophie_rooftile_ci4_aligner
                0x00000000070b4520                jrb_dl_KKIIDDZZ_DAT_1818__p00_pal_rgba16
                0x00000000070b45f8                jrb_dl_KKIIDDZZ_DAT_1818__p00_pal_rgba16_aligner
                0x00000000070b4600                jrb_dl_KKIIDDZZ_DAT_1818__p00_ci8
                0x00000000070b4a00                jrb_dl_KKIIDDZZ_DAT_1818__p00_ci8_aligner
                0x00000000070b4a08                jrb_dl_ci4_sophie_broom_pal_rgba16
                0x00000000070b4a28                jrb_dl_ci4_sophie_broom_pal_rgba16_aligner
                0x00000000070b4a30                jrb_dl_ci4_sophie_broom_ci4
                0x00000000070b5230                jrb_dl_ci4_sophie_broom_ci4_aligner
                0x00000000070b5238                jrb_dl_ci4_sophie_interiorwall_pal_rgba16
                0x00000000070b5250                jrb_dl_ci4_sophie_interiorwall_pal_rgba16_aligner
                0x00000000070b5258                jrb_dl_ci4_sophie_interiorwall_ci4
                0x00000000070b5a58                jrb_dl_ci4_sophie_interiorwall_ci4_aligner
                0x00000000070b5a60                jrb_dl_GM4E01_3b9bd952_14_pal_rgba16
                0x00000000070b5a88                jrb_dl_GM4E01_3b9bd952_14_pal_rgba16_aligner
                0x00000000070b5a90                jrb_dl_GM4E01_3b9bd952_14_ci8
                0x00000000070b5e90                jrb_dl_GM4E01_3b9bd952_14_ci8_aligner
                0x00000000070b5e98                jrb_dl_ci4_sophie_hay_pal_rgba16
                0x00000000070b5eb8                jrb_dl_ci4_sophie_hay_pal_rgba16_aligner
                0x00000000070b5ec0                jrb_dl_ci4_sophie_hay_ci4
                0x00000000070b66c0                jrb_dl_ci4_sophie_hay_ci4_aligner
                0x00000000070b66c8                jrb_dl_ci4_sophie_wood2_pal_rgba16
                0x00000000070b66e8                jrb_dl_ci4_sophie_wood2_pal_rgba16_aligner
                0x00000000070b66f0                jrb_dl_ci4_sophie_wood2_ci4
                0x00000000070b6ef0                jrb_dl_ci4_sophie_wood2_ci4_aligner
                0x00000000070b6ef8                jrb_area_1_macro_objs
                0x00000000070b6efc                jrb_area_1_collision
                0x00000000070e0fac                jrb_movtex_sunken_ship_water
                0x00000000070e0fdc                jrb_seg7_area_2_macro_objs
                0x00000000070e0fe8                jrb_seg7_area_2_collision
                0x00000000070e2098                jrb_seg7_dl_07010548
                0x00000000070e26e8                jrb_seg7_dl_0700FE48
                0x00000000070e34c8                jrb_seg7_dl_0700EF00
                0x00000000070e4e90                jrb_movtex_initial_mist
                0x00000000070e4ec0                jrb_movtex_water
                0x00000000070e4f18                jrb_seg7_trajectory_unagi_2
                0x00000000070e4f64                jrb_seg7_trajectory_unagi_1
                0x00000000070e4f98                jrb_seg7_collision_0700D1DC
                0x00000000070e4fcc                jrb_seg7_collision_pillar_base
                0x00000000070e5018                jrb_seg7_collision_in_sunken_ship_2
                0x00000000070e529c                jrb_seg7_collision_0700CEF0
                0x00000000070e5344                jrb_seg7_collision_in_sunken_ship
                0x00000000070e53f0                jrb_seg7_collision_in_sunken_ship_3
                0x00000000070e5a38                jrb_seg7_collision_floating_box
                0x00000000070e5ad4                jrb_seg7_collision_floating_platform
                0x00000000070e5b70                jrb_seg7_collision_rock_solid
                0x00000000070e5c64                jrb_seg7_area_1_macro_objs
                0x00000000070e5ed4                jrb_seg7_area_1_collision
                0x00000000070e7798                jrb_seg7_dl_0700AFB0
                0x00000000070e78e8                jrb_seg7_dl_0700AE48
                0x00000000070e7a78                jrb_seg7_dl_0700AC68
                0x00000000070e8038                jrb_seg7_dl_0700A608
                0x00000000070e89f0                jrb_seg7_dl_07009B30
                0x00000000070e8ad0                jrb_seg7_dl_07009A58
                0x00000000070e9380                jrb_seg7_dl_070090B0
                0x00000000070e9460                jrb_seg7_dl_07008FD8
                0x00000000070ea1c8                jrb_seg7_dl_070080F8
                0x00000000070ea498                jrb_seg7_dl_07007DC8
                0x00000000070ea790                jrb_seg7_dl_07007AC8
                0x00000000070eaab8                jrb_seg7_dl_07007718
                0x00000000070eac70                jrb_seg7_dl_07007570
                0x00000000070eb700                jrb_seg7_dl_070069B0
                0x00000000070ec658                jrb_seg7_dl_070058C8
                0x00000000070ed140                jrb_seg7_dl_07004C78
                0x00000000070ed418                jrb_seg7_dl_07004940
                0x00000000070eeab8                jrb_seg7_dl_07002FD0

.data1
 *(.data1)

.got.plt
 *(.got.plt)
                0x00000000070f1a90                . = .
                0x00000000070f1a90                . = .
                0x00000000070f9a80                _gp = (ALIGN (0x10) + 0x7ff0)

.got
 *(.got)

.sdata
 *(.sdata .sdata.* .gnu.linkonce.s.*)

.lit8
 *(.lit8)

.lit4
 *(.lit4)
                0x00000000070f1a90                _edata = .
                [!provide]                        PROVIDE (edata = .)
                0x00000000070f1a90                . = .
                0x00000000070f1a90                __bss_start = .
                0x00000000070f1a90                _fbss = .

.sbss
 *(.dynsbss)
 *(.sbss .sbss.* .gnu.linkonce.sb.*)
 *(.scommon)

.bss            0x00000000070f1a90        0x0 load address 0x00000000070f1aa8
 *(.dynbss)
 *(.bss .bss.* .gnu.linkonce.b.*)
 .bss           0x00000000070f1a90        0x0 build/us_n64/levels/jrb/leveldata.o
 *(COMMON)
                0x00000000070f1a90                . = ALIGN ((. != 0x0)?0x4:0x1)
                0x00000000070f1a90                . = ALIGN (0x4)
                0x00000000070f1a90                . = SEGMENT_START ("ldata-segment", .)
                0x00000000070f1a90                . = ALIGN (0x4)
                0x00000000070f1a90                _end = .
                [!provide]                        PROVIDE (end = .)
                0x00000000070f1a90                . = DATA_SEGMENT_END (.)

.stab
 *(.stab)

.stabstr
 *(.stabstr)

.stab.excl
 *(.stab.excl)

.stab.exclstr
 *(.stab.exclstr)

.stab.index
 *(.stab.index)

.stab.indexstr
 *(.stab.indexstr)

.comment        0x0000000000000000       0x12
 *(.comment)
 .comment       0x0000000000000000       0x12 build/us_n64/levels/jrb/leveldata.o
                                         0x13 (size before relaxing)

.pdr            0x0000000000000000        0x0
 .pdr           0x0000000000000000        0x0 build/us_n64/levels/jrb/leveldata.o

.debug
 *(.debug)

.line
 *(.line)

.debug_srcinfo
 *(.debug_srcinfo)

.debug_sfnames
 *(.debug_sfnames)

.debug_aranges
 *(.debug_aranges)

.debug_pubnames
 *(.debug_pubnames)

.debug_info
 *(.debug_info .gnu.linkonce.wi.*)

.debug_abbrev
 *(.debug_abbrev)

.debug_line
 *(.debug_line .debug_line.* .debug_line_end)

.debug_frame
 *(.debug_frame)

.debug_str
 *(.debug_str)

.debug_loc
 *(.debug_loc)

.debug_macinfo
 *(.debug_macinfo)

.debug_weaknames
 *(.debug_weaknames)

.debug_funcnames
 *(.debug_funcnames)

.debug_typenames
 *(.debug_typenames)

.debug_varnames
 *(.debug_varnames)

.debug_pubtypes
 *(.debug_pubtypes)

.debug_ranges
 *(.debug_ranges)

.debug_macro
 *(.debug_macro)

.debug_addr
 *(.debug_addr)

.gnu.attributes
                0x0000000000000000       0x10
 *(.gnu.attributes)
 .gnu.attributes
                0x0000000000000000       0x10 build/us_n64/levels/jrb/leveldata.o

.gptab.sdata
 *(.gptab.data)
 *(.gptab.sdata)

.gptab.sbss
 *(.gptab.bss)
 *(.gptab.sbss)

.mdebug.abi32   0x0000000000000000        0x0
 *(.mdebug.abi32)
 .mdebug.abi32  0x0000000000000000        0x0 build/us_n64/levels/jrb/leveldata.o

.mdebug.abiN32
 *(.mdebug.abiN32)

.mdebug.abi64
 *(.mdebug.abi64)

.mdebug.abiO64
 *(.mdebug.abiO64)

.mdebug.eabi32
 *(.mdebug.eabi32)

.mdebug.eabi64
 *(.mdebug.eabi64)

.gcc_compiled_long32
 *(.gcc_compiled_long32)

.gcc_compiled_long64
 *(.gcc_compiled_long64)

/DISCARD/
 *(.note.GNU-stack)
 *(.gnu_debuglink)
 *(.gnu.lto_*)
OUTPUT(build/us_n64/levels/jrb/leveldata.elf elf32-bigmips)
